
a_plus_b：     文件格式 elf64-littleriscv


Disassembly of section .text:

00000000000100e8 <exit>:
   100e8:	ff010113          	addi	sp,sp,-16
   100ec:	00000593          	li	a1,0
   100f0:	00813023          	sd	s0,0(sp)
   100f4:	00113423          	sd	ra,8(sp)
   100f8:	00050413          	mv	s0,a0
   100fc:	39d020ef          	jal	ra,12c98 <__call_exitprocs>
   10100:	7481b503          	ld	a0,1864(gp) # 24d50 <_global_impure_ptr>
   10104:	05853783          	ld	a5,88(a0)
   10108:	00078463          	beqz	a5,10110 <exit+0x28>
   1010c:	000780e7          	jalr	a5
   10110:	00040513          	mv	a0,s0
   10114:	2150f0ef          	jal	ra,1fb28 <_exit>

0000000000010118 <register_fini>:
   10118:	00000793          	li	a5,0
   1011c:	00078863          	beqz	a5,1012c <register_fini+0x14>
   10120:	00013537          	lui	a0,0x13
   10124:	47850513          	addi	a0,a0,1144 # 13478 <__libc_fini_array>
   10128:	08d0c06f          	j	1c9b4 <atexit>
   1012c:	00008067          	ret

0000000000010130 <_start>:
   10130:	00014197          	auipc	gp,0x14
   10134:	4d818193          	addi	gp,gp,1240 # 24608 <__global_pointer$>
   10138:	77018513          	addi	a0,gp,1904 # 24d78 <_PathLocale>
   1013c:	00015617          	auipc	a2,0x15
   10140:	ccc60613          	addi	a2,a2,-820 # 24e08 <__BSS_END__>
   10144:	40a60633          	sub	a2,a2,a0
   10148:	00000593          	li	a1,0
   1014c:	190000ef          	jal	ra,102dc <memset>
   10150:	0000d517          	auipc	a0,0xd
   10154:	86450513          	addi	a0,a0,-1948 # 1c9b4 <atexit>
   10158:	00050863          	beqz	a0,10168 <_start+0x38>
   1015c:	00003517          	auipc	a0,0x3
   10160:	31c50513          	addi	a0,a0,796 # 13478 <__libc_fini_array>
   10164:	0510c0ef          	jal	ra,1c9b4 <atexit>
   10168:	0d8000ef          	jal	ra,10240 <__libc_init_array>
   1016c:	00012503          	lw	a0,0(sp)
   10170:	00810593          	addi	a1,sp,8
   10174:	00000613          	li	a2,0
   10178:	06c000ef          	jal	ra,101e4 <main>
   1017c:	f6dff06f          	j	100e8 <exit>

0000000000010180 <__do_global_dtors_aux>:
   10180:	ff010113          	addi	sp,sp,-16
   10184:	00813023          	sd	s0,0(sp)
   10188:	7a01c783          	lbu	a5,1952(gp) # 24da8 <completed.1>
   1018c:	00113423          	sd	ra,8(sp)
   10190:	02079263          	bnez	a5,101b4 <__do_global_dtors_aux+0x34>
   10194:	00000793          	li	a5,0
   10198:	00078a63          	beqz	a5,101ac <__do_global_dtors_aux+0x2c>
   1019c:	00024537          	lui	a0,0x24
   101a0:	c0050513          	addi	a0,a0,-1024 # 23c00 <__FRAME_END__>
   101a4:	00000097          	auipc	ra,0x0
   101a8:	000000e7          	jalr	zero # 0 <exit-0x100e8>
   101ac:	00100793          	li	a5,1
   101b0:	7af18023          	sb	a5,1952(gp) # 24da8 <completed.1>
   101b4:	00813083          	ld	ra,8(sp)
   101b8:	00013403          	ld	s0,0(sp)
   101bc:	01010113          	addi	sp,sp,16
   101c0:	00008067          	ret

00000000000101c4 <frame_dummy>:
   101c4:	00000793          	li	a5,0
   101c8:	00078c63          	beqz	a5,101e0 <frame_dummy+0x1c>
   101cc:	00024537          	lui	a0,0x24
   101d0:	7a818593          	addi	a1,gp,1960 # 24db0 <object.0>
   101d4:	c0050513          	addi	a0,a0,-1024 # 23c00 <__FRAME_END__>
   101d8:	00000317          	auipc	t1,0x0
   101dc:	00000067          	jr	zero # 0 <exit-0x100e8>
   101e0:	00008067          	ret

00000000000101e4 <main>:
   101e4:	fe010113          	addi	sp,sp,-32
   101e8:	00113c23          	sd	ra,24(sp)
   101ec:	00813823          	sd	s0,16(sp)
   101f0:	02010413          	addi	s0,sp,32
   101f4:	03800793          	li	a5,56
   101f8:	fef42623          	sw	a5,-20(s0)
   101fc:	02600793          	li	a5,38
   10200:	fef42423          	sw	a5,-24(s0)
   10204:	fec42783          	lw	a5,-20(s0)
   10208:	00078713          	mv	a4,a5
   1020c:	fe842783          	lw	a5,-24(s0)
   10210:	00f707bb          	addw	a5,a4,a5
   10214:	0007879b          	sext.w	a5,a5
   10218:	00078593          	mv	a1,a5
   1021c:	000227b7          	lui	a5,0x22
   10220:	ce078513          	addi	a0,a5,-800 # 21ce0 <__clzdi2+0x50>
   10224:	1d4000ef          	jal	ra,103f8 <printf>
   10228:	00000793          	li	a5,0
   1022c:	00078513          	mv	a0,a5
   10230:	01813083          	ld	ra,24(sp)
   10234:	01013403          	ld	s0,16(sp)
   10238:	02010113          	addi	sp,sp,32
   1023c:	00008067          	ret

0000000000010240 <__libc_init_array>:
   10240:	fe010113          	addi	sp,sp,-32
   10244:	00813823          	sd	s0,16(sp)
   10248:	000247b7          	lui	a5,0x24
   1024c:	00024437          	lui	s0,0x24
   10250:	01213023          	sd	s2,0(sp)
   10254:	c0478793          	addi	a5,a5,-1020 # 23c04 <__preinit_array_end>
   10258:	c0440713          	addi	a4,s0,-1020 # 23c04 <__preinit_array_end>
   1025c:	00113c23          	sd	ra,24(sp)
   10260:	00913423          	sd	s1,8(sp)
   10264:	40e78933          	sub	s2,a5,a4
   10268:	02e78263          	beq	a5,a4,1028c <__libc_init_array+0x4c>
   1026c:	40395913          	srai	s2,s2,0x3
   10270:	c0440413          	addi	s0,s0,-1020
   10274:	00000493          	li	s1,0
   10278:	00043783          	ld	a5,0(s0)
   1027c:	00148493          	addi	s1,s1,1
   10280:	00840413          	addi	s0,s0,8
   10284:	000780e7          	jalr	a5
   10288:	ff24e8e3          	bltu	s1,s2,10278 <__libc_init_array+0x38>
   1028c:	00024437          	lui	s0,0x24
   10290:	000247b7          	lui	a5,0x24
   10294:	c1878793          	addi	a5,a5,-1000 # 23c18 <__do_global_dtors_aux_fini_array_entry>
   10298:	c0840713          	addi	a4,s0,-1016 # 23c08 <__init_array_start>
   1029c:	40e78933          	sub	s2,a5,a4
   102a0:	40395913          	srai	s2,s2,0x3
   102a4:	02e78063          	beq	a5,a4,102c4 <__libc_init_array+0x84>
   102a8:	c0840413          	addi	s0,s0,-1016
   102ac:	00000493          	li	s1,0
   102b0:	00043783          	ld	a5,0(s0)
   102b4:	00148493          	addi	s1,s1,1
   102b8:	00840413          	addi	s0,s0,8
   102bc:	000780e7          	jalr	a5
   102c0:	ff24e8e3          	bltu	s1,s2,102b0 <__libc_init_array+0x70>
   102c4:	01813083          	ld	ra,24(sp)
   102c8:	01013403          	ld	s0,16(sp)
   102cc:	00813483          	ld	s1,8(sp)
   102d0:	00013903          	ld	s2,0(sp)
   102d4:	02010113          	addi	sp,sp,32
   102d8:	00008067          	ret

00000000000102dc <memset>:
   102dc:	00f00313          	li	t1,15
   102e0:	00050713          	mv	a4,a0
   102e4:	02c37a63          	bgeu	t1,a2,10318 <memset+0x3c>
   102e8:	00f77793          	andi	a5,a4,15
   102ec:	0a079063          	bnez	a5,1038c <memset+0xb0>
   102f0:	06059e63          	bnez	a1,1036c <memset+0x90>
   102f4:	ff067693          	andi	a3,a2,-16
   102f8:	00f67613          	andi	a2,a2,15
   102fc:	00e686b3          	add	a3,a3,a4
   10300:	00b73023          	sd	a1,0(a4)
   10304:	00b73423          	sd	a1,8(a4)
   10308:	01070713          	addi	a4,a4,16
   1030c:	fed76ae3          	bltu	a4,a3,10300 <memset+0x24>
   10310:	00061463          	bnez	a2,10318 <memset+0x3c>
   10314:	00008067          	ret
   10318:	40c306b3          	sub	a3,t1,a2
   1031c:	00269693          	slli	a3,a3,0x2
   10320:	00000297          	auipc	t0,0x0
   10324:	005686b3          	add	a3,a3,t0
   10328:	00c68067          	jr	12(a3)
   1032c:	00b70723          	sb	a1,14(a4)
   10330:	00b706a3          	sb	a1,13(a4)
   10334:	00b70623          	sb	a1,12(a4)
   10338:	00b705a3          	sb	a1,11(a4)
   1033c:	00b70523          	sb	a1,10(a4)
   10340:	00b704a3          	sb	a1,9(a4)
   10344:	00b70423          	sb	a1,8(a4)
   10348:	00b703a3          	sb	a1,7(a4)
   1034c:	00b70323          	sb	a1,6(a4)
   10350:	00b702a3          	sb	a1,5(a4)
   10354:	00b70223          	sb	a1,4(a4)
   10358:	00b701a3          	sb	a1,3(a4)
   1035c:	00b70123          	sb	a1,2(a4)
   10360:	00b700a3          	sb	a1,1(a4)
   10364:	00b70023          	sb	a1,0(a4)
   10368:	00008067          	ret
   1036c:	0ff5f593          	zext.b	a1,a1
   10370:	00859693          	slli	a3,a1,0x8
   10374:	00d5e5b3          	or	a1,a1,a3
   10378:	01059693          	slli	a3,a1,0x10
   1037c:	00d5e5b3          	or	a1,a1,a3
   10380:	02059693          	slli	a3,a1,0x20
   10384:	00d5e5b3          	or	a1,a1,a3
   10388:	f6dff06f          	j	102f4 <memset+0x18>
   1038c:	00279693          	slli	a3,a5,0x2
   10390:	00000297          	auipc	t0,0x0
   10394:	005686b3          	add	a3,a3,t0
   10398:	00008293          	mv	t0,ra
   1039c:	f98680e7          	jalr	-104(a3)
   103a0:	00028093          	mv	ra,t0
   103a4:	ff078793          	addi	a5,a5,-16
   103a8:	40f70733          	sub	a4,a4,a5
   103ac:	00f60633          	add	a2,a2,a5
   103b0:	f6c374e3          	bgeu	t1,a2,10318 <memset+0x3c>
   103b4:	f3dff06f          	j	102f0 <memset+0x14>

00000000000103b8 <_printf_r>:
   103b8:	fb010113          	addi	sp,sp,-80
   103bc:	02c13023          	sd	a2,32(sp)
   103c0:	02d13423          	sd	a3,40(sp)
   103c4:	02e13823          	sd	a4,48(sp)
   103c8:	02f13c23          	sd	a5,56(sp)
   103cc:	05013023          	sd	a6,64(sp)
   103d0:	05113423          	sd	a7,72(sp)
   103d4:	00058613          	mv	a2,a1
   103d8:	01053583          	ld	a1,16(a0)
   103dc:	02010693          	addi	a3,sp,32
   103e0:	00113c23          	sd	ra,24(sp)
   103e4:	00d13423          	sd	a3,8(sp)
   103e8:	05c000ef          	jal	ra,10444 <_vfprintf_r>
   103ec:	01813083          	ld	ra,24(sp)
   103f0:	05010113          	addi	sp,sp,80
   103f4:	00008067          	ret

00000000000103f8 <printf>:
   103f8:	7581b303          	ld	t1,1880(gp) # 24d60 <_impure_ptr>
   103fc:	fa010113          	addi	sp,sp,-96
   10400:	02c13823          	sd	a2,48(sp)
   10404:	02d13c23          	sd	a3,56(sp)
   10408:	02b13423          	sd	a1,40(sp)
   1040c:	04e13023          	sd	a4,64(sp)
   10410:	04f13423          	sd	a5,72(sp)
   10414:	05013823          	sd	a6,80(sp)
   10418:	05113c23          	sd	a7,88(sp)
   1041c:	01033583          	ld	a1,16(t1) # 101e8 <main+0x4>
   10420:	02810693          	addi	a3,sp,40
   10424:	00050613          	mv	a2,a0
   10428:	00030513          	mv	a0,t1
   1042c:	00113c23          	sd	ra,24(sp)
   10430:	00d13423          	sd	a3,8(sp)
   10434:	010000ef          	jal	ra,10444 <_vfprintf_r>
   10438:	01813083          	ld	ra,24(sp)
   1043c:	06010113          	addi	sp,sp,96
   10440:	00008067          	ret

0000000000010444 <_vfprintf_r>:
   10444:	d9010113          	addi	sp,sp,-624
   10448:	26113423          	sd	ra,616(sp)
   1044c:	26813023          	sd	s0,608(sp)
   10450:	25213823          	sd	s2,592(sp)
   10454:	00b13023          	sd	a1,0(sp)
   10458:	00060913          	mv	s2,a2
   1045c:	02d13023          	sd	a3,32(sp)
   10460:	24913c23          	sd	s1,600(sp)
   10464:	25313423          	sd	s3,584(sp)
   10468:	25413023          	sd	s4,576(sp)
   1046c:	23513c23          	sd	s5,568(sp)
   10470:	23613823          	sd	s6,560(sp)
   10474:	23713423          	sd	s7,552(sp)
   10478:	23813023          	sd	s8,544(sp)
   1047c:	21913c23          	sd	s9,536(sp)
   10480:	21a13823          	sd	s10,528(sp)
   10484:	21b13423          	sd	s11,520(sp)
   10488:	00050413          	mv	s0,a0
   1048c:	04a13823          	sd	a0,80(sp)
   10490:	2c8060ef          	jal	ra,16758 <_localeconv_r>
   10494:	00053703          	ld	a4,0(a0)
   10498:	00070513          	mv	a0,a4
   1049c:	06e13023          	sd	a4,96(sp)
   104a0:	001080ef          	jal	ra,18ca0 <strlen>
   104a4:	04a13c23          	sd	a0,88(sp)
   104a8:	0e013823          	sd	zero,240(sp)
   104ac:	0e013c23          	sd	zero,248(sp)
   104b0:	00040663          	beqz	s0,104bc <_vfprintf_r+0x78>
   104b4:	05042703          	lw	a4,80(s0)
   104b8:	5e070a63          	beqz	a4,10aac <_vfprintf_r+0x668>
   104bc:	00013783          	ld	a5,0(sp)
   104c0:	01079703          	lh	a4,16(a5)
   104c4:	03271693          	slli	a3,a4,0x32
   104c8:	0206c663          	bltz	a3,104f4 <_vfprintf_r+0xb0>
   104cc:	0ac7a683          	lw	a3,172(a5)
   104d0:	00002637          	lui	a2,0x2
   104d4:	00c76733          	or	a4,a4,a2
   104d8:	ffffe637          	lui	a2,0xffffe
   104dc:	0107171b          	slliw	a4,a4,0x10
   104e0:	fff60613          	addi	a2,a2,-1 # ffffffffffffdfff <__BSS_END__+0xfffffffffffd91f7>
   104e4:	4107571b          	sraiw	a4,a4,0x10
   104e8:	00c6f6b3          	and	a3,a3,a2
   104ec:	00e79823          	sh	a4,16(a5)
   104f0:	0ad7a623          	sw	a3,172(a5)
   104f4:	00877693          	andi	a3,a4,8
   104f8:	32068263          	beqz	a3,1081c <_vfprintf_r+0x3d8>
   104fc:	00013783          	ld	a5,0(sp)
   10500:	0187b683          	ld	a3,24(a5)
   10504:	30068c63          	beqz	a3,1081c <_vfprintf_r+0x3d8>
   10508:	01a77713          	andi	a4,a4,26
   1050c:	00a00693          	li	a3,10
   10510:	32d70a63          	beq	a4,a3,10844 <_vfprintf_r+0x400>
   10514:	18010793          	addi	a5,sp,384
   10518:	00022737          	lui	a4,0x22
   1051c:	00078313          	mv	t1,a5
   10520:	10f13023          	sd	a5,256(sp)
   10524:	00090b13          	mv	s6,s2
   10528:	d4470793          	addi	a5,a4,-700 # 21d44 <__clzdi2+0xb4>
   1052c:	00022737          	lui	a4,0x22
   10530:	02f13423          	sd	a5,40(sp)
   10534:	f4870793          	addi	a5,a4,-184 # 21f48 <zeroes.0>
   10538:	000b4703          	lbu	a4,0(s6)
   1053c:	10013823          	sd	zero,272(sp)
   10540:	10012423          	sw	zero,264(sp)
   10544:	02013c23          	sd	zero,56(sp)
   10548:	06013423          	sd	zero,104(sp)
   1054c:	06013823          	sd	zero,112(sp)
   10550:	06013c23          	sd	zero,120(sp)
   10554:	08013023          	sd	zero,128(sp)
   10558:	08013423          	sd	zero,136(sp)
   1055c:	00013823          	sd	zero,16(sp)
   10560:	00f13423          	sd	a5,8(sp)
   10564:	05013983          	ld	s3,80(sp)
   10568:	00030413          	mv	s0,t1
   1056c:	24070063          	beqz	a4,107ac <_vfprintf_r+0x368>
   10570:	000b0493          	mv	s1,s6
   10574:	02500693          	li	a3,37
   10578:	2ed70a63          	beq	a4,a3,1086c <_vfprintf_r+0x428>
   1057c:	0014c703          	lbu	a4,1(s1)
   10580:	00148493          	addi	s1,s1,1
   10584:	fe071ae3          	bnez	a4,10578 <_vfprintf_r+0x134>
   10588:	4164893b          	subw	s2,s1,s6
   1058c:	22090063          	beqz	s2,107ac <_vfprintf_r+0x368>
   10590:	11013d83          	ld	s11,272(sp)
   10594:	10812683          	lw	a3,264(sp)
   10598:	01643023          	sd	s6,0(s0)
   1059c:	012d8733          	add	a4,s11,s2
   105a0:	0016861b          	addiw	a2,a3,1
   105a4:	01243423          	sd	s2,8(s0)
   105a8:	10e13823          	sd	a4,272(sp)
   105ac:	10c12423          	sw	a2,264(sp)
   105b0:	00700713          	li	a4,7
   105b4:	01040413          	addi	s0,s0,16
   105b8:	2cc74263          	blt	a4,a2,1087c <_vfprintf_r+0x438>
   105bc:	01013783          	ld	a5,16(sp)
   105c0:	0004c703          	lbu	a4,0(s1)
   105c4:	012787bb          	addw	a5,a5,s2
   105c8:	00f13823          	sd	a5,16(sp)
   105cc:	1e070063          	beqz	a4,107ac <_vfprintf_r+0x368>
   105d0:	fff00313          	li	t1,-1
   105d4:	0014ce03          	lbu	t3,1(s1)
   105d8:	0c0107a3          	sb	zero,207(sp)
   105dc:	00148493          	addi	s1,s1,1
   105e0:	00000a13          	li	s4,0
   105e4:	00000913          	li	s2,0
   105e8:	05a00b93          	li	s7,90
   105ec:	00030a93          	mv	s5,t1
   105f0:	00148493          	addi	s1,s1,1
   105f4:	000e0c9b          	sext.w	s9,t3
   105f8:	fe0c879b          	addiw	a5,s9,-32
   105fc:	0007871b          	sext.w	a4,a5
   10600:	04ebec63          	bltu	s7,a4,10658 <_vfprintf_r+0x214>
   10604:	02079713          	slli	a4,a5,0x20
   10608:	01e75793          	srli	a5,a4,0x1e
   1060c:	02813703          	ld	a4,40(sp)
   10610:	00e787b3          	add	a5,a5,a4
   10614:	0007a783          	lw	a5,0(a5)
   10618:	00078067          	jr	a5
   1061c:	00000a13          	li	s4,0
   10620:	00900693          	li	a3,9
   10624:	0004c703          	lbu	a4,0(s1)
   10628:	002a179b          	slliw	a5,s4,0x2
   1062c:	01478a3b          	addw	s4,a5,s4
   10630:	fd0c8c9b          	addiw	s9,s9,-48
   10634:	001a1a1b          	slliw	s4,s4,0x1
   10638:	fd07079b          	addiw	a5,a4,-48
   1063c:	014c8a3b          	addw	s4,s9,s4
   10640:	00148493          	addi	s1,s1,1
   10644:	00070c9b          	sext.w	s9,a4
   10648:	fcf6fee3          	bgeu	a3,a5,10624 <_vfprintf_r+0x1e0>
   1064c:	fe0c879b          	addiw	a5,s9,-32
   10650:	0007871b          	sext.w	a4,a5
   10654:	faebf8e3          	bgeu	s7,a4,10604 <_vfprintf_r+0x1c0>
   10658:	140c8a63          	beqz	s9,107ac <_vfprintf_r+0x368>
   1065c:	11910c23          	sb	s9,280(sp)
   10660:	0c0107a3          	sb	zero,207(sp)
   10664:	00100c13          	li	s8,1
   10668:	00100d13          	li	s10,1
   1066c:	11810b13          	addi	s6,sp,280
   10670:	00013c23          	sd	zero,24(sp)
   10674:	00000313          	li	t1,0
   10678:	04013423          	sd	zero,72(sp)
   1067c:	04013023          	sd	zero,64(sp)
   10680:	02013823          	sd	zero,48(sp)
   10684:	00297b93          	andi	s7,s2,2
   10688:	000b8463          	beqz	s7,10690 <_vfprintf_r+0x24c>
   1068c:	002c0c1b          	addiw	s8,s8,2
   10690:	08497a93          	andi	s5,s2,132
   10694:	000a9663          	bnez	s5,106a0 <_vfprintf_r+0x25c>
   10698:	418a073b          	subw	a4,s4,s8
   1069c:	34e046e3          	bgtz	a4,111e8 <_vfprintf_r+0xda4>
   106a0:	0cf14703          	lbu	a4,207(sp)
   106a4:	11013d83          	ld	s11,272(sp)
   106a8:	02070c63          	beqz	a4,106e0 <_vfprintf_r+0x29c>
   106ac:	10812603          	lw	a2,264(sp)
   106b0:	0cf10593          	addi	a1,sp,207
   106b4:	00b43023          	sd	a1,0(s0)
   106b8:	0016061b          	addiw	a2,a2,1
   106bc:	00100593          	li	a1,1
   106c0:	001d8d93          	addi	s11,s11,1
   106c4:	00b43423          	sd	a1,8(s0)
   106c8:	10c12423          	sw	a2,264(sp)
   106cc:	0006059b          	sext.w	a1,a2
   106d0:	11b13823          	sd	s11,272(sp)
   106d4:	00700613          	li	a2,7
   106d8:	01040413          	addi	s0,s0,16
   106dc:	2ab64463          	blt	a2,a1,10984 <_vfprintf_r+0x540>
   106e0:	020b8c63          	beqz	s7,10718 <_vfprintf_r+0x2d4>
   106e4:	10812603          	lw	a2,264(sp)
   106e8:	00200593          	li	a1,2
   106ec:	002d8d93          	addi	s11,s11,2
   106f0:	0016061b          	addiw	a2,a2,1
   106f4:	0d010793          	addi	a5,sp,208
   106f8:	00b43423          	sd	a1,8(s0)
   106fc:	00f43023          	sd	a5,0(s0)
   10700:	0006059b          	sext.w	a1,a2
   10704:	10c12423          	sw	a2,264(sp)
   10708:	11b13823          	sd	s11,272(sp)
   1070c:	00700613          	li	a2,7
   10710:	01040413          	addi	s0,s0,16
   10714:	3eb64ae3          	blt	a2,a1,11308 <_vfprintf_r+0xec4>
   10718:	08000613          	li	a2,128
   1071c:	0eca80e3          	beq	s5,a2,10ffc <_vfprintf_r+0xbb8>
   10720:	41a30bbb          	subw	s7,t1,s10
   10724:	1d7040e3          	bgtz	s7,110e4 <_vfprintf_r+0xca0>
   10728:	10097613          	andi	a2,s2,256
   1072c:	70061863          	bnez	a2,10e3c <_vfprintf_r+0x9f8>
   10730:	10812603          	lw	a2,264(sp)
   10734:	01bd0733          	add	a4,s10,s11
   10738:	01643023          	sd	s6,0(s0)
   1073c:	0016069b          	addiw	a3,a2,1
   10740:	01a43423          	sd	s10,8(s0)
   10744:	10e13823          	sd	a4,272(sp)
   10748:	10d12423          	sw	a3,264(sp)
   1074c:	00700793          	li	a5,7
   10750:	32d7ce63          	blt	a5,a3,10a8c <_vfprintf_r+0x648>
   10754:	01040413          	addi	s0,s0,16
   10758:	00497913          	andi	s2,s2,4
   1075c:	00090663          	beqz	s2,10768 <_vfprintf_r+0x324>
   10760:	418a093b          	subw	s2,s4,s8
   10764:	3d2046e3          	bgtz	s2,11330 <_vfprintf_r+0xeec>
   10768:	000a0793          	mv	a5,s4
   1076c:	018a5463          	bge	s4,s8,10774 <_vfprintf_r+0x330>
   10770:	000c0793          	mv	a5,s8
   10774:	01013683          	ld	a3,16(sp)
   10778:	00d787bb          	addw	a5,a5,a3
   1077c:	00f13823          	sd	a5,16(sp)
   10780:	240710e3          	bnez	a4,111c0 <_vfprintf_r+0xd7c>
   10784:	01813783          	ld	a5,24(sp)
   10788:	10012423          	sw	zero,264(sp)
   1078c:	00078863          	beqz	a5,1079c <_vfprintf_r+0x358>
   10790:	01813583          	ld	a1,24(sp)
   10794:	00098513          	mv	a0,s3
   10798:	679020ef          	jal	ra,13610 <_free_r>
   1079c:	18010413          	addi	s0,sp,384
   107a0:	00048b13          	mv	s6,s1
   107a4:	000b4703          	lbu	a4,0(s6)
   107a8:	dc0714e3          	bnez	a4,10570 <_vfprintf_r+0x12c>
   107ac:	11013783          	ld	a5,272(sp)
   107b0:	00078463          	beqz	a5,107b8 <_vfprintf_r+0x374>
   107b4:	2190106f          	j	121cc <_vfprintf_r+0x1d88>
   107b8:	00013783          	ld	a5,0(sp)
   107bc:	0107d783          	lhu	a5,16(a5)
   107c0:	0407f793          	andi	a5,a5,64
   107c4:	00078463          	beqz	a5,107cc <_vfprintf_r+0x388>
   107c8:	7ed0106f          	j	127b4 <_vfprintf_r+0x2370>
   107cc:	26813083          	ld	ra,616(sp)
   107d0:	26013403          	ld	s0,608(sp)
   107d4:	01013503          	ld	a0,16(sp)
   107d8:	25813483          	ld	s1,600(sp)
   107dc:	25013903          	ld	s2,592(sp)
   107e0:	24813983          	ld	s3,584(sp)
   107e4:	24013a03          	ld	s4,576(sp)
   107e8:	23813a83          	ld	s5,568(sp)
   107ec:	23013b03          	ld	s6,560(sp)
   107f0:	22813b83          	ld	s7,552(sp)
   107f4:	22013c03          	ld	s8,544(sp)
   107f8:	21813c83          	ld	s9,536(sp)
   107fc:	21013d03          	ld	s10,528(sp)
   10800:	20813d83          	ld	s11,520(sp)
   10804:	27010113          	addi	sp,sp,624
   10808:	00008067          	ret
   1080c:	01096913          	ori	s2,s2,16
   10810:	0004ce03          	lbu	t3,0(s1)
   10814:	0009091b          	sext.w	s2,s2
   10818:	dd9ff06f          	j	105f0 <_vfprintf_r+0x1ac>
   1081c:	00013583          	ld	a1,0(sp)
   10820:	05013503          	ld	a0,80(sp)
   10824:	334020ef          	jal	ra,12b58 <__swsetup_r>
   10828:	00050463          	beqz	a0,10830 <_vfprintf_r+0x3ec>
   1082c:	7890106f          	j	127b4 <_vfprintf_r+0x2370>
   10830:	00013783          	ld	a5,0(sp)
   10834:	00a00693          	li	a3,10
   10838:	01079703          	lh	a4,16(a5)
   1083c:	01a77713          	andi	a4,a4,26
   10840:	ccd71ae3          	bne	a4,a3,10514 <_vfprintf_r+0xd0>
   10844:	00013783          	ld	a5,0(sp)
   10848:	01279703          	lh	a4,18(a5)
   1084c:	cc0744e3          	bltz	a4,10514 <_vfprintf_r+0xd0>
   10850:	02013683          	ld	a3,32(sp)
   10854:	05013503          	ld	a0,80(sp)
   10858:	00090613          	mv	a2,s2
   1085c:	00078593          	mv	a1,a5
   10860:	22c020ef          	jal	ra,12a8c <__sbprintf>
   10864:	00a13823          	sd	a0,16(sp)
   10868:	f65ff06f          	j	107cc <_vfprintf_r+0x388>
   1086c:	4164893b          	subw	s2,s1,s6
   10870:	d20910e3          	bnez	s2,10590 <_vfprintf_r+0x14c>
   10874:	0004c703          	lbu	a4,0(s1)
   10878:	d55ff06f          	j	105cc <_vfprintf_r+0x188>
   1087c:	00013583          	ld	a1,0(sp)
   10880:	10010613          	addi	a2,sp,256
   10884:	00098513          	mv	a0,s3
   10888:	44d0a0ef          	jal	ra,1b4d4 <__sprint_r>
   1088c:	f20516e3          	bnez	a0,107b8 <_vfprintf_r+0x374>
   10890:	18010413          	addi	s0,sp,384
   10894:	d29ff06f          	j	105bc <_vfprintf_r+0x178>
   10898:	00897713          	andi	a4,s2,8
   1089c:	000a8313          	mv	t1,s5
   108a0:	6a071ce3          	bnez	a4,11758 <_vfprintf_r+0x1314>
   108a4:	02013783          	ld	a5,32(sp)
   108a8:	01513c23          	sd	s5,24(sp)
   108ac:	0007b503          	ld	a0,0(a5)
   108b0:	00878a93          	addi	s5,a5,8
   108b4:	03513023          	sd	s5,32(sp)
   108b8:	004110ef          	jal	ra,218bc <__extenddftf2>
   108bc:	01813303          	ld	t1,24(sp)
   108c0:	00050713          	mv	a4,a0
   108c4:	0f010513          	addi	a0,sp,240
   108c8:	00613c23          	sd	t1,24(sp)
   108cc:	0ee13823          	sd	a4,240(sp)
   108d0:	0eb13c23          	sd	a1,248(sp)
   108d4:	615050ef          	jal	ra,166e8 <_ldcheck>
   108d8:	0ca12c23          	sw	a0,216(sp)
   108dc:	00200713          	li	a4,2
   108e0:	01813303          	ld	t1,24(sp)
   108e4:	00e51463          	bne	a0,a4,108ec <_vfprintf_r+0x4a8>
   108e8:	28c0106f          	j	11b74 <_vfprintf_r+0x1730>
   108ec:	00100713          	li	a4,1
   108f0:	00e51463          	bne	a0,a4,108f8 <_vfprintf_r+0x4b4>
   108f4:	3c40106f          	j	11cb8 <_vfprintf_r+0x1874>
   108f8:	06100713          	li	a4,97
   108fc:	00ec9463          	bne	s9,a4,10904 <_vfprintf_r+0x4c0>
   10900:	4c90106f          	j	125c8 <_vfprintf_r+0x2184>
   10904:	04100713          	li	a4,65
   10908:	00ec9463          	bne	s9,a4,10910 <_vfprintf_r+0x4cc>
   1090c:	1010106f          	j	1220c <_vfprintf_r+0x1dc8>
   10910:	fff00713          	li	a4,-1
   10914:	00e31463          	bne	t1,a4,1091c <_vfprintf_r+0x4d8>
   10918:	7f10106f          	j	12908 <_vfprintf_r+0x24c4>
   1091c:	fdfcf713          	andi	a4,s9,-33
   10920:	04700693          	li	a3,71
   10924:	00d71463          	bne	a4,a3,1092c <_vfprintf_r+0x4e8>
   10928:	7d10106f          	j	128f8 <_vfprintf_r+0x24b4>
   1092c:	10096713          	ori	a4,s2,256
   10930:	0f813c03          	ld	s8,248(sp)
   10934:	0007079b          	sext.w	a5,a4
   10938:	08f13823          	sd	a5,144(sp)
   1093c:	05213023          	sd	s2,64(sp)
   10940:	0f013b83          	ld	s7,240(sp)
   10944:	000c5463          	bgez	s8,1094c <_vfprintf_r+0x508>
   10948:	4190106f          	j	12560 <_vfprintf_r+0x211c>
   1094c:	08013c23          	sd	zero,152(sp)
   10950:	00013c23          	sd	zero,24(sp)
   10954:	fbfc871b          	addiw	a4,s9,-65
   10958:	0007061b          	sext.w	a2,a4
   1095c:	02500693          	li	a3,37
   10960:	00c6f463          	bgeu	a3,a2,10968 <_vfprintf_r+0x524>
   10964:	5e80106f          	j	11f4c <_vfprintf_r+0x1b08>
   10968:	02071693          	slli	a3,a4,0x20
   1096c:	01e6d713          	srli	a4,a3,0x1e
   10970:	000226b7          	lui	a3,0x22
   10974:	eb068693          	addi	a3,a3,-336 # 21eb0 <__clzdi2+0x220>
   10978:	00d70733          	add	a4,a4,a3
   1097c:	00072703          	lw	a4,0(a4)
   10980:	00070067          	jr	a4
   10984:	00013583          	ld	a1,0(sp)
   10988:	10010613          	addi	a2,sp,256
   1098c:	00098513          	mv	a0,s3
   10990:	08613823          	sd	t1,144(sp)
   10994:	3410a0ef          	jal	ra,1b4d4 <__sprint_r>
   10998:	02051ee3          	bnez	a0,111d4 <_vfprintf_r+0xd90>
   1099c:	11013d83          	ld	s11,272(sp)
   109a0:	09013303          	ld	t1,144(sp)
   109a4:	18010413          	addi	s0,sp,384
   109a8:	d39ff06f          	j	106e0 <_vfprintf_r+0x29c>
   109ac:	03813783          	ld	a5,56(sp)
   109b0:	00100693          	li	a3,1
   109b4:	01040c93          	addi	s9,s0,16
   109b8:	3af6dae3          	bge	a3,a5,1156c <_vfprintf_r+0x1128>
   109bc:	10812603          	lw	a2,264(sp)
   109c0:	00100693          	li	a3,1
   109c4:	001d8713          	addi	a4,s11,1
   109c8:	0016061b          	addiw	a2,a2,1
   109cc:	00d43423          	sd	a3,8(s0)
   109d0:	10c12423          	sw	a2,264(sp)
   109d4:	0006069b          	sext.w	a3,a2
   109d8:	01643023          	sd	s6,0(s0)
   109dc:	10e13823          	sd	a4,272(sp)
   109e0:	00700613          	li	a2,7
   109e4:	76d64ae3          	blt	a2,a3,11958 <_vfprintf_r+0x1514>
   109e8:	05813783          	ld	a5,88(sp)
   109ec:	0016841b          	addiw	s0,a3,1
   109f0:	10812423          	sw	s0,264(sp)
   109f4:	00e78d33          	add	s10,a5,a4
   109f8:	06013703          	ld	a4,96(sp)
   109fc:	00fcb423          	sd	a5,8(s9)
   10a00:	11a13823          	sd	s10,272(sp)
   10a04:	00ecb023          	sd	a4,0(s9)
   10a08:	00700713          	li	a4,7
   10a0c:	010c8c93          	addi	s9,s9,16
   10a10:	768746e3          	blt	a4,s0,1197c <_vfprintf_r+0x1538>
   10a14:	0f013503          	ld	a0,240(sp)
   10a18:	0f813583          	ld	a1,248(sp)
   10a1c:	00000613          	li	a2,0
   10a20:	00000693          	li	a3,0
   10a24:	2ed0f0ef          	jal	ra,20510 <__eqtf2>
   10a28:	03813783          	ld	a5,56(sp)
   10a2c:	fff78a9b          	addiw	s5,a5,-1
   10a30:	380508e3          	beqz	a0,115c0 <_vfprintf_r+0x117c>
   10a34:	001b0793          	addi	a5,s6,1
   10a38:	0014041b          	addiw	s0,s0,1
   10a3c:	015d0d33          	add	s10,s10,s5
   10a40:	00fcb023          	sd	a5,0(s9)
   10a44:	015cb423          	sd	s5,8(s9)
   10a48:	11a13823          	sd	s10,272(sp)
   10a4c:	10812423          	sw	s0,264(sp)
   10a50:	00700793          	li	a5,7
   10a54:	3487c4e3          	blt	a5,s0,1159c <_vfprintf_r+0x1158>
   10a58:	010c8c93          	addi	s9,s9,16
   10a5c:	07013683          	ld	a3,112(sp)
   10a60:	0014041b          	addiw	s0,s0,1
   10a64:	0e010793          	addi	a5,sp,224
   10a68:	01a68733          	add	a4,a3,s10
   10a6c:	00fcb023          	sd	a5,0(s9)
   10a70:	00dcb423          	sd	a3,8(s9)
   10a74:	10812423          	sw	s0,264(sp)
   10a78:	0004069b          	sext.w	a3,s0
   10a7c:	10e13823          	sd	a4,272(sp)
   10a80:	00700793          	li	a5,7
   10a84:	010c8413          	addi	s0,s9,16
   10a88:	ccd7d8e3          	bge	a5,a3,10758 <_vfprintf_r+0x314>
   10a8c:	00013583          	ld	a1,0(sp)
   10a90:	10010613          	addi	a2,sp,256
   10a94:	00098513          	mv	a0,s3
   10a98:	23d0a0ef          	jal	ra,1b4d4 <__sprint_r>
   10a9c:	72051c63          	bnez	a0,111d4 <_vfprintf_r+0xd90>
   10aa0:	11013703          	ld	a4,272(sp)
   10aa4:	18010413          	addi	s0,sp,384
   10aa8:	cb1ff06f          	j	10758 <_vfprintf_r+0x314>
   10aac:	05013503          	ld	a0,80(sp)
   10ab0:	189020ef          	jal	ra,13438 <__sinit>
   10ab4:	a09ff06f          	j	104bc <_vfprintf_r+0x78>
   10ab8:	02013703          	ld	a4,32(sp)
   10abc:	0c0107a3          	sb	zero,207(sp)
   10ac0:	00100c13          	li	s8,1
   10ac4:	00072783          	lw	a5,0(a4)
   10ac8:	00870713          	addi	a4,a4,8
   10acc:	02e13023          	sd	a4,32(sp)
   10ad0:	10f10c23          	sb	a5,280(sp)
   10ad4:	00100d13          	li	s10,1
   10ad8:	11810b13          	addi	s6,sp,280
   10adc:	b95ff06f          	j	10670 <_vfprintf_r+0x22c>
   10ae0:	02013783          	ld	a5,32(sp)
   10ae4:	0c0107a3          	sb	zero,207(sp)
   10ae8:	000a8313          	mv	t1,s5
   10aec:	0007bb03          	ld	s6,0(a5)
   10af0:	00878a93          	addi	s5,a5,8
   10af4:	5a0b0ae3          	beqz	s6,118a8 <_vfprintf_r+0x1464>
   10af8:	fff00713          	li	a4,-1
   10afc:	00e31463          	bne	t1,a4,10b04 <_vfprintf_r+0x6c0>
   10b00:	1300106f          	j	11c30 <_vfprintf_r+0x17ec>
   10b04:	00030613          	mv	a2,t1
   10b08:	00000593          	li	a1,0
   10b0c:	000b0513          	mv	a0,s6
   10b10:	02613023          	sd	t1,32(sp)
   10b14:	009060ef          	jal	ra,1731c <memchr>
   10b18:	00a13c23          	sd	a0,24(sp)
   10b1c:	02013303          	ld	t1,32(sp)
   10b20:	00051463          	bnez	a0,10b28 <_vfprintf_r+0x6e4>
   10b24:	3310106f          	j	12654 <_vfprintf_r+0x2210>
   10b28:	01813783          	ld	a5,24(sp)
   10b2c:	41678d3b          	subw	s10,a5,s6
   10b30:	0cf14703          	lbu	a4,207(sp)
   10b34:	fffd4813          	not	a6,s10
   10b38:	43f85813          	srai	a6,a6,0x3f
   10b3c:	03513023          	sd	s5,32(sp)
   10b40:	00013c23          	sd	zero,24(sp)
   10b44:	04013423          	sd	zero,72(sp)
   10b48:	04013023          	sd	zero,64(sp)
   10b4c:	02013823          	sd	zero,48(sp)
   10b50:	01a87c33          	and	s8,a6,s10
   10b54:	00000313          	li	t1,0
   10b58:	b20706e3          	beqz	a4,10684 <_vfprintf_r+0x240>
   10b5c:	001c0c1b          	addiw	s8,s8,1
   10b60:	b25ff06f          	j	10684 <_vfprintf_r+0x240>
   10b64:	02013783          	ld	a5,32(sp)
   10b68:	0007aa03          	lw	s4,0(a5)
   10b6c:	00878793          	addi	a5,a5,8
   10b70:	3a0a52e3          	bgez	s4,11714 <_vfprintf_r+0x12d0>
   10b74:	41400a3b          	negw	s4,s4
   10b78:	02f13023          	sd	a5,32(sp)
   10b7c:	00496913          	ori	s2,s2,4
   10b80:	0004ce03          	lbu	t3,0(s1)
   10b84:	0009091b          	sext.w	s2,s2
   10b88:	a69ff06f          	j	105f0 <_vfprintf_r+0x1ac>
   10b8c:	02b00793          	li	a5,43
   10b90:	0004ce03          	lbu	t3,0(s1)
   10b94:	0cf107a3          	sb	a5,207(sp)
   10b98:	a59ff06f          	j	105f0 <_vfprintf_r+0x1ac>
   10b9c:	08096913          	ori	s2,s2,128
   10ba0:	0004ce03          	lbu	t3,0(s1)
   10ba4:	0009091b          	sext.w	s2,s2
   10ba8:	a49ff06f          	j	105f0 <_vfprintf_r+0x1ac>
   10bac:	0004cc83          	lbu	s9,0(s1)
   10bb0:	02a00693          	li	a3,42
   10bb4:	00148793          	addi	a5,s1,1
   10bb8:	00dc9463          	bne	s9,a3,10bc0 <_vfprintf_r+0x77c>
   10bbc:	6610106f          	j	12a1c <_vfprintf_r+0x25d8>
   10bc0:	fd0c871b          	addiw	a4,s9,-48
   10bc4:	00900613          	li	a2,9
   10bc8:	00078493          	mv	s1,a5
   10bcc:	00000a93          	li	s5,0
   10bd0:	00900693          	li	a3,9
   10bd4:	a2e662e3          	bltu	a2,a4,105f8 <_vfprintf_r+0x1b4>
   10bd8:	0004cc83          	lbu	s9,0(s1)
   10bdc:	002a979b          	slliw	a5,s5,0x2
   10be0:	0157833b          	addw	t1,a5,s5
   10be4:	0013131b          	slliw	t1,t1,0x1
   10be8:	00e30abb          	addw	s5,t1,a4
   10bec:	fd0c871b          	addiw	a4,s9,-48
   10bf0:	00148493          	addi	s1,s1,1
   10bf4:	fee6f2e3          	bgeu	a3,a4,10bd8 <_vfprintf_r+0x794>
   10bf8:	a01ff06f          	j	105f8 <_vfprintf_r+0x1b4>
   10bfc:	00098513          	mv	a0,s3
   10c00:	359050ef          	jal	ra,16758 <_localeconv_r>
   10c04:	00853783          	ld	a5,8(a0)
   10c08:	00078513          	mv	a0,a5
   10c0c:	08f13423          	sd	a5,136(sp)
   10c10:	090080ef          	jal	ra,18ca0 <strlen>
   10c14:	00050793          	mv	a5,a0
   10c18:	00098513          	mv	a0,s3
   10c1c:	00078c13          	mv	s8,a5
   10c20:	08f13023          	sd	a5,128(sp)
   10c24:	335050ef          	jal	ra,16758 <_localeconv_r>
   10c28:	01053703          	ld	a4,16(a0)
   10c2c:	0004ce03          	lbu	t3,0(s1)
   10c30:	06e13c23          	sd	a4,120(sp)
   10c34:	9a0c0ee3          	beqz	s8,105f0 <_vfprintf_r+0x1ac>
   10c38:	9a070ce3          	beqz	a4,105f0 <_vfprintf_r+0x1ac>
   10c3c:	00074783          	lbu	a5,0(a4)
   10c40:	9a0788e3          	beqz	a5,105f0 <_vfprintf_r+0x1ac>
   10c44:	40096913          	ori	s2,s2,1024
   10c48:	0009091b          	sext.w	s2,s2
   10c4c:	9a5ff06f          	j	105f0 <_vfprintf_r+0x1ac>
   10c50:	00196913          	ori	s2,s2,1
   10c54:	0004ce03          	lbu	t3,0(s1)
   10c58:	0009091b          	sext.w	s2,s2
   10c5c:	995ff06f          	j	105f0 <_vfprintf_r+0x1ac>
   10c60:	0cf14783          	lbu	a5,207(sp)
   10c64:	0004ce03          	lbu	t3,0(s1)
   10c68:	980794e3          	bnez	a5,105f0 <_vfprintf_r+0x1ac>
   10c6c:	02000793          	li	a5,32
   10c70:	0cf107a3          	sb	a5,207(sp)
   10c74:	97dff06f          	j	105f0 <_vfprintf_r+0x1ac>
   10c78:	01096d93          	ori	s11,s2,16
   10c7c:	000a8313          	mv	t1,s5
   10c80:	000d8d9b          	sext.w	s11,s11
   10c84:	02013683          	ld	a3,32(sp)
   10c88:	020df793          	andi	a5,s11,32
   10c8c:	00868713          	addi	a4,a3,8
   10c90:	220788e3          	beqz	a5,116c0 <_vfprintf_r+0x127c>
   10c94:	0006bd03          	ld	s10,0(a3)
   10c98:	00100793          	li	a5,1
   10c9c:	02e13023          	sd	a4,32(sp)
   10ca0:	00000713          	li	a4,0
   10ca4:	0ce107a3          	sb	a4,207(sp)
   10ca8:	fff00713          	li	a4,-1
   10cac:	2ae30463          	beq	t1,a4,10f54 <_vfprintf_r+0xb10>
   10cb0:	f7fdf913          	andi	s2,s11,-129
   10cb4:	0009091b          	sext.w	s2,s2
   10cb8:	280d1c63          	bnez	s10,10f50 <_vfprintf_r+0xb0c>
   10cbc:	2e031a63          	bnez	t1,10fb0 <_vfprintf_r+0xb6c>
   10cc0:	220796e3          	bnez	a5,116ec <_vfprintf_r+0x12a8>
   10cc4:	001dfd13          	andi	s10,s11,1
   10cc8:	17c10b13          	addi	s6,sp,380
   10ccc:	240d1ae3          	bnez	s10,11720 <_vfprintf_r+0x12dc>
   10cd0:	0cf14703          	lbu	a4,207(sp)
   10cd4:	000d0813          	mv	a6,s10
   10cd8:	006d5463          	bge	s10,t1,10ce0 <_vfprintf_r+0x89c>
   10cdc:	00030813          	mv	a6,t1
   10ce0:	00013c23          	sd	zero,24(sp)
   10ce4:	04013423          	sd	zero,72(sp)
   10ce8:	04013023          	sd	zero,64(sp)
   10cec:	02013823          	sd	zero,48(sp)
   10cf0:	00080c1b          	sext.w	s8,a6
   10cf4:	e60714e3          	bnez	a4,10b5c <_vfprintf_r+0x718>
   10cf8:	98dff06f          	j	10684 <_vfprintf_r+0x240>
   10cfc:	00896913          	ori	s2,s2,8
   10d00:	0004ce03          	lbu	t3,0(s1)
   10d04:	0009091b          	sext.w	s2,s2
   10d08:	8e9ff06f          	j	105f0 <_vfprintf_r+0x1ac>
   10d0c:	01096913          	ori	s2,s2,16
   10d10:	000a8313          	mv	t1,s5
   10d14:	0009091b          	sext.w	s2,s2
   10d18:	02013683          	ld	a3,32(sp)
   10d1c:	02097793          	andi	a5,s2,32
   10d20:	00868713          	addi	a4,a3,8
   10d24:	12078ce3          	beqz	a5,1165c <_vfprintf_r+0x1218>
   10d28:	0006b783          	ld	a5,0(a3)
   10d2c:	00078d13          	mv	s10,a5
   10d30:	1407cae3          	bltz	a5,11684 <_vfprintf_r+0x1240>
   10d34:	fff00793          	li	a5,-1
   10d38:	5af30463          	beq	t1,a5,112e0 <_vfprintf_r+0xe9c>
   10d3c:	f7f97d93          	andi	s11,s2,-129
   10d40:	02e13023          	sd	a4,32(sp)
   10d44:	000d8d9b          	sext.w	s11,s11
   10d48:	5a0d1063          	bnez	s10,112e8 <_vfprintf_r+0xea4>
   10d4c:	5a031263          	bnez	t1,112f0 <_vfprintf_r+0xeac>
   10d50:	000d8913          	mv	s2,s11
   10d54:	17c10b13          	addi	s6,sp,380
   10d58:	f79ff06f          	j	10cd0 <_vfprintf_r+0x88c>
   10d5c:	01096913          	ori	s2,s2,16
   10d60:	000a8313          	mv	t1,s5
   10d64:	0009091b          	sext.w	s2,s2
   10d68:	02013683          	ld	a3,32(sp)
   10d6c:	02097793          	andi	a5,s2,32
   10d70:	00868713          	addi	a4,a3,8
   10d74:	120784e3          	beqz	a5,1169c <_vfprintf_r+0x1258>
   10d78:	0006bd03          	ld	s10,0(a3)
   10d7c:	bff97d93          	andi	s11,s2,-1025
   10d80:	000d8d9b          	sext.w	s11,s11
   10d84:	02e13023          	sd	a4,32(sp)
   10d88:	00000793          	li	a5,0
   10d8c:	f15ff06f          	j	10ca0 <_vfprintf_r+0x85c>
   10d90:	02096913          	ori	s2,s2,32
   10d94:	0004ce03          	lbu	t3,0(s1)
   10d98:	0009091b          	sext.w	s2,s2
   10d9c:	855ff06f          	j	105f0 <_vfprintf_r+0x1ac>
   10da0:	02013703          	ld	a4,32(sp)
   10da4:	02097793          	andi	a5,s2,32
   10da8:	00073703          	ld	a4,0(a4)
   10dac:	180782e3          	beqz	a5,11730 <_vfprintf_r+0x12ec>
   10db0:	01013783          	ld	a5,16(sp)
   10db4:	00f73023          	sd	a5,0(a4)
   10db8:	02013783          	ld	a5,32(sp)
   10dbc:	00048b13          	mv	s6,s1
   10dc0:	00878793          	addi	a5,a5,8
   10dc4:	02f13023          	sd	a5,32(sp)
   10dc8:	9ddff06f          	j	107a4 <_vfprintf_r+0x360>
   10dcc:	0004ce03          	lbu	t3,0(s1)
   10dd0:	06c00793          	li	a5,108
   10dd4:	28fe02e3          	beq	t3,a5,11858 <_vfprintf_r+0x1414>
   10dd8:	01096913          	ori	s2,s2,16
   10ddc:	0009091b          	sext.w	s2,s2
   10de0:	811ff06f          	j	105f0 <_vfprintf_r+0x1ac>
   10de4:	0004ce03          	lbu	t3,0(s1)
   10de8:	06800793          	li	a5,104
   10dec:	24fe0ce3          	beq	t3,a5,11844 <_vfprintf_r+0x1400>
   10df0:	04096913          	ori	s2,s2,64
   10df4:	0009091b          	sext.w	s2,s2
   10df8:	ff8ff06f          	j	105f0 <_vfprintf_r+0x1ac>
   10dfc:	02013703          	ld	a4,32(sp)
   10e00:	ffff87b7          	lui	a5,0xffff8
   10e04:	8307c793          	xori	a5,a5,-2000
   10e08:	0cf11823          	sh	a5,208(sp)
   10e0c:	00870793          	addi	a5,a4,8
   10e10:	02f13023          	sd	a5,32(sp)
   10e14:	000227b7          	lui	a5,0x22
   10e18:	d2078793          	addi	a5,a5,-736 # 21d20 <__clzdi2+0x90>
   10e1c:	00296d93          	ori	s11,s2,2
   10e20:	06f13423          	sd	a5,104(sp)
   10e24:	00073d03          	ld	s10,0(a4)
   10e28:	000a8313          	mv	t1,s5
   10e2c:	000d8d9b          	sext.w	s11,s11
   10e30:	00200793          	li	a5,2
   10e34:	07800c93          	li	s9,120
   10e38:	e69ff06f          	j	10ca0 <_vfprintf_r+0x85c>
   10e3c:	06500693          	li	a3,101
   10e40:	b796d6e3          	bge	a3,s9,109ac <_vfprintf_r+0x568>
   10e44:	0f013503          	ld	a0,240(sp)
   10e48:	0f813583          	ld	a1,248(sp)
   10e4c:	00000613          	li	a2,0
   10e50:	00000693          	li	a3,0
   10e54:	6bc0f0ef          	jal	ra,20510 <__eqtf2>
   10e58:	58051463          	bnez	a0,113e0 <_vfprintf_r+0xf9c>
   10e5c:	10812783          	lw	a5,264(sp)
   10e60:	000226b7          	lui	a3,0x22
   10e64:	d4068693          	addi	a3,a3,-704 # 21d40 <__clzdi2+0xb0>
   10e68:	0017879b          	addiw	a5,a5,1
   10e6c:	00d43023          	sd	a3,0(s0)
   10e70:	001d8d93          	addi	s11,s11,1
   10e74:	00100693          	li	a3,1
   10e78:	00d43423          	sd	a3,8(s0)
   10e7c:	10f12423          	sw	a5,264(sp)
   10e80:	0007869b          	sext.w	a3,a5
   10e84:	11b13823          	sd	s11,272(sp)
   10e88:	00700793          	li	a5,7
   10e8c:	01040413          	addi	s0,s0,16
   10e90:	48d7cee3          	blt	a5,a3,11b2c <_vfprintf_r+0x16e8>
   10e94:	0d812783          	lw	a5,216(sp)
   10e98:	03813703          	ld	a4,56(sp)
   10e9c:	04e7dee3          	bge	a5,a4,116f8 <_vfprintf_r+0x12b4>
   10ea0:	05813683          	ld	a3,88(sp)
   10ea4:	10812783          	lw	a5,264(sp)
   10ea8:	06013603          	ld	a2,96(sp)
   10eac:	01b68733          	add	a4,a3,s11
   10eb0:	0017879b          	addiw	a5,a5,1
   10eb4:	00d43423          	sd	a3,8(s0)
   10eb8:	00c43023          	sd	a2,0(s0)
   10ebc:	0007869b          	sext.w	a3,a5
   10ec0:	10f12423          	sw	a5,264(sp)
   10ec4:	10e13823          	sd	a4,272(sp)
   10ec8:	00700793          	li	a5,7
   10ecc:	01040413          	addi	s0,s0,16
   10ed0:	1ad7cce3          	blt	a5,a3,11888 <_vfprintf_r+0x1444>
   10ed4:	03813783          	ld	a5,56(sp)
   10ed8:	fff78c9b          	addiw	s9,a5,-1
   10edc:	87905ee3          	blez	s9,10758 <_vfprintf_r+0x314>
   10ee0:	00022f37          	lui	t5,0x22
   10ee4:	01000693          	li	a3,16
   10ee8:	10812783          	lw	a5,264(sp)
   10eec:	f48f0d93          	addi	s11,t5,-184 # 21f48 <zeroes.0>
   10ef0:	4596dee3          	bge	a3,s9,11b4c <_vfprintf_r+0x1708>
   10ef4:	00013b03          	ld	s6,0(sp)
   10ef8:	01000d13          	li	s10,16
   10efc:	00700a93          	li	s5,7
   10f00:	00c0006f          	j	10f0c <_vfprintf_r+0xac8>
   10f04:	ff0c8c9b          	addiw	s9,s9,-16
   10f08:	459d52e3          	bge	s10,s9,11b4c <_vfprintf_r+0x1708>
   10f0c:	0017879b          	addiw	a5,a5,1
   10f10:	01070713          	addi	a4,a4,16
   10f14:	01b43023          	sd	s11,0(s0)
   10f18:	01a43423          	sd	s10,8(s0)
   10f1c:	10e13823          	sd	a4,272(sp)
   10f20:	10f12423          	sw	a5,264(sp)
   10f24:	01040413          	addi	s0,s0,16
   10f28:	fcfadee3          	bge	s5,a5,10f04 <_vfprintf_r+0xac0>
   10f2c:	10010613          	addi	a2,sp,256
   10f30:	000b0593          	mv	a1,s6
   10f34:	00098513          	mv	a0,s3
   10f38:	59c0a0ef          	jal	ra,1b4d4 <__sprint_r>
   10f3c:	28051c63          	bnez	a0,111d4 <_vfprintf_r+0xd90>
   10f40:	11013703          	ld	a4,272(sp)
   10f44:	10812783          	lw	a5,264(sp)
   10f48:	18010413          	addi	s0,sp,384
   10f4c:	fb9ff06f          	j	10f04 <_vfprintf_r+0xac0>
   10f50:	00090d93          	mv	s11,s2
   10f54:	00100713          	li	a4,1
   10f58:	38e78863          	beq	a5,a4,112e8 <_vfprintf_r+0xea4>
   10f5c:	00200713          	li	a4,2
   10f60:	06e78463          	beq	a5,a4,10fc8 <_vfprintf_r+0xb84>
   10f64:	17c10a93          	addi	s5,sp,380
   10f68:	000a8b13          	mv	s6,s5
   10f6c:	007d7713          	andi	a4,s10,7
   10f70:	03070713          	addi	a4,a4,48
   10f74:	feeb0fa3          	sb	a4,-1(s6)
   10f78:	003d5d13          	srli	s10,s10,0x3
   10f7c:	000b0613          	mv	a2,s6
   10f80:	fffb0b13          	addi	s6,s6,-1
   10f84:	fe0d14e3          	bnez	s10,10f6c <_vfprintf_r+0xb28>
   10f88:	001df593          	andi	a1,s11,1
   10f8c:	06058263          	beqz	a1,10ff0 <_vfprintf_r+0xbac>
   10f90:	03000593          	li	a1,48
   10f94:	04b70e63          	beq	a4,a1,10ff0 <_vfprintf_r+0xbac>
   10f98:	ffe60613          	addi	a2,a2,-2
   10f9c:	febb0fa3          	sb	a1,-1(s6)
   10fa0:	40ca8d3b          	subw	s10,s5,a2
   10fa4:	000d8913          	mv	s2,s11
   10fa8:	00060b13          	mv	s6,a2
   10fac:	d25ff06f          	j	10cd0 <_vfprintf_r+0x88c>
   10fb0:	00100713          	li	a4,1
   10fb4:	00e79463          	bne	a5,a4,10fbc <_vfprintf_r+0xb78>
   10fb8:	7040106f          	j	126bc <_vfprintf_r+0x2278>
   10fbc:	00200713          	li	a4,2
   10fc0:	00090d93          	mv	s11,s2
   10fc4:	fae790e3          	bne	a5,a4,10f64 <_vfprintf_r+0xb20>
   10fc8:	06813703          	ld	a4,104(sp)
   10fcc:	17c10a93          	addi	s5,sp,380
   10fd0:	000a8b13          	mv	s6,s5
   10fd4:	00fd7793          	andi	a5,s10,15
   10fd8:	00f707b3          	add	a5,a4,a5
   10fdc:	0007c783          	lbu	a5,0(a5)
   10fe0:	004d5d13          	srli	s10,s10,0x4
   10fe4:	fffb0b13          	addi	s6,s6,-1
   10fe8:	00fb0023          	sb	a5,0(s6)
   10fec:	fe0d14e3          	bnez	s10,10fd4 <_vfprintf_r+0xb90>
   10ff0:	416a8d3b          	subw	s10,s5,s6
   10ff4:	000d8913          	mv	s2,s11
   10ff8:	cd9ff06f          	j	10cd0 <_vfprintf_r+0x88c>
   10ffc:	418a0abb          	subw	s5,s4,s8
   11000:	f3505063          	blez	s5,10720 <_vfprintf_r+0x2dc>
   11004:	00022f37          	lui	t5,0x22
   11008:	01000593          	li	a1,16
   1100c:	000d8713          	mv	a4,s11
   11010:	10812603          	lw	a2,264(sp)
   11014:	f48f0d93          	addi	s11,t5,-184 # 21f48 <zeroes.0>
   11018:	0955de63          	bge	a1,s5,110b4 <_vfprintf_r+0xc70>
   1101c:	08913823          	sd	s1,144(sp)
   11020:	01000f93          	li	t6,16
   11024:	000a8493          	mv	s1,s5
   11028:	00700b93          	li	s7,7
   1102c:	000a0a93          	mv	s5,s4
   11030:	00090a13          	mv	s4,s2
   11034:	000d8913          	mv	s2,s11
   11038:	000b0d93          	mv	s11,s6
   1103c:	00030b13          	mv	s6,t1
   11040:	00c0006f          	j	1104c <_vfprintf_r+0xc08>
   11044:	ff04849b          	addiw	s1,s1,-16
   11048:	049fd863          	bge	t6,s1,11098 <_vfprintf_r+0xc54>
   1104c:	0016061b          	addiw	a2,a2,1
   11050:	01070713          	addi	a4,a4,16
   11054:	01243023          	sd	s2,0(s0)
   11058:	01f43423          	sd	t6,8(s0)
   1105c:	10e13823          	sd	a4,272(sp)
   11060:	10c12423          	sw	a2,264(sp)
   11064:	01040413          	addi	s0,s0,16
   11068:	fccbdee3          	bge	s7,a2,11044 <_vfprintf_r+0xc00>
   1106c:	00013583          	ld	a1,0(sp)
   11070:	10010613          	addi	a2,sp,256
   11074:	00098513          	mv	a0,s3
   11078:	45c0a0ef          	jal	ra,1b4d4 <__sprint_r>
   1107c:	14051c63          	bnez	a0,111d4 <_vfprintf_r+0xd90>
   11080:	01000f93          	li	t6,16
   11084:	ff04849b          	addiw	s1,s1,-16
   11088:	11013703          	ld	a4,272(sp)
   1108c:	10812603          	lw	a2,264(sp)
   11090:	18010413          	addi	s0,sp,384
   11094:	fa9fcce3          	blt	t6,s1,1104c <_vfprintf_r+0xc08>
   11098:	000b0313          	mv	t1,s6
   1109c:	000d8b13          	mv	s6,s11
   110a0:	00090d93          	mv	s11,s2
   110a4:	000a0913          	mv	s2,s4
   110a8:	000a8a13          	mv	s4,s5
   110ac:	00048a93          	mv	s5,s1
   110b0:	09013483          	ld	s1,144(sp)
   110b4:	0016059b          	addiw	a1,a2,1
   110b8:	00ea8733          	add	a4,s5,a4
   110bc:	01b43023          	sd	s11,0(s0)
   110c0:	01543423          	sd	s5,8(s0)
   110c4:	10e13823          	sd	a4,272(sp)
   110c8:	10b12423          	sw	a1,264(sp)
   110cc:	00700613          	li	a2,7
   110d0:	6eb64463          	blt	a2,a1,117b8 <_vfprintf_r+0x1374>
   110d4:	41a30bbb          	subw	s7,t1,s10
   110d8:	01040413          	addi	s0,s0,16
   110dc:	00070d93          	mv	s11,a4
   110e0:	e5705463          	blez	s7,10728 <_vfprintf_r+0x2e4>
   110e4:	00022f37          	lui	t5,0x22
   110e8:	01000593          	li	a1,16
   110ec:	000d8713          	mv	a4,s11
   110f0:	10812603          	lw	a2,264(sp)
   110f4:	f48f0d93          	addi	s11,t5,-184 # 21f48 <zeroes.0>
   110f8:	0975de63          	bge	a1,s7,11194 <_vfprintf_r+0xd50>
   110fc:	000b0793          	mv	a5,s6
   11100:	00813d83          	ld	s11,8(sp)
   11104:	000a0b13          	mv	s6,s4
   11108:	01000893          	li	a7,16
   1110c:	00090a13          	mv	s4,s2
   11110:	00700a93          	li	s5,7
   11114:	00048913          	mv	s2,s1
   11118:	000b8493          	mv	s1,s7
   1111c:	00078b93          	mv	s7,a5
   11120:	00c0006f          	j	1112c <_vfprintf_r+0xce8>
   11124:	ff04849b          	addiw	s1,s1,-16
   11128:	0498da63          	bge	a7,s1,1117c <_vfprintf_r+0xd38>
   1112c:	00813683          	ld	a3,8(sp)
   11130:	0016061b          	addiw	a2,a2,1
   11134:	01070713          	addi	a4,a4,16
   11138:	00d43023          	sd	a3,0(s0)
   1113c:	01143423          	sd	a7,8(s0)
   11140:	10e13823          	sd	a4,272(sp)
   11144:	10c12423          	sw	a2,264(sp)
   11148:	01040413          	addi	s0,s0,16
   1114c:	fccadce3          	bge	s5,a2,11124 <_vfprintf_r+0xce0>
   11150:	00013583          	ld	a1,0(sp)
   11154:	10010613          	addi	a2,sp,256
   11158:	00098513          	mv	a0,s3
   1115c:	3780a0ef          	jal	ra,1b4d4 <__sprint_r>
   11160:	06051a63          	bnez	a0,111d4 <_vfprintf_r+0xd90>
   11164:	01000893          	li	a7,16
   11168:	ff04849b          	addiw	s1,s1,-16
   1116c:	11013703          	ld	a4,272(sp)
   11170:	10812603          	lw	a2,264(sp)
   11174:	18010413          	addi	s0,sp,384
   11178:	fa98cae3          	blt	a7,s1,1112c <_vfprintf_r+0xce8>
   1117c:	000b8793          	mv	a5,s7
   11180:	00048b93          	mv	s7,s1
   11184:	00090493          	mv	s1,s2
   11188:	000a0913          	mv	s2,s4
   1118c:	000b0a13          	mv	s4,s6
   11190:	00078b13          	mv	s6,a5
   11194:	0016059b          	addiw	a1,a2,1
   11198:	00eb8733          	add	a4,s7,a4
   1119c:	01b43023          	sd	s11,0(s0)
   111a0:	01743423          	sd	s7,8(s0)
   111a4:	10e13823          	sd	a4,272(sp)
   111a8:	10b12423          	sw	a1,264(sp)
   111ac:	00700613          	li	a2,7
   111b0:	48b64663          	blt	a2,a1,1163c <_vfprintf_r+0x11f8>
   111b4:	01040413          	addi	s0,s0,16
   111b8:	00070d93          	mv	s11,a4
   111bc:	d6cff06f          	j	10728 <_vfprintf_r+0x2e4>
   111c0:	00013583          	ld	a1,0(sp)
   111c4:	10010613          	addi	a2,sp,256
   111c8:	00098513          	mv	a0,s3
   111cc:	3080a0ef          	jal	ra,1b4d4 <__sprint_r>
   111d0:	da050a63          	beqz	a0,10784 <_vfprintf_r+0x340>
   111d4:	01813583          	ld	a1,24(sp)
   111d8:	de058063          	beqz	a1,107b8 <_vfprintf_r+0x374>
   111dc:	05013503          	ld	a0,80(sp)
   111e0:	430020ef          	jal	ra,13610 <_free_r>
   111e4:	dd4ff06f          	j	107b8 <_vfprintf_r+0x374>
   111e8:	000228b7          	lui	a7,0x22
   111ec:	01000513          	li	a0,16
   111f0:	11013583          	ld	a1,272(sp)
   111f4:	10812603          	lw	a2,264(sp)
   111f8:	f5888d93          	addi	s11,a7,-168 # 21f58 <blanks.1>
   111fc:	08e55c63          	bge	a0,a4,11294 <_vfprintf_r+0xe50>
   11200:	08913823          	sd	s1,144(sp)
   11204:	00040793          	mv	a5,s0
   11208:	000d8493          	mv	s1,s11
   1120c:	01000f13          	li	t5,16
   11210:	000b0d93          	mv	s11,s6
   11214:	00700393          	li	t2,7
   11218:	00070413          	mv	s0,a4
   1121c:	00030b13          	mv	s6,t1
   11220:	00c0006f          	j	1122c <_vfprintf_r+0xde8>
   11224:	ff04041b          	addiw	s0,s0,-16
   11228:	048f5a63          	bge	t5,s0,1127c <_vfprintf_r+0xe38>
   1122c:	0016061b          	addiw	a2,a2,1
   11230:	01058593          	addi	a1,a1,16
   11234:	0097b023          	sd	s1,0(a5)
   11238:	01e7b423          	sd	t5,8(a5)
   1123c:	10b13823          	sd	a1,272(sp)
   11240:	10c12423          	sw	a2,264(sp)
   11244:	01078793          	addi	a5,a5,16
   11248:	fcc3dee3          	bge	t2,a2,11224 <_vfprintf_r+0xde0>
   1124c:	00013583          	ld	a1,0(sp)
   11250:	10010613          	addi	a2,sp,256
   11254:	00098513          	mv	a0,s3
   11258:	27c0a0ef          	jal	ra,1b4d4 <__sprint_r>
   1125c:	f6051ce3          	bnez	a0,111d4 <_vfprintf_r+0xd90>
   11260:	01000f13          	li	t5,16
   11264:	ff04041b          	addiw	s0,s0,-16
   11268:	11013583          	ld	a1,272(sp)
   1126c:	10812603          	lw	a2,264(sp)
   11270:	18010793          	addi	a5,sp,384
   11274:	00700393          	li	t2,7
   11278:	fa8f4ae3          	blt	t5,s0,1122c <_vfprintf_r+0xde8>
   1127c:	000b0313          	mv	t1,s6
   11280:	000d8b13          	mv	s6,s11
   11284:	00048d93          	mv	s11,s1
   11288:	09013483          	ld	s1,144(sp)
   1128c:	00040713          	mv	a4,s0
   11290:	00078413          	mv	s0,a5
   11294:	00b705b3          	add	a1,a4,a1
   11298:	0016061b          	addiw	a2,a2,1
   1129c:	00e43423          	sd	a4,8(s0)
   112a0:	01b43023          	sd	s11,0(s0)
   112a4:	10b13823          	sd	a1,272(sp)
   112a8:	10c12423          	sw	a2,264(sp)
   112ac:	0006059b          	sext.w	a1,a2
   112b0:	00700713          	li	a4,7
   112b4:	01040413          	addi	s0,s0,16
   112b8:	beb75463          	bge	a4,a1,106a0 <_vfprintf_r+0x25c>
   112bc:	00013583          	ld	a1,0(sp)
   112c0:	10010613          	addi	a2,sp,256
   112c4:	00098513          	mv	a0,s3
   112c8:	08613823          	sd	t1,144(sp)
   112cc:	2080a0ef          	jal	ra,1b4d4 <__sprint_r>
   112d0:	f00512e3          	bnez	a0,111d4 <_vfprintf_r+0xd90>
   112d4:	09013303          	ld	t1,144(sp)
   112d8:	18010413          	addi	s0,sp,384
   112dc:	bc4ff06f          	j	106a0 <_vfprintf_r+0x25c>
   112e0:	00090d93          	mv	s11,s2
   112e4:	02e13023          	sd	a4,32(sp)
   112e8:	00900793          	li	a5,9
   112ec:	6ba7ea63          	bltu	a5,s10,119a0 <_vfprintf_r+0x155c>
   112f0:	030d0d1b          	addiw	s10,s10,48
   112f4:	17a10da3          	sb	s10,379(sp)
   112f8:	000d8913          	mv	s2,s11
   112fc:	00100d13          	li	s10,1
   11300:	17b10b13          	addi	s6,sp,379
   11304:	9cdff06f          	j	10cd0 <_vfprintf_r+0x88c>
   11308:	00013583          	ld	a1,0(sp)
   1130c:	10010613          	addi	a2,sp,256
   11310:	00098513          	mv	a0,s3
   11314:	08613823          	sd	t1,144(sp)
   11318:	1bc0a0ef          	jal	ra,1b4d4 <__sprint_r>
   1131c:	ea051ce3          	bnez	a0,111d4 <_vfprintf_r+0xd90>
   11320:	11013d83          	ld	s11,272(sp)
   11324:	09013303          	ld	t1,144(sp)
   11328:	18010413          	addi	s0,sp,384
   1132c:	becff06f          	j	10718 <_vfprintf_r+0x2d4>
   11330:	000228b7          	lui	a7,0x22
   11334:	01000693          	li	a3,16
   11338:	10812783          	lw	a5,264(sp)
   1133c:	f5888d93          	addi	s11,a7,-168 # 21f58 <blanks.1>
   11340:	0726d263          	bge	a3,s2,113a4 <_vfprintf_r+0xf60>
   11344:	00013a83          	ld	s5,0(sp)
   11348:	01000c93          	li	s9,16
   1134c:	00700d13          	li	s10,7
   11350:	00c0006f          	j	1135c <_vfprintf_r+0xf18>
   11354:	ff09091b          	addiw	s2,s2,-16
   11358:	052cd663          	bge	s9,s2,113a4 <_vfprintf_r+0xf60>
   1135c:	0017879b          	addiw	a5,a5,1
   11360:	01070713          	addi	a4,a4,16
   11364:	01b43023          	sd	s11,0(s0)
   11368:	01943423          	sd	s9,8(s0)
   1136c:	10e13823          	sd	a4,272(sp)
   11370:	10f12423          	sw	a5,264(sp)
   11374:	01040413          	addi	s0,s0,16
   11378:	fcfd5ee3          	bge	s10,a5,11354 <_vfprintf_r+0xf10>
   1137c:	10010613          	addi	a2,sp,256
   11380:	000a8593          	mv	a1,s5
   11384:	00098513          	mv	a0,s3
   11388:	14c0a0ef          	jal	ra,1b4d4 <__sprint_r>
   1138c:	e40514e3          	bnez	a0,111d4 <_vfprintf_r+0xd90>
   11390:	ff09091b          	addiw	s2,s2,-16
   11394:	11013703          	ld	a4,272(sp)
   11398:	10812783          	lw	a5,264(sp)
   1139c:	18010413          	addi	s0,sp,384
   113a0:	fb2ccee3          	blt	s9,s2,1135c <_vfprintf_r+0xf18>
   113a4:	0017869b          	addiw	a3,a5,1
   113a8:	01270733          	add	a4,a4,s2
   113ac:	01b43023          	sd	s11,0(s0)
   113b0:	01243423          	sd	s2,8(s0)
   113b4:	10e13823          	sd	a4,272(sp)
   113b8:	10d12423          	sw	a3,264(sp)
   113bc:	00700793          	li	a5,7
   113c0:	bad7d463          	bge	a5,a3,10768 <_vfprintf_r+0x324>
   113c4:	00013583          	ld	a1,0(sp)
   113c8:	10010613          	addi	a2,sp,256
   113cc:	00098513          	mv	a0,s3
   113d0:	1040a0ef          	jal	ra,1b4d4 <__sprint_r>
   113d4:	e00510e3          	bnez	a0,111d4 <_vfprintf_r+0xd90>
   113d8:	11013703          	ld	a4,272(sp)
   113dc:	b8cff06f          	j	10768 <_vfprintf_r+0x324>
   113e0:	0d812603          	lw	a2,216(sp)
   113e4:	6ac05463          	blez	a2,11a8c <_vfprintf_r+0x1648>
   113e8:	03813783          	ld	a5,56(sp)
   113ec:	03013703          	ld	a4,48(sp)
   113f0:	00fb0ab3          	add	s5,s6,a5
   113f4:	00070693          	mv	a3,a4
   113f8:	3ae7c863          	blt	a5,a4,117a8 <_vfprintf_r+0x1364>
   113fc:	00068c9b          	sext.w	s9,a3
   11400:	03905663          	blez	s9,1142c <_vfprintf_r+0xfe8>
   11404:	10812603          	lw	a2,264(sp)
   11408:	019d8db3          	add	s11,s11,s9
   1140c:	01643023          	sd	s6,0(s0)
   11410:	0016059b          	addiw	a1,a2,1
   11414:	01943423          	sd	s9,8(s0)
   11418:	11b13823          	sd	s11,272(sp)
   1141c:	10b12423          	sw	a1,264(sp)
   11420:	00700613          	li	a2,7
   11424:	01040413          	addi	s0,s0,16
   11428:	50b646e3          	blt	a2,a1,12134 <_vfprintf_r+0x1cf0>
   1142c:	fffcc613          	not	a2,s9
   11430:	03013783          	ld	a5,48(sp)
   11434:	43f65613          	srai	a2,a2,0x3f
   11438:	00ccf6b3          	and	a3,s9,a2
   1143c:	40d78cbb          	subw	s9,a5,a3
   11440:	49904663          	bgtz	s9,118cc <_vfprintf_r+0x1488>
   11444:	03013783          	ld	a5,48(sp)
   11448:	40097693          	andi	a3,s2,1024
   1144c:	00fb0b33          	add	s6,s6,a5
   11450:	0a069ae3          	bnez	a3,11d04 <_vfprintf_r+0x18c0>
   11454:	0d812683          	lw	a3,216(sp)
   11458:	03813783          	ld	a5,56(sp)
   1145c:	00f6c663          	blt	a3,a5,11468 <_vfprintf_r+0x1024>
   11460:	00197613          	andi	a2,s2,1
   11464:	4e060ce3          	beqz	a2,1215c <_vfprintf_r+0x1d18>
   11468:	10812603          	lw	a2,264(sp)
   1146c:	05813783          	ld	a5,88(sp)
   11470:	06013583          	ld	a1,96(sp)
   11474:	01040413          	addi	s0,s0,16
   11478:	01b78733          	add	a4,a5,s11
   1147c:	feb43823          	sd	a1,-16(s0)
   11480:	0016059b          	addiw	a1,a2,1
   11484:	fef43c23          	sd	a5,-8(s0)
   11488:	10e13823          	sd	a4,272(sp)
   1148c:	10b12423          	sw	a1,264(sp)
   11490:	00700613          	li	a2,7
   11494:	00b65463          	bge	a2,a1,1149c <_vfprintf_r+0x1058>
   11498:	1380106f          	j	125d0 <_vfprintf_r+0x218c>
   1149c:	03813783          	ld	a5,56(sp)
   114a0:	416a8cb3          	sub	s9,s5,s6
   114a4:	000c859b          	sext.w	a1,s9
   114a8:	40d7863b          	subw	a2,a5,a3
   114ac:	00b65463          	bge	a2,a1,114b4 <_vfprintf_r+0x1070>
   114b0:	00060c93          	mv	s9,a2
   114b4:	000c8c9b          	sext.w	s9,s9
   114b8:	03905863          	blez	s9,114e8 <_vfprintf_r+0x10a4>
   114bc:	10812683          	lw	a3,264(sp)
   114c0:	01970733          	add	a4,a4,s9
   114c4:	01643023          	sd	s6,0(s0)
   114c8:	0016869b          	addiw	a3,a3,1
   114cc:	01943423          	sd	s9,8(s0)
   114d0:	10e13823          	sd	a4,272(sp)
   114d4:	10d12423          	sw	a3,264(sp)
   114d8:	00700793          	li	a5,7
   114dc:	01040413          	addi	s0,s0,16
   114e0:	00d7d463          	bge	a5,a3,114e8 <_vfprintf_r+0x10a4>
   114e4:	19c0106f          	j	12680 <_vfprintf_r+0x223c>
   114e8:	fffcc793          	not	a5,s9
   114ec:	43f7d793          	srai	a5,a5,0x3f
   114f0:	00fcfcb3          	and	s9,s9,a5
   114f4:	41960cbb          	subw	s9,a2,s9
   114f8:	a7905063          	blez	s9,10758 <_vfprintf_r+0x314>
   114fc:	00022f37          	lui	t5,0x22
   11500:	01000693          	li	a3,16
   11504:	10812783          	lw	a5,264(sp)
   11508:	f48f0d93          	addi	s11,t5,-184 # 21f48 <zeroes.0>
   1150c:	6596d063          	bge	a3,s9,11b4c <_vfprintf_r+0x1708>
   11510:	00013b03          	ld	s6,0(sp)
   11514:	01000d13          	li	s10,16
   11518:	00700a93          	li	s5,7
   1151c:	00c0006f          	j	11528 <_vfprintf_r+0x10e4>
   11520:	ff0c8c9b          	addiw	s9,s9,-16
   11524:	639d5463          	bge	s10,s9,11b4c <_vfprintf_r+0x1708>
   11528:	0017879b          	addiw	a5,a5,1
   1152c:	01070713          	addi	a4,a4,16
   11530:	01b43023          	sd	s11,0(s0)
   11534:	01a43423          	sd	s10,8(s0)
   11538:	10e13823          	sd	a4,272(sp)
   1153c:	10f12423          	sw	a5,264(sp)
   11540:	01040413          	addi	s0,s0,16
   11544:	fcfadee3          	bge	s5,a5,11520 <_vfprintf_r+0x10dc>
   11548:	10010613          	addi	a2,sp,256
   1154c:	000b0593          	mv	a1,s6
   11550:	00098513          	mv	a0,s3
   11554:	781090ef          	jal	ra,1b4d4 <__sprint_r>
   11558:	c6051ee3          	bnez	a0,111d4 <_vfprintf_r+0xd90>
   1155c:	11013703          	ld	a4,272(sp)
   11560:	10812783          	lw	a5,264(sp)
   11564:	18010413          	addi	s0,sp,384
   11568:	fb9ff06f          	j	11520 <_vfprintf_r+0x10dc>
   1156c:	00197613          	andi	a2,s2,1
   11570:	c4061663          	bnez	a2,109bc <_vfprintf_r+0x578>
   11574:	10812603          	lw	a2,264(sp)
   11578:	001d8d13          	addi	s10,s11,1
   1157c:	01643023          	sd	s6,0(s0)
   11580:	0016079b          	addiw	a5,a2,1
   11584:	00d43423          	sd	a3,8(s0)
   11588:	10f12423          	sw	a5,264(sp)
   1158c:	0007841b          	sext.w	s0,a5
   11590:	11a13823          	sd	s10,272(sp)
   11594:	00700793          	li	a5,7
   11598:	cc87d263          	bge	a5,s0,10a5c <_vfprintf_r+0x618>
   1159c:	00013583          	ld	a1,0(sp)
   115a0:	10010613          	addi	a2,sp,256
   115a4:	00098513          	mv	a0,s3
   115a8:	72d090ef          	jal	ra,1b4d4 <__sprint_r>
   115ac:	c20514e3          	bnez	a0,111d4 <_vfprintf_r+0xd90>
   115b0:	11013d03          	ld	s10,272(sp)
   115b4:	10812403          	lw	s0,264(sp)
   115b8:	18010c93          	addi	s9,sp,384
   115bc:	ca0ff06f          	j	10a5c <_vfprintf_r+0x618>
   115c0:	03813703          	ld	a4,56(sp)
   115c4:	00100793          	li	a5,1
   115c8:	c8e7da63          	bge	a5,a4,10a5c <_vfprintf_r+0x618>
   115cc:	00022f37          	lui	t5,0x22
   115d0:	01100793          	li	a5,17
   115d4:	f48f0d93          	addi	s11,t5,-184 # 21f48 <zeroes.0>
   115d8:	66e7d463          	bge	a5,a4,11c40 <_vfprintf_r+0x17fc>
   115dc:	00013b83          	ld	s7,0(sp)
   115e0:	01000713          	li	a4,16
   115e4:	00700b13          	li	s6,7
   115e8:	00c0006f          	j	115f4 <_vfprintf_r+0x11b0>
   115ec:	ff0a8a9b          	addiw	s5,s5,-16
   115f0:	65575863          	bge	a4,s5,11c40 <_vfprintf_r+0x17fc>
   115f4:	0014041b          	addiw	s0,s0,1
   115f8:	010d0d13          	addi	s10,s10,16
   115fc:	01bcb023          	sd	s11,0(s9)
   11600:	00ecb423          	sd	a4,8(s9)
   11604:	11a13823          	sd	s10,272(sp)
   11608:	10812423          	sw	s0,264(sp)
   1160c:	010c8c93          	addi	s9,s9,16
   11610:	fc8b5ee3          	bge	s6,s0,115ec <_vfprintf_r+0x11a8>
   11614:	10010613          	addi	a2,sp,256
   11618:	000b8593          	mv	a1,s7
   1161c:	00098513          	mv	a0,s3
   11620:	6b5090ef          	jal	ra,1b4d4 <__sprint_r>
   11624:	ba0518e3          	bnez	a0,111d4 <_vfprintf_r+0xd90>
   11628:	11013d03          	ld	s10,272(sp)
   1162c:	10812403          	lw	s0,264(sp)
   11630:	18010c93          	addi	s9,sp,384
   11634:	01000713          	li	a4,16
   11638:	fb5ff06f          	j	115ec <_vfprintf_r+0x11a8>
   1163c:	00013583          	ld	a1,0(sp)
   11640:	10010613          	addi	a2,sp,256
   11644:	00098513          	mv	a0,s3
   11648:	68d090ef          	jal	ra,1b4d4 <__sprint_r>
   1164c:	b80514e3          	bnez	a0,111d4 <_vfprintf_r+0xd90>
   11650:	11013d83          	ld	s11,272(sp)
   11654:	18010413          	addi	s0,sp,384
   11658:	8d0ff06f          	j	10728 <_vfprintf_r+0x2e4>
   1165c:	01097793          	andi	a5,s2,16
   11660:	12079c63          	bnez	a5,11798 <_vfprintf_r+0x1354>
   11664:	02013683          	ld	a3,32(sp)
   11668:	04097793          	andi	a5,s2,64
   1166c:	0006ad03          	lw	s10,0(a3)
   11670:	5e078c63          	beqz	a5,11c68 <_vfprintf_r+0x1824>
   11674:	010d1d1b          	slliw	s10,s10,0x10
   11678:	410d5d1b          	sraiw	s10,s10,0x10
   1167c:	000d0793          	mv	a5,s10
   11680:	ea07da63          	bgez	a5,10d34 <_vfprintf_r+0x8f0>
   11684:	02e13023          	sd	a4,32(sp)
   11688:	41a00d33          	neg	s10,s10
   1168c:	00090d93          	mv	s11,s2
   11690:	02d00713          	li	a4,45
   11694:	00100793          	li	a5,1
   11698:	e0cff06f          	j	10ca4 <_vfprintf_r+0x860>
   1169c:	01097793          	andi	a5,s2,16
   116a0:	0e079663          	bnez	a5,1178c <_vfprintf_r+0x1348>
   116a4:	02013683          	ld	a3,32(sp)
   116a8:	04097793          	andi	a5,s2,64
   116ac:	0006ad03          	lw	s10,0(a3)
   116b0:	5e078c63          	beqz	a5,11ca8 <_vfprintf_r+0x1864>
   116b4:	030d1d13          	slli	s10,s10,0x30
   116b8:	030d5d13          	srli	s10,s10,0x30
   116bc:	ec0ff06f          	j	10d7c <_vfprintf_r+0x938>
   116c0:	010df793          	andi	a5,s11,16
   116c4:	0a079a63          	bnez	a5,11778 <_vfprintf_r+0x1334>
   116c8:	02013683          	ld	a3,32(sp)
   116cc:	040df793          	andi	a5,s11,64
   116d0:	0006ad03          	lw	s10,0(a3)
   116d4:	5a078e63          	beqz	a5,11c90 <_vfprintf_r+0x184c>
   116d8:	030d1d13          	slli	s10,s10,0x30
   116dc:	030d5d13          	srli	s10,s10,0x30
   116e0:	02e13023          	sd	a4,32(sp)
   116e4:	00100793          	li	a5,1
   116e8:	db8ff06f          	j	10ca0 <_vfprintf_r+0x85c>
   116ec:	00000d13          	li	s10,0
   116f0:	17c10b13          	addi	s6,sp,380
   116f4:	ddcff06f          	j	10cd0 <_vfprintf_r+0x88c>
   116f8:	00197793          	andi	a5,s2,1
   116fc:	000d8713          	mv	a4,s11
   11700:	00079463          	bnez	a5,11708 <_vfprintf_r+0x12c4>
   11704:	854ff06f          	j	10758 <_vfprintf_r+0x314>
   11708:	f98ff06f          	j	10ea0 <_vfprintf_r+0xa5c>
   1170c:	000a8313          	mv	t1,s5
   11710:	e08ff06f          	j	10d18 <_vfprintf_r+0x8d4>
   11714:	0004ce03          	lbu	t3,0(s1)
   11718:	02f13023          	sd	a5,32(sp)
   1171c:	ed5fe06f          	j	105f0 <_vfprintf_r+0x1ac>
   11720:	03000793          	li	a5,48
   11724:	16f10da3          	sb	a5,379(sp)
   11728:	17b10b13          	addi	s6,sp,379
   1172c:	da4ff06f          	j	10cd0 <_vfprintf_r+0x88c>
   11730:	01097793          	andi	a5,s2,16
   11734:	e6079e63          	bnez	a5,10db0 <_vfprintf_r+0x96c>
   11738:	04097793          	andi	a5,s2,64
   1173c:	240796e3          	bnez	a5,12188 <_vfprintf_r+0x1d44>
   11740:	20097913          	andi	s2,s2,512
   11744:	01013783          	ld	a5,16(sp)
   11748:	00091463          	bnez	s2,11750 <_vfprintf_r+0x130c>
   1174c:	1d40106f          	j	12920 <_vfprintf_r+0x24dc>
   11750:	00f70023          	sb	a5,0(a4)
   11754:	e64ff06f          	j	10db8 <_vfprintf_r+0x974>
   11758:	02013783          	ld	a5,32(sp)
   1175c:	00f78a93          	addi	s5,a5,15
   11760:	ff0afa93          	andi	s5,s5,-16
   11764:	010a8793          	addi	a5,s5,16
   11768:	000ab703          	ld	a4,0(s5)
   1176c:	008ab583          	ld	a1,8(s5)
   11770:	02f13023          	sd	a5,32(sp)
   11774:	950ff06f          	j	108c4 <_vfprintf_r+0x480>
   11778:	02013783          	ld	a5,32(sp)
   1177c:	02e13023          	sd	a4,32(sp)
   11780:	0007bd03          	ld	s10,0(a5)
   11784:	00100793          	li	a5,1
   11788:	d18ff06f          	j	10ca0 <_vfprintf_r+0x85c>
   1178c:	02013783          	ld	a5,32(sp)
   11790:	0007bd03          	ld	s10,0(a5)
   11794:	de8ff06f          	j	10d7c <_vfprintf_r+0x938>
   11798:	02013783          	ld	a5,32(sp)
   1179c:	0007b783          	ld	a5,0(a5)
   117a0:	00078d13          	mv	s10,a5
   117a4:	d8cff06f          	j	10d30 <_vfprintf_r+0x8ec>
   117a8:	00078693          	mv	a3,a5
   117ac:	00068c9b          	sext.w	s9,a3
   117b0:	c5904ae3          	bgtz	s9,11404 <_vfprintf_r+0xfc0>
   117b4:	c79ff06f          	j	1142c <_vfprintf_r+0xfe8>
   117b8:	00013583          	ld	a1,0(sp)
   117bc:	10010613          	addi	a2,sp,256
   117c0:	00098513          	mv	a0,s3
   117c4:	08613823          	sd	t1,144(sp)
   117c8:	50d090ef          	jal	ra,1b4d4 <__sprint_r>
   117cc:	a00514e3          	bnez	a0,111d4 <_vfprintf_r+0xd90>
   117d0:	11013d83          	ld	s11,272(sp)
   117d4:	09013303          	ld	t1,144(sp)
   117d8:	18010413          	addi	s0,sp,384
   117dc:	f45fe06f          	j	10720 <_vfprintf_r+0x2dc>
   117e0:	000227b7          	lui	a5,0x22
   117e4:	d0878793          	addi	a5,a5,-760 # 21d08 <__clzdi2+0x78>
   117e8:	000a8313          	mv	t1,s5
   117ec:	06f13423          	sd	a5,104(sp)
   117f0:	02013683          	ld	a3,32(sp)
   117f4:	02097793          	andi	a5,s2,32
   117f8:	00868713          	addi	a4,a3,8
   117fc:	14078463          	beqz	a5,11944 <_vfprintf_r+0x1500>
   11800:	0006bd03          	ld	s10,0(a3)
   11804:	00197793          	andi	a5,s2,1
   11808:	00078e63          	beqz	a5,11824 <_vfprintf_r+0x13e0>
   1180c:	000d0c63          	beqz	s10,11824 <_vfprintf_r+0x13e0>
   11810:	00296913          	ori	s2,s2,2
   11814:	03000793          	li	a5,48
   11818:	0cf10823          	sb	a5,208(sp)
   1181c:	0d9108a3          	sb	s9,209(sp)
   11820:	0009091b          	sext.w	s2,s2
   11824:	bff97d93          	andi	s11,s2,-1025
   11828:	000d8d9b          	sext.w	s11,s11
   1182c:	02e13023          	sd	a4,32(sp)
   11830:	00200793          	li	a5,2
   11834:	c6cff06f          	j	10ca0 <_vfprintf_r+0x85c>
   11838:	000a8313          	mv	t1,s5
   1183c:	00090d93          	mv	s11,s2
   11840:	c44ff06f          	j	10c84 <_vfprintf_r+0x840>
   11844:	20096913          	ori	s2,s2,512
   11848:	0014ce03          	lbu	t3,1(s1)
   1184c:	0009091b          	sext.w	s2,s2
   11850:	00148493          	addi	s1,s1,1
   11854:	d9dfe06f          	j	105f0 <_vfprintf_r+0x1ac>
   11858:	02096913          	ori	s2,s2,32
   1185c:	0014ce03          	lbu	t3,1(s1)
   11860:	0009091b          	sext.w	s2,s2
   11864:	00148493          	addi	s1,s1,1
   11868:	d89fe06f          	j	105f0 <_vfprintf_r+0x1ac>
   1186c:	000a8313          	mv	t1,s5
   11870:	cf8ff06f          	j	10d68 <_vfprintf_r+0x924>
   11874:	000227b7          	lui	a5,0x22
   11878:	d2078793          	addi	a5,a5,-736 # 21d20 <__clzdi2+0x90>
   1187c:	000a8313          	mv	t1,s5
   11880:	06f13423          	sd	a5,104(sp)
   11884:	f6dff06f          	j	117f0 <_vfprintf_r+0x13ac>
   11888:	00013583          	ld	a1,0(sp)
   1188c:	10010613          	addi	a2,sp,256
   11890:	00098513          	mv	a0,s3
   11894:	441090ef          	jal	ra,1b4d4 <__sprint_r>
   11898:	92051ee3          	bnez	a0,111d4 <_vfprintf_r+0xd90>
   1189c:	11013703          	ld	a4,272(sp)
   118a0:	18010413          	addi	s0,sp,384
   118a4:	e30ff06f          	j	10ed4 <_vfprintf_r+0xa90>
   118a8:	00600793          	li	a5,6
   118ac:	00030693          	mv	a3,t1
   118b0:	0a67e2e3          	bltu	a5,t1,12154 <_vfprintf_r+0x1d10>
   118b4:	00068d1b          	sext.w	s10,a3
   118b8:	000227b7          	lui	a5,0x22
   118bc:	000d0c13          	mv	s8,s10
   118c0:	03513023          	sd	s5,32(sp)
   118c4:	d3878b13          	addi	s6,a5,-712 # 21d38 <__clzdi2+0xa8>
   118c8:	da9fe06f          	j	10670 <_vfprintf_r+0x22c>
   118cc:	00022f37          	lui	t5,0x22
   118d0:	01000593          	li	a1,16
   118d4:	000d8713          	mv	a4,s11
   118d8:	10812603          	lw	a2,264(sp)
   118dc:	f48f0d93          	addi	s11,t5,-184 # 21f48 <zeroes.0>
   118e0:	3f95dc63          	bge	a1,s9,11cd8 <_vfprintf_r+0x1894>
   118e4:	00013b83          	ld	s7,0(sp)
   118e8:	01000893          	li	a7,16
   118ec:	00700d13          	li	s10,7
   118f0:	00c0006f          	j	118fc <_vfprintf_r+0x14b8>
   118f4:	ff0c8c9b          	addiw	s9,s9,-16
   118f8:	3f98d063          	bge	a7,s9,11cd8 <_vfprintf_r+0x1894>
   118fc:	0016061b          	addiw	a2,a2,1
   11900:	01070713          	addi	a4,a4,16
   11904:	01b43023          	sd	s11,0(s0)
   11908:	01143423          	sd	a7,8(s0)
   1190c:	10e13823          	sd	a4,272(sp)
   11910:	10c12423          	sw	a2,264(sp)
   11914:	01040413          	addi	s0,s0,16
   11918:	fccd5ee3          	bge	s10,a2,118f4 <_vfprintf_r+0x14b0>
   1191c:	10010613          	addi	a2,sp,256
   11920:	000b8593          	mv	a1,s7
   11924:	00098513          	mv	a0,s3
   11928:	3ad090ef          	jal	ra,1b4d4 <__sprint_r>
   1192c:	8a0514e3          	bnez	a0,111d4 <_vfprintf_r+0xd90>
   11930:	11013703          	ld	a4,272(sp)
   11934:	10812603          	lw	a2,264(sp)
   11938:	18010413          	addi	s0,sp,384
   1193c:	01000893          	li	a7,16
   11940:	fb5ff06f          	j	118f4 <_vfprintf_r+0x14b0>
   11944:	01097793          	andi	a5,s2,16
   11948:	1c078463          	beqz	a5,11b10 <_vfprintf_r+0x16cc>
   1194c:	02013783          	ld	a5,32(sp)
   11950:	0007bd03          	ld	s10,0(a5)
   11954:	eb1ff06f          	j	11804 <_vfprintf_r+0x13c0>
   11958:	00013583          	ld	a1,0(sp)
   1195c:	10010613          	addi	a2,sp,256
   11960:	00098513          	mv	a0,s3
   11964:	371090ef          	jal	ra,1b4d4 <__sprint_r>
   11968:	860516e3          	bnez	a0,111d4 <_vfprintf_r+0xd90>
   1196c:	11013703          	ld	a4,272(sp)
   11970:	10812683          	lw	a3,264(sp)
   11974:	18010c93          	addi	s9,sp,384
   11978:	870ff06f          	j	109e8 <_vfprintf_r+0x5a4>
   1197c:	00013583          	ld	a1,0(sp)
   11980:	10010613          	addi	a2,sp,256
   11984:	00098513          	mv	a0,s3
   11988:	34d090ef          	jal	ra,1b4d4 <__sprint_r>
   1198c:	840514e3          	bnez	a0,111d4 <_vfprintf_r+0xd90>
   11990:	11013d03          	ld	s10,272(sp)
   11994:	10812403          	lw	s0,264(sp)
   11998:	18010c93          	addi	s9,sp,384
   1199c:	878ff06f          	j	10a14 <_vfprintf_r+0x5d0>
   119a0:	17c10a93          	addi	s5,sp,380
   119a4:	00913c23          	sd	s1,24(sp)
   119a8:	07813483          	ld	s1,120(sp)
   119ac:	400df913          	andi	s2,s11,1024
   119b0:	000a8b13          	mv	s6,s5
   119b4:	00000793          	li	a5,0
   119b8:	04813023          	sd	s0,64(sp)
   119bc:	00098a93          	mv	s5,s3
   119c0:	00090413          	mv	s0,s2
   119c4:	00900b93          	li	s7,9
   119c8:	0ff00c13          	li	s8,255
   119cc:	02613823          	sd	t1,48(sp)
   119d0:	00078913          	mv	s2,a5
   119d4:	000b0993          	mv	s3,s6
   119d8:	00a00593          	li	a1,10
   119dc:	000d0513          	mv	a0,s10
   119e0:	240100ef          	jal	ra,21c20 <__umoddi3>
   119e4:	0305051b          	addiw	a0,a0,48
   119e8:	fea98fa3          	sb	a0,-1(s3)
   119ec:	0019091b          	addiw	s2,s2,1
   119f0:	fff98993          	addi	s3,s3,-1
   119f4:	00040663          	beqz	s0,11a00 <_vfprintf_r+0x15bc>
   119f8:	0004c703          	lbu	a4,0(s1)
   119fc:	04e90663          	beq	s2,a4,11a48 <_vfprintf_r+0x1604>
   11a00:	00a00593          	li	a1,10
   11a04:	000d0513          	mv	a0,s10
   11a08:	1d0100ef          	jal	ra,21bd8 <__hidden___udivdi3>
   11a0c:	01abf663          	bgeu	s7,s10,11a18 <_vfprintf_r+0x15d4>
   11a10:	00050d13          	mv	s10,a0
   11a14:	fc5ff06f          	j	119d8 <_vfprintf_r+0x1594>
   11a18:	000b0793          	mv	a5,s6
   11a1c:	00098b13          	mv	s6,s3
   11a20:	000a8993          	mv	s3,s5
   11a24:	00078a93          	mv	s5,a5
   11a28:	03213c23          	sd	s2,56(sp)
   11a2c:	06913c23          	sd	s1,120(sp)
   11a30:	03013303          	ld	t1,48(sp)
   11a34:	01813483          	ld	s1,24(sp)
   11a38:	04013403          	ld	s0,64(sp)
   11a3c:	416a8d3b          	subw	s10,s5,s6
   11a40:	000d8913          	mv	s2,s11
   11a44:	a8cff06f          	j	10cd0 <_vfprintf_r+0x88c>
   11a48:	fb870ce3          	beq	a4,s8,11a00 <_vfprintf_r+0x15bc>
   11a4c:	fdabf6e3          	bgeu	s7,s10,11a18 <_vfprintf_r+0x15d4>
   11a50:	08013783          	ld	a5,128(sp)
   11a54:	08813583          	ld	a1,136(sp)
   11a58:	00000913          	li	s2,0
   11a5c:	40f989b3          	sub	s3,s3,a5
   11a60:	00078613          	mv	a2,a5
   11a64:	00098513          	mv	a0,s3
   11a68:	300070ef          	jal	ra,18d68 <strncpy>
   11a6c:	0014c703          	lbu	a4,1(s1)
   11a70:	000d0513          	mv	a0,s10
   11a74:	00a00593          	li	a1,10
   11a78:	00e03733          	snez	a4,a4
   11a7c:	00e484b3          	add	s1,s1,a4
   11a80:	158100ef          	jal	ra,21bd8 <__hidden___udivdi3>
   11a84:	00050d13          	mv	s10,a0
   11a88:	f51ff06f          	j	119d8 <_vfprintf_r+0x1594>
   11a8c:	10812683          	lw	a3,264(sp)
   11a90:	000225b7          	lui	a1,0x22
   11a94:	d4058593          	addi	a1,a1,-704 # 21d40 <__clzdi2+0xb0>
   11a98:	0016869b          	addiw	a3,a3,1
   11a9c:	00b43023          	sd	a1,0(s0)
   11aa0:	001d8713          	addi	a4,s11,1
   11aa4:	00100593          	li	a1,1
   11aa8:	00b43423          	sd	a1,8(s0)
   11aac:	10d12423          	sw	a3,264(sp)
   11ab0:	0006859b          	sext.w	a1,a3
   11ab4:	10e13823          	sd	a4,272(sp)
   11ab8:	00700693          	li	a3,7
   11abc:	01040413          	addi	s0,s0,16
   11ac0:	44b6ce63          	blt	a3,a1,11f1c <_vfprintf_r+0x1ad8>
   11ac4:	10061663          	bnez	a2,11bd0 <_vfprintf_r+0x178c>
   11ac8:	03813783          	ld	a5,56(sp)
   11acc:	00197693          	andi	a3,s2,1
   11ad0:	00d7e6b3          	or	a3,a5,a3
   11ad4:	00069463          	bnez	a3,11adc <_vfprintf_r+0x1698>
   11ad8:	c81fe06f          	j	10758 <_vfprintf_r+0x314>
   11adc:	10812603          	lw	a2,264(sp)
   11ae0:	05813783          	ld	a5,88(sp)
   11ae4:	06013683          	ld	a3,96(sp)
   11ae8:	00e78733          	add	a4,a5,a4
   11aec:	00d43023          	sd	a3,0(s0)
   11af0:	0016069b          	addiw	a3,a2,1
   11af4:	00f43423          	sd	a5,8(s0)
   11af8:	10e13823          	sd	a4,272(sp)
   11afc:	10d12423          	sw	a3,264(sp)
   11b00:	00700613          	li	a2,7
   11b04:	6cd64e63          	blt	a2,a3,121e0 <_vfprintf_r+0x1d9c>
   11b08:	01040413          	addi	s0,s0,16
   11b0c:	0f80006f          	j	11c04 <_vfprintf_r+0x17c0>
   11b10:	02013683          	ld	a3,32(sp)
   11b14:	04097793          	andi	a5,s2,64
   11b18:	0006ad03          	lw	s10,0(a3)
   11b1c:	16078263          	beqz	a5,11c80 <_vfprintf_r+0x183c>
   11b20:	030d1d13          	slli	s10,s10,0x30
   11b24:	030d5d13          	srli	s10,s10,0x30
   11b28:	cddff06f          	j	11804 <_vfprintf_r+0x13c0>
   11b2c:	00013583          	ld	a1,0(sp)
   11b30:	10010613          	addi	a2,sp,256
   11b34:	00098513          	mv	a0,s3
   11b38:	19d090ef          	jal	ra,1b4d4 <__sprint_r>
   11b3c:	e8051c63          	bnez	a0,111d4 <_vfprintf_r+0xd90>
   11b40:	11013d83          	ld	s11,272(sp)
   11b44:	18010413          	addi	s0,sp,384
   11b48:	b4cff06f          	j	10e94 <_vfprintf_r+0xa50>
   11b4c:	0017869b          	addiw	a3,a5,1
   11b50:	01b43023          	sd	s11,0(s0)
   11b54:	01943423          	sd	s9,8(s0)
   11b58:	01970733          	add	a4,a4,s9
   11b5c:	10e13823          	sd	a4,272(sp)
   11b60:	10d12423          	sw	a3,264(sp)
   11b64:	00700793          	li	a5,7
   11b68:	00d7c463          	blt	a5,a3,11b70 <_vfprintf_r+0x172c>
   11b6c:	be9fe06f          	j	10754 <_vfprintf_r+0x310>
   11b70:	f1dfe06f          	j	10a8c <_vfprintf_r+0x648>
   11b74:	0f013503          	ld	a0,240(sp)
   11b78:	0f813583          	ld	a1,248(sp)
   11b7c:	00000613          	li	a2,0
   11b80:	00000693          	li	a3,0
   11b84:	33d0e0ef          	jal	ra,206c0 <__letf2>
   11b88:	260548e3          	bltz	a0,125f8 <_vfprintf_r+0x21b4>
   11b8c:	0cf14703          	lbu	a4,207(sp)
   11b90:	04700793          	li	a5,71
   11b94:	3b97d663          	bge	a5,s9,11f40 <_vfprintf_r+0x1afc>
   11b98:	000227b7          	lui	a5,0x22
   11b9c:	cf078b13          	addi	s6,a5,-784 # 21cf0 <__clzdi2+0x60>
   11ba0:	f7f97913          	andi	s2,s2,-129
   11ba4:	00013c23          	sd	zero,24(sp)
   11ba8:	04013423          	sd	zero,72(sp)
   11bac:	04013023          	sd	zero,64(sp)
   11bb0:	02013823          	sd	zero,48(sp)
   11bb4:	0009091b          	sext.w	s2,s2
   11bb8:	00300c13          	li	s8,3
   11bbc:	00300d13          	li	s10,3
   11bc0:	00000313          	li	t1,0
   11bc4:	00070463          	beqz	a4,11bcc <_vfprintf_r+0x1788>
   11bc8:	f95fe06f          	j	10b5c <_vfprintf_r+0x718>
   11bcc:	ab9fe06f          	j	10684 <_vfprintf_r+0x240>
   11bd0:	10812583          	lw	a1,264(sp)
   11bd4:	05813783          	ld	a5,88(sp)
   11bd8:	06013683          	ld	a3,96(sp)
   11bdc:	01040413          	addi	s0,s0,16
   11be0:	00e78733          	add	a4,a5,a4
   11be4:	fed43823          	sd	a3,-16(s0)
   11be8:	0015869b          	addiw	a3,a1,1
   11bec:	fef43c23          	sd	a5,-8(s0)
   11bf0:	10e13823          	sd	a4,272(sp)
   11bf4:	10d12423          	sw	a3,264(sp)
   11bf8:	00700593          	li	a1,7
   11bfc:	5ed5c263          	blt	a1,a3,121e0 <_vfprintf_r+0x1d9c>
   11c00:	2c0642e3          	bltz	a2,126c4 <_vfprintf_r+0x2280>
   11c04:	03813783          	ld	a5,56(sp)
   11c08:	0016861b          	addiw	a2,a3,1
   11c0c:	01643023          	sd	s6,0(s0)
   11c10:	00e78733          	add	a4,a5,a4
   11c14:	00f43423          	sd	a5,8(s0)
   11c18:	10e13823          	sd	a4,272(sp)
   11c1c:	10c12423          	sw	a2,264(sp)
   11c20:	00700793          	li	a5,7
   11c24:	00c7c463          	blt	a5,a2,11c2c <_vfprintf_r+0x17e8>
   11c28:	b2dfe06f          	j	10754 <_vfprintf_r+0x310>
   11c2c:	e61fe06f          	j	10a8c <_vfprintf_r+0x648>
   11c30:	000b0513          	mv	a0,s6
   11c34:	06c070ef          	jal	ra,18ca0 <strlen>
   11c38:	00050d1b          	sext.w	s10,a0
   11c3c:	ef5fe06f          	j	10b30 <_vfprintf_r+0x6ec>
   11c40:	0014041b          	addiw	s0,s0,1
   11c44:	015d0d33          	add	s10,s10,s5
   11c48:	01bcb023          	sd	s11,0(s9)
   11c4c:	015cb423          	sd	s5,8(s9)
   11c50:	11a13823          	sd	s10,272(sp)
   11c54:	10812423          	sw	s0,264(sp)
   11c58:	00700793          	li	a5,7
   11c5c:	0087c463          	blt	a5,s0,11c64 <_vfprintf_r+0x1820>
   11c60:	df9fe06f          	j	10a58 <_vfprintf_r+0x614>
   11c64:	939ff06f          	j	1159c <_vfprintf_r+0x1158>
   11c68:	20097793          	andi	a5,s2,512
   11c6c:	52078a63          	beqz	a5,121a0 <_vfprintf_r+0x1d5c>
   11c70:	018d1d1b          	slliw	s10,s10,0x18
   11c74:	418d5d1b          	sraiw	s10,s10,0x18
   11c78:	000d0793          	mv	a5,s10
   11c7c:	8b4ff06f          	j	10d30 <_vfprintf_r+0x8ec>
   11c80:	20097793          	andi	a5,s2,512
   11c84:	50078863          	beqz	a5,12194 <_vfprintf_r+0x1d50>
   11c88:	0ffd7d13          	zext.b	s10,s10
   11c8c:	b79ff06f          	j	11804 <_vfprintf_r+0x13c0>
   11c90:	200df793          	andi	a5,s11,512
   11c94:	50078a63          	beqz	a5,121a8 <_vfprintf_r+0x1d64>
   11c98:	0ffd7d13          	zext.b	s10,s10
   11c9c:	02e13023          	sd	a4,32(sp)
   11ca0:	00100793          	li	a5,1
   11ca4:	ffdfe06f          	j	10ca0 <_vfprintf_r+0x85c>
   11ca8:	20097793          	andi	a5,s2,512
   11cac:	4c078863          	beqz	a5,1217c <_vfprintf_r+0x1d38>
   11cb0:	0ffd7d13          	zext.b	s10,s10
   11cb4:	8c8ff06f          	j	10d7c <_vfprintf_r+0x938>
   11cb8:	0f813783          	ld	a5,248(sp)
   11cbc:	5007c063          	bltz	a5,121bc <_vfprintf_r+0x1d78>
   11cc0:	0cf14703          	lbu	a4,207(sp)
   11cc4:	04700793          	li	a5,71
   11cc8:	1f97d4e3          	bge	a5,s9,126b0 <_vfprintf_r+0x226c>
   11ccc:	000227b7          	lui	a5,0x22
   11cd0:	d0078b13          	addi	s6,a5,-768 # 21d00 <__clzdi2+0x70>
   11cd4:	ecdff06f          	j	11ba0 <_vfprintf_r+0x175c>
   11cd8:	0016059b          	addiw	a1,a2,1
   11cdc:	00ec8733          	add	a4,s9,a4
   11ce0:	01b43023          	sd	s11,0(s0)
   11ce4:	01943423          	sd	s9,8(s0)
   11ce8:	10e13823          	sd	a4,272(sp)
   11cec:	10b12423          	sw	a1,264(sp)
   11cf0:	00700693          	li	a3,7
   11cf4:	72b6c863          	blt	a3,a1,12424 <_vfprintf_r+0x1fe0>
   11cf8:	01040413          	addi	s0,s0,16
   11cfc:	00070d93          	mv	s11,a4
   11d00:	f44ff06f          	j	11444 <_vfprintf_r+0x1000>
   11d04:	04013c83          	ld	s9,64(sp)
   11d08:	00022e37          	lui	t3,0x22
   11d0c:	08913823          	sd	s1,144(sp)
   11d10:	09213c23          	sd	s2,152(sp)
   11d14:	0b413023          	sd	s4,160(sp)
   11d18:	05813023          	sd	s8,64(sp)
   11d1c:	000b0a13          	mv	s4,s6
   11d20:	07813903          	ld	s2,120(sp)
   11d24:	08813483          	ld	s1,136(sp)
   11d28:	08013b03          	ld	s6,128(sp)
   11d2c:	04813c03          	ld	s8,72(sp)
   11d30:	00013b83          	ld	s7,0(sp)
   11d34:	00700313          	li	t1,7
   11d38:	01000893          	li	a7,16
   11d3c:	f48e0d13          	addi	s10,t3,-184 # 21f48 <zeroes.0>
   11d40:	000d8713          	mv	a4,s11
   11d44:	080c8c63          	beqz	s9,11ddc <_vfprintf_r+0x1998>
   11d48:	160c0863          	beqz	s8,11eb8 <_vfprintf_r+0x1a74>
   11d4c:	fffc0c1b          	addiw	s8,s8,-1
   11d50:	10812783          	lw	a5,264(sp)
   11d54:	01670733          	add	a4,a4,s6
   11d58:	00943023          	sd	s1,0(s0)
   11d5c:	0017869b          	addiw	a3,a5,1
   11d60:	01643423          	sd	s6,8(s0)
   11d64:	10e13823          	sd	a4,272(sp)
   11d68:	10d12423          	sw	a3,264(sp)
   11d6c:	01040413          	addi	s0,s0,16
   11d70:	14d34a63          	blt	t1,a3,11ec4 <_vfprintf_r+0x1a80>
   11d74:	00094683          	lbu	a3,0(s2)
   11d78:	414a8db3          	sub	s11,s5,s4
   11d7c:	000d879b          	sext.w	a5,s11
   11d80:	0006861b          	sext.w	a2,a3
   11d84:	00f6d463          	bge	a3,a5,11d8c <_vfprintf_r+0x1948>
   11d88:	00060d93          	mv	s11,a2
   11d8c:	000d8d9b          	sext.w	s11,s11
   11d90:	03b05863          	blez	s11,11dc0 <_vfprintf_r+0x197c>
   11d94:	10812783          	lw	a5,264(sp)
   11d98:	01b70733          	add	a4,a4,s11
   11d9c:	01443023          	sd	s4,0(s0)
   11da0:	0017869b          	addiw	a3,a5,1
   11da4:	01b43423          	sd	s11,8(s0)
   11da8:	10e13823          	sd	a4,272(sp)
   11dac:	10d12423          	sw	a3,264(sp)
   11db0:	12d34e63          	blt	t1,a3,11eec <_vfprintf_r+0x1aa8>
   11db4:	00094683          	lbu	a3,0(s2)
   11db8:	01040413          	addi	s0,s0,16
   11dbc:	0006861b          	sext.w	a2,a3
   11dc0:	fffdc793          	not	a5,s11
   11dc4:	43f7d793          	srai	a5,a5,0x3f
   11dc8:	00fdf7b3          	and	a5,s11,a5
   11dcc:	40f60dbb          	subw	s11,a2,a5
   11dd0:	03b04c63          	bgtz	s11,11e08 <_vfprintf_r+0x19c4>
   11dd4:	00da0a33          	add	s4,s4,a3
   11dd8:	f60c98e3          	bnez	s9,11d48 <_vfprintf_r+0x1904>
   11ddc:	f60c18e3          	bnez	s8,11d4c <_vfprintf_r+0x1908>
   11de0:	07213c23          	sd	s2,120(sp)
   11de4:	000a0b13          	mv	s6,s4
   11de8:	09013483          	ld	s1,144(sp)
   11dec:	09813903          	ld	s2,152(sp)
   11df0:	0a013a03          	ld	s4,160(sp)
   11df4:	04013c03          	ld	s8,64(sp)
   11df8:	00070d93          	mv	s11,a4
   11dfc:	e56afc63          	bgeu	s5,s6,11454 <_vfprintf_r+0x1010>
   11e00:	000a8b13          	mv	s6,s5
   11e04:	e50ff06f          	j	11454 <_vfprintf_r+0x1010>
   11e08:	00022637          	lui	a2,0x22
   11e0c:	10812783          	lw	a5,264(sp)
   11e10:	f4860613          	addi	a2,a2,-184 # 21f48 <zeroes.0>
   11e14:	07b8dc63          	bge	a7,s11,11e8c <_vfprintf_r+0x1a48>
   11e18:	02913823          	sd	s1,48(sp)
   11e1c:	000d8493          	mv	s1,s11
   11e20:	000d0d93          	mv	s11,s10
   11e24:	00c0006f          	j	11e30 <_vfprintf_r+0x19ec>
   11e28:	ff04849b          	addiw	s1,s1,-16
   11e2c:	0498da63          	bge	a7,s1,11e80 <_vfprintf_r+0x1a3c>
   11e30:	0017879b          	addiw	a5,a5,1
   11e34:	01070713          	addi	a4,a4,16
   11e38:	01a43023          	sd	s10,0(s0)
   11e3c:	01143423          	sd	a7,8(s0)
   11e40:	10e13823          	sd	a4,272(sp)
   11e44:	10f12423          	sw	a5,264(sp)
   11e48:	01040413          	addi	s0,s0,16
   11e4c:	fcf35ee3          	bge	t1,a5,11e28 <_vfprintf_r+0x19e4>
   11e50:	10010613          	addi	a2,sp,256
   11e54:	000b8593          	mv	a1,s7
   11e58:	00098513          	mv	a0,s3
   11e5c:	678090ef          	jal	ra,1b4d4 <__sprint_r>
   11e60:	b6051a63          	bnez	a0,111d4 <_vfprintf_r+0xd90>
   11e64:	01000893          	li	a7,16
   11e68:	ff04849b          	addiw	s1,s1,-16
   11e6c:	11013703          	ld	a4,272(sp)
   11e70:	10812783          	lw	a5,264(sp)
   11e74:	18010413          	addi	s0,sp,384
   11e78:	00700313          	li	t1,7
   11e7c:	fa98cae3          	blt	a7,s1,11e30 <_vfprintf_r+0x19ec>
   11e80:	000d8613          	mv	a2,s11
   11e84:	00048d93          	mv	s11,s1
   11e88:	03013483          	ld	s1,48(sp)
   11e8c:	0017869b          	addiw	a3,a5,1
   11e90:	00ed8733          	add	a4,s11,a4
   11e94:	00c43023          	sd	a2,0(s0)
   11e98:	01b43423          	sd	s11,8(s0)
   11e9c:	10e13823          	sd	a4,272(sp)
   11ea0:	10d12423          	sw	a3,264(sp)
   11ea4:	6ed34863          	blt	t1,a3,12594 <_vfprintf_r+0x2150>
   11ea8:	00094683          	lbu	a3,0(s2)
   11eac:	01040413          	addi	s0,s0,16
   11eb0:	00da0a33          	add	s4,s4,a3
   11eb4:	f25ff06f          	j	11dd8 <_vfprintf_r+0x1994>
   11eb8:	fff90913          	addi	s2,s2,-1
   11ebc:	fffc8c9b          	addiw	s9,s9,-1
   11ec0:	e91ff06f          	j	11d50 <_vfprintf_r+0x190c>
   11ec4:	10010613          	addi	a2,sp,256
   11ec8:	000b8593          	mv	a1,s7
   11ecc:	00098513          	mv	a0,s3
   11ed0:	604090ef          	jal	ra,1b4d4 <__sprint_r>
   11ed4:	b0051063          	bnez	a0,111d4 <_vfprintf_r+0xd90>
   11ed8:	11013703          	ld	a4,272(sp)
   11edc:	18010413          	addi	s0,sp,384
   11ee0:	01000893          	li	a7,16
   11ee4:	00700313          	li	t1,7
   11ee8:	e8dff06f          	j	11d74 <_vfprintf_r+0x1930>
   11eec:	10010613          	addi	a2,sp,256
   11ef0:	000b8593          	mv	a1,s7
   11ef4:	00098513          	mv	a0,s3
   11ef8:	5dc090ef          	jal	ra,1b4d4 <__sprint_r>
   11efc:	ac051c63          	bnez	a0,111d4 <_vfprintf_r+0xd90>
   11f00:	00094683          	lbu	a3,0(s2)
   11f04:	11013703          	ld	a4,272(sp)
   11f08:	18010413          	addi	s0,sp,384
   11f0c:	0006861b          	sext.w	a2,a3
   11f10:	01000893          	li	a7,16
   11f14:	00700313          	li	t1,7
   11f18:	ea9ff06f          	j	11dc0 <_vfprintf_r+0x197c>
   11f1c:	00013583          	ld	a1,0(sp)
   11f20:	10010613          	addi	a2,sp,256
   11f24:	00098513          	mv	a0,s3
   11f28:	5ac090ef          	jal	ra,1b4d4 <__sprint_r>
   11f2c:	aa051463          	bnez	a0,111d4 <_vfprintf_r+0xd90>
   11f30:	0d812603          	lw	a2,216(sp)
   11f34:	11013703          	ld	a4,272(sp)
   11f38:	18010413          	addi	s0,sp,384
   11f3c:	b89ff06f          	j	11ac4 <_vfprintf_r+0x1680>
   11f40:	000227b7          	lui	a5,0x22
   11f44:	ce878b13          	addi	s6,a5,-792 # 21ce8 <__clzdi2+0x58>
   11f48:	c59ff06f          	j	11ba0 <_vfprintf_r+0x175c>
   11f4c:	00030913          	mv	s2,t1
   11f50:	00200693          	li	a3,2
   11f54:	00090713          	mv	a4,s2
   11f58:	0e810893          	addi	a7,sp,232
   11f5c:	0dc10813          	addi	a6,sp,220
   11f60:	0d810793          	addi	a5,sp,216
   11f64:	000b8593          	mv	a1,s7
   11f68:	000c0613          	mv	a2,s8
   11f6c:	00098513          	mv	a0,s3
   11f70:	02613823          	sd	t1,48(sp)
   11f74:	4b0030ef          	jal	ra,15424 <_ldtoa_r>
   11f78:	06700713          	li	a4,103
   11f7c:	03013303          	ld	t1,48(sp)
   11f80:	00050b13          	mv	s6,a0
   11f84:	5eec8c63          	beq	s9,a4,1257c <_vfprintf_r+0x2138>
   11f88:	04700713          	li	a4,71
   11f8c:	5eec8863          	beq	s9,a4,1257c <_vfprintf_r+0x2138>
   11f90:	fdfcfa93          	andi	s5,s9,-33
   11f94:	04600713          	li	a4,70
   11f98:	01250d33          	add	s10,a0,s2
   11f9c:	66ea8663          	beq	s5,a4,12608 <_vfprintf_r+0x21c4>
   11fa0:	000c0593          	mv	a1,s8
   11fa4:	00000613          	li	a2,0
   11fa8:	00000693          	li	a3,0
   11fac:	000b8513          	mv	a0,s7
   11fb0:	02613823          	sd	t1,48(sp)
   11fb4:	55c0e0ef          	jal	ra,20510 <__eqtf2>
   11fb8:	03013303          	ld	t1,48(sp)
   11fbc:	000d0c13          	mv	s8,s10
   11fc0:	02050263          	beqz	a0,11fe4 <_vfprintf_r+0x1ba0>
   11fc4:	0e813c03          	ld	s8,232(sp)
   11fc8:	01ac7e63          	bgeu	s8,s10,11fe4 <_vfprintf_r+0x1ba0>
   11fcc:	03000693          	li	a3,48
   11fd0:	001c0793          	addi	a5,s8,1
   11fd4:	0ef13423          	sd	a5,232(sp)
   11fd8:	00dc0023          	sb	a3,0(s8)
   11fdc:	0e813c03          	ld	s8,232(sp)
   11fe0:	ffac68e3          	bltu	s8,s10,11fd0 <_vfprintf_r+0x1b8c>
   11fe4:	416c07bb          	subw	a5,s8,s6
   11fe8:	02f13c23          	sd	a5,56(sp)
   11fec:	0d812703          	lw	a4,216(sp)
   11ff0:	04700693          	li	a3,71
   11ff4:	02e13823          	sd	a4,48(sp)
   11ff8:	4cda8c63          	beq	s5,a3,124d0 <_vfprintf_r+0x208c>
   11ffc:	04600693          	li	a3,70
   12000:	72da8a63          	beq	s5,a3,12734 <_vfprintf_r+0x22f0>
   12004:	fff70d1b          	addiw	s10,a4,-1
   12008:	0da12c23          	sw	s10,216(sp)
   1200c:	06100693          	li	a3,97
   12010:	1cdc80e3          	beq	s9,a3,129d0 <_vfprintf_r+0x258c>
   12014:	04100613          	li	a2,65
   12018:	05000693          	li	a3,80
   1201c:	4ccc9863          	bne	s9,a2,124ec <_vfprintf_r+0x20a8>
   12020:	00100613          	li	a2,1
   12024:	0ed10023          	sb	a3,224(sp)
   12028:	02b00693          	li	a3,43
   1202c:	000d5863          	bgez	s10,1203c <_vfprintf_r+0x1bf8>
   12030:	00100d13          	li	s10,1
   12034:	40ed0d3b          	subw	s10,s10,a4
   12038:	02d00693          	li	a3,45
   1203c:	0ed100a3          	sb	a3,225(sp)
   12040:	00900713          	li	a4,9
   12044:	77a75e63          	bge	a4,s10,127c0 <_vfprintf_r+0x237c>
   12048:	0ef10913          	addi	s2,sp,239
   1204c:	00090a93          	mv	s5,s2
   12050:	06300b93          	li	s7,99
   12054:	00a00593          	li	a1,10
   12058:	000d0513          	mv	a0,s10
   1205c:	3f90f0ef          	jal	ra,21c54 <__moddi3>
   12060:	0305079b          	addiw	a5,a0,48
   12064:	fefa8fa3          	sb	a5,-1(s5)
   12068:	000d0513          	mv	a0,s10
   1206c:	00a00593          	li	a1,10
   12070:	000d0c13          	mv	s8,s10
   12074:	35d0f0ef          	jal	ra,21bd0 <__divdi3>
   12078:	000a8d93          	mv	s11,s5
   1207c:	00050d1b          	sext.w	s10,a0
   12080:	fffa8a93          	addi	s5,s5,-1
   12084:	fd8bc8e3          	blt	s7,s8,12054 <_vfprintf_r+0x1c10>
   12088:	030d0d1b          	addiw	s10,s10,48
   1208c:	ffed8713          	addi	a4,s11,-2
   12090:	ffaa8fa3          	sb	s10,-1(s5)
   12094:	1b277ae3          	bgeu	a4,s2,12a48 <_vfprintf_r+0x2604>
   12098:	0e210693          	addi	a3,sp,226
   1209c:	00074783          	lbu	a5,0(a4)
   120a0:	00170713          	addi	a4,a4,1
   120a4:	00168693          	addi	a3,a3,1
   120a8:	fef68fa3          	sb	a5,-1(a3)
   120ac:	ff2718e3          	bne	a4,s2,1209c <_vfprintf_r+0x1c58>
   120b0:	0f110713          	addi	a4,sp,241
   120b4:	0e210793          	addi	a5,sp,226
   120b8:	41b70733          	sub	a4,a4,s11
   120bc:	00e78733          	add	a4,a5,a4
   120c0:	0e010693          	addi	a3,sp,224
   120c4:	40d707bb          	subw	a5,a4,a3
   120c8:	06f13823          	sd	a5,112(sp)
   120cc:	07013703          	ld	a4,112(sp)
   120d0:	03813783          	ld	a5,56(sp)
   120d4:	00100613          	li	a2,1
   120d8:	00e78d3b          	addw	s10,a5,a4
   120dc:	000d0713          	mv	a4,s10
   120e0:	02f658e3          	bge	a2,a5,12910 <_vfprintf_r+0x24cc>
   120e4:	05813783          	ld	a5,88(sp)
   120e8:	00f70d3b          	addw	s10,a4,a5
   120ec:	04013783          	ld	a5,64(sp)
   120f0:	fffd4813          	not	a6,s10
   120f4:	43f85813          	srai	a6,a6,0x3f
   120f8:	bff7f913          	andi	s2,a5,-1025
   120fc:	0009091b          	sext.w	s2,s2
   12100:	010d7833          	and	a6,s10,a6
   12104:	10096913          	ori	s2,s2,256
   12108:	00080c1b          	sext.w	s8,a6
   1210c:	04013423          	sd	zero,72(sp)
   12110:	04013023          	sd	zero,64(sp)
   12114:	02013823          	sd	zero,48(sp)
   12118:	09813783          	ld	a5,152(sp)
   1211c:	3c078e63          	beqz	a5,124f8 <_vfprintf_r+0x20b4>
   12120:	02d00713          	li	a4,45
   12124:	0ce107a3          	sb	a4,207(sp)
   12128:	00000313          	li	t1,0
   1212c:	001c0c1b          	addiw	s8,s8,1
   12130:	d54fe06f          	j	10684 <_vfprintf_r+0x240>
   12134:	00013583          	ld	a1,0(sp)
   12138:	10010613          	addi	a2,sp,256
   1213c:	00098513          	mv	a0,s3
   12140:	394090ef          	jal	ra,1b4d4 <__sprint_r>
   12144:	88051863          	bnez	a0,111d4 <_vfprintf_r+0xd90>
   12148:	11013d83          	ld	s11,272(sp)
   1214c:	18010413          	addi	s0,sp,384
   12150:	adcff06f          	j	1142c <_vfprintf_r+0xfe8>
   12154:	00600693          	li	a3,6
   12158:	f5cff06f          	j	118b4 <_vfprintf_r+0x1470>
   1215c:	416a8cb3          	sub	s9,s5,s6
   12160:	40d7863b          	subw	a2,a5,a3
   12164:	000c879b          	sext.w	a5,s9
   12168:	000d8713          	mv	a4,s11
   1216c:	00f65463          	bge	a2,a5,12174 <_vfprintf_r+0x1d30>
   12170:	00060c93          	mv	s9,a2
   12174:	000c8c9b          	sext.w	s9,s9
   12178:	b70ff06f          	j	114e8 <_vfprintf_r+0x10a4>
   1217c:	020d1d13          	slli	s10,s10,0x20
   12180:	020d5d13          	srli	s10,s10,0x20
   12184:	bf9fe06f          	j	10d7c <_vfprintf_r+0x938>
   12188:	01013783          	ld	a5,16(sp)
   1218c:	00f71023          	sh	a5,0(a4)
   12190:	c29fe06f          	j	10db8 <_vfprintf_r+0x974>
   12194:	020d1d13          	slli	s10,s10,0x20
   12198:	020d5d13          	srli	s10,s10,0x20
   1219c:	e68ff06f          	j	11804 <_vfprintf_r+0x13c0>
   121a0:	000d0793          	mv	a5,s10
   121a4:	b8dfe06f          	j	10d30 <_vfprintf_r+0x8ec>
   121a8:	020d1d13          	slli	s10,s10,0x20
   121ac:	020d5d13          	srli	s10,s10,0x20
   121b0:	02e13023          	sd	a4,32(sp)
   121b4:	00100793          	li	a5,1
   121b8:	ae9fe06f          	j	10ca0 <_vfprintf_r+0x85c>
   121bc:	02d00793          	li	a5,45
   121c0:	0cf107a3          	sb	a5,207(sp)
   121c4:	02d00713          	li	a4,45
   121c8:	afdff06f          	j	11cc4 <_vfprintf_r+0x1880>
   121cc:	00013583          	ld	a1,0(sp)
   121d0:	05013503          	ld	a0,80(sp)
   121d4:	10010613          	addi	a2,sp,256
   121d8:	2fc090ef          	jal	ra,1b4d4 <__sprint_r>
   121dc:	ddcfe06f          	j	107b8 <_vfprintf_r+0x374>
   121e0:	00013583          	ld	a1,0(sp)
   121e4:	10010613          	addi	a2,sp,256
   121e8:	00098513          	mv	a0,s3
   121ec:	2e8090ef          	jal	ra,1b4d4 <__sprint_r>
   121f0:	00050463          	beqz	a0,121f8 <_vfprintf_r+0x1db4>
   121f4:	fe1fe06f          	j	111d4 <_vfprintf_r+0xd90>
   121f8:	0d812603          	lw	a2,216(sp)
   121fc:	11013703          	ld	a4,272(sp)
   12200:	10812683          	lw	a3,264(sp)
   12204:	18010413          	addi	s0,sp,384
   12208:	9f9ff06f          	j	11c00 <_vfprintf_r+0x17bc>
   1220c:	05800713          	li	a4,88
   12210:	00296793          	ori	a5,s2,2
   12214:	03000693          	li	a3,48
   12218:	0007879b          	sext.w	a5,a5
   1221c:	0ce108a3          	sb	a4,209(sp)
   12220:	0cd10823          	sb	a3,208(sp)
   12224:	06300713          	li	a4,99
   12228:	04f13023          	sd	a5,64(sp)
   1222c:	00013c23          	sd	zero,24(sp)
   12230:	11810b13          	addi	s6,sp,280
   12234:	64674c63          	blt	a4,t1,1288c <_vfprintf_r+0x2448>
   12238:	10296913          	ori	s2,s2,258
   1223c:	0f813c03          	ld	s8,248(sp)
   12240:	0009079b          	sext.w	a5,s2
   12244:	08f13823          	sd	a5,144(sp)
   12248:	08013c23          	sd	zero,152(sp)
   1224c:	0f013b83          	ld	s7,240(sp)
   12250:	300c4a63          	bltz	s8,12564 <_vfprintf_r+0x2120>
   12254:	06100713          	li	a4,97
   12258:	00ec8463          	beq	s9,a4,12260 <_vfprintf_r+0x1e1c>
   1225c:	ef8fe06f          	j	10954 <_vfprintf_r+0x510>
   12260:	000c0593          	mv	a1,s8
   12264:	000b8513          	mv	a0,s7
   12268:	02613823          	sd	t1,48(sp)
   1226c:	7400f0ef          	jal	ra,219ac <__trunctfdf2>
   12270:	0d810593          	addi	a1,sp,216
   12274:	50c060ef          	jal	ra,18780 <frexp>
   12278:	6440f0ef          	jal	ra,218bc <__extenddftf2>
   1227c:	00022737          	lui	a4,0x22
   12280:	f7873683          	ld	a3,-136(a4) # 21f78 <blanks.1+0x20>
   12284:	00000613          	li	a2,0
   12288:	5440e0ef          	jal	ra,207cc <__multf3>
   1228c:	00000613          	li	a2,0
   12290:	00000693          	li	a3,0
   12294:	00050d93          	mv	s11,a0
   12298:	00058913          	mv	s2,a1
   1229c:	2740e0ef          	jal	ra,20510 <__eqtf2>
   122a0:	03013303          	ld	t1,48(sp)
   122a4:	00051663          	bnez	a0,122b0 <_vfprintf_r+0x1e6c>
   122a8:	00100713          	li	a4,1
   122ac:	0ce12c23          	sw	a4,216(sp)
   122b0:	00022737          	lui	a4,0x22
   122b4:	d2070793          	addi	a5,a4,-736 # 21d20 <__clzdi2+0x90>
   122b8:	02f13c23          	sd	a5,56(sp)
   122bc:	000226b7          	lui	a3,0x22
   122c0:	f886b783          	ld	a5,-120(a3) # 21f88 <blanks.1+0x30>
   122c4:	02031713          	slli	a4,t1,0x20
   122c8:	02075713          	srli	a4,a4,0x20
   122cc:	00170713          	addi	a4,a4,1
   122d0:	02f13823          	sd	a5,48(sp)
   122d4:	0003061b          	sext.w	a2,t1
   122d8:	00eb07b3          	add	a5,s6,a4
   122dc:	04913423          	sd	s1,72(sp)
   122e0:	0b413023          	sd	s4,160(sp)
   122e4:	0a813823          	sd	s0,176(sp)
   122e8:	03813483          	ld	s1,56(sp)
   122ec:	0ac13c23          	sd	a2,184(sp)
   122f0:	0a613423          	sd	t1,168(sp)
   122f4:	00078413          	mv	s0,a5
   122f8:	000b0a13          	mv	s4,s6
   122fc:	00098b93          	mv	s7,s3
   12300:	000b0d13          	mv	s10,s6
   12304:	0140006f          	j	12318 <_vfprintf_r+0x1ed4>
   12308:	00000613          	li	a2,0
   1230c:	00000693          	li	a3,0
   12310:	2000e0ef          	jal	ra,20510 <__eqtf2>
   12314:	5a050663          	beqz	a0,128c0 <_vfprintf_r+0x247c>
   12318:	03013683          	ld	a3,48(sp)
   1231c:	00000613          	li	a2,0
   12320:	000d8513          	mv	a0,s11
   12324:	00090593          	mv	a1,s2
   12328:	4a40e0ef          	jal	ra,207cc <__multf3>
   1232c:	00058913          	mv	s2,a1
   12330:	00050993          	mv	s3,a0
   12334:	4980f0ef          	jal	ra,217cc <__fixtfsi>
   12338:	00050c1b          	sext.w	s8,a0
   1233c:	000c0513          	mv	a0,s8
   12340:	4f40f0ef          	jal	ra,21834 <__floatsitf>
   12344:	00058693          	mv	a3,a1
   12348:	00050613          	mv	a2,a0
   1234c:	00090593          	mv	a1,s2
   12350:	00098513          	mv	a0,s3
   12354:	3c50e0ef          	jal	ra,20f18 <__subtf3>
   12358:	01848733          	add	a4,s1,s8
   1235c:	00074683          	lbu	a3,0(a4)
   12360:	000a0993          	mv	s3,s4
   12364:	001a0a13          	addi	s4,s4,1
   12368:	feda0fa3          	sb	a3,-1(s4)
   1236c:	00050a93          	mv	s5,a0
   12370:	00058b13          	mv	s6,a1
   12374:	00050d93          	mv	s11,a0
   12378:	00058913          	mv	s2,a1
   1237c:	f94416e3          	bne	s0,s4,12308 <_vfprintf_r+0x1ec4>
   12380:	000a0a93          	mv	s5,s4
   12384:	04813483          	ld	s1,72(sp)
   12388:	0a813303          	ld	t1,168(sp)
   1238c:	0b013403          	ld	s0,176(sp)
   12390:	0a013a03          	ld	s4,160(sp)
   12394:	03313823          	sd	s3,48(sp)
   12398:	000d0b13          	mv	s6,s10
   1239c:	000b8993          	mv	s3,s7
   123a0:	00050d13          	mv	s10,a0
   123a4:	00058b93          	mv	s7,a1
   123a8:	fff00d93          	li	s11,-1
   123ac:	000226b7          	lui	a3,0x22
   123b0:	f986b903          	ld	s2,-104(a3) # 21f98 <blanks.1+0x40>
   123b4:	00000613          	li	a2,0
   123b8:	000d0513          	mv	a0,s10
   123bc:	00090693          	mv	a3,s2
   123c0:	000b8593          	mv	a1,s7
   123c4:	04613423          	sd	t1,72(sp)
   123c8:	1ec0e0ef          	jal	ra,205b4 <__getf2>
   123cc:	04813303          	ld	t1,72(sp)
   123d0:	46a04463          	bgtz	a0,12838 <_vfprintf_r+0x23f4>
   123d4:	00000613          	li	a2,0
   123d8:	00090693          	mv	a3,s2
   123dc:	000d0513          	mv	a0,s10
   123e0:	000b8593          	mv	a1,s7
   123e4:	12c0e0ef          	jal	ra,20510 <__eqtf2>
   123e8:	04813303          	ld	t1,72(sp)
   123ec:	00051663          	bnez	a0,123f8 <_vfprintf_r+0x1fb4>
   123f0:	001c7c13          	andi	s8,s8,1
   123f4:	440c1263          	bnez	s8,12838 <_vfprintf_r+0x23f4>
   123f8:	001d8c1b          	addiw	s8,s11,1
   123fc:	018a8c33          	add	s8,s5,s8
   12400:	03000693          	li	a3,48
   12404:	480dc063          	bltz	s11,12884 <_vfprintf_r+0x2440>
   12408:	001a8a93          	addi	s5,s5,1
   1240c:	feda8fa3          	sb	a3,-1(s5)
   12410:	ff5c1ce3          	bne	s8,s5,12408 <_vfprintf_r+0x1fc4>
   12414:	416c07bb          	subw	a5,s8,s6
   12418:	02f13c23          	sd	a5,56(sp)
   1241c:	fdfcfa93          	andi	s5,s9,-33
   12420:	bcdff06f          	j	11fec <_vfprintf_r+0x1ba8>
   12424:	00013583          	ld	a1,0(sp)
   12428:	10010613          	addi	a2,sp,256
   1242c:	00098513          	mv	a0,s3
   12430:	0a4090ef          	jal	ra,1b4d4 <__sprint_r>
   12434:	00050463          	beqz	a0,1243c <_vfprintf_r+0x1ff8>
   12438:	d9dfe06f          	j	111d4 <_vfprintf_r+0xd90>
   1243c:	11013d83          	ld	s11,272(sp)
   12440:	18010413          	addi	s0,sp,384
   12444:	800ff06f          	j	11444 <_vfprintf_r+0x1000>
   12448:	0013091b          	addiw	s2,t1,1
   1244c:	00200693          	li	a3,2
   12450:	b05ff06f          	j	11f54 <_vfprintf_r+0x1b10>
   12454:	00030913          	mv	s2,t1
   12458:	00300693          	li	a3,3
   1245c:	af9ff06f          	j	11f54 <_vfprintf_r+0x1b10>
   12460:	000c0593          	mv	a1,s8
   12464:	000b8513          	mv	a0,s7
   12468:	02613823          	sd	t1,48(sp)
   1246c:	5400f0ef          	jal	ra,219ac <__trunctfdf2>
   12470:	0d810593          	addi	a1,sp,216
   12474:	30c060ef          	jal	ra,18780 <frexp>
   12478:	4440f0ef          	jal	ra,218bc <__extenddftf2>
   1247c:	00022737          	lui	a4,0x22
   12480:	f7873683          	ld	a3,-136(a4) # 21f78 <blanks.1+0x20>
   12484:	00000613          	li	a2,0
   12488:	3440e0ef          	jal	ra,207cc <__multf3>
   1248c:	00000613          	li	a2,0
   12490:	00000693          	li	a3,0
   12494:	00050d93          	mv	s11,a0
   12498:	00058913          	mv	s2,a1
   1249c:	0740e0ef          	jal	ra,20510 <__eqtf2>
   124a0:	03013303          	ld	t1,48(sp)
   124a4:	00051663          	bnez	a0,124b0 <_vfprintf_r+0x206c>
   124a8:	00100713          	li	a4,1
   124ac:	0ce12c23          	sw	a4,216(sp)
   124b0:	00022737          	lui	a4,0x22
   124b4:	d0870793          	addi	a5,a4,-760 # 21d08 <__clzdi2+0x78>
   124b8:	02f13c23          	sd	a5,56(sp)
   124bc:	e01ff06f          	j	122bc <_vfprintf_r+0x1e78>
   124c0:	0e813c03          	ld	s8,232(sp)
   124c4:	0d812703          	lw	a4,216(sp)
   124c8:	416c07bb          	subw	a5,s8,s6
   124cc:	02f13c23          	sd	a5,56(sp)
   124d0:	ffd00693          	li	a3,-3
   124d4:	02e13823          	sd	a4,48(sp)
   124d8:	00d74463          	blt	a4,a3,124e0 <_vfprintf_r+0x209c>
   124dc:	02e35863          	bge	t1,a4,1250c <_vfprintf_r+0x20c8>
   124e0:	fff70d1b          	addiw	s10,a4,-1
   124e4:	ffec8c9b          	addiw	s9,s9,-2
   124e8:	0da12c23          	sw	s10,216(sp)
   124ec:	0ffcf693          	zext.b	a3,s9
   124f0:	00000613          	li	a2,0
   124f4:	b31ff06f          	j	12024 <_vfprintf_r+0x1be0>
   124f8:	0cf14703          	lbu	a4,207(sp)
   124fc:	00000313          	li	t1,0
   12500:	00070463          	beqz	a4,12508 <_vfprintf_r+0x20c4>
   12504:	e58fe06f          	j	10b5c <_vfprintf_r+0x718>
   12508:	97cfe06f          	j	10684 <_vfprintf_r+0x240>
   1250c:	03813783          	ld	a5,56(sp)
   12510:	26f74463          	blt	a4,a5,12778 <_vfprintf_r+0x2334>
   12514:	04013783          	ld	a5,64(sp)
   12518:	00070d13          	mv	s10,a4
   1251c:	0017f613          	andi	a2,a5,1
   12520:	00060663          	beqz	a2,1252c <_vfprintf_r+0x20e8>
   12524:	05813783          	ld	a5,88(sp)
   12528:	00e78d3b          	addw	s10,a5,a4
   1252c:	04013783          	ld	a5,64(sp)
   12530:	4007f613          	andi	a2,a5,1024
   12534:	00060463          	beqz	a2,1253c <_vfprintf_r+0x20f8>
   12538:	3ee04863          	bgtz	a4,12928 <_vfprintf_r+0x24e4>
   1253c:	fffd4813          	not	a6,s10
   12540:	43f85813          	srai	a6,a6,0x3f
   12544:	09013903          	ld	s2,144(sp)
   12548:	010d7833          	and	a6,s10,a6
   1254c:	00080c1b          	sext.w	s8,a6
   12550:	06700c93          	li	s9,103
   12554:	04013423          	sd	zero,72(sp)
   12558:	04013023          	sd	zero,64(sp)
   1255c:	bbdff06f          	j	12118 <_vfprintf_r+0x1cd4>
   12560:	00013c23          	sd	zero,24(sp)
   12564:	fff00713          	li	a4,-1
   12568:	03f71713          	slli	a4,a4,0x3f
   1256c:	02d00793          	li	a5,45
   12570:	00ec4c33          	xor	s8,s8,a4
   12574:	08f13c23          	sd	a5,152(sp)
   12578:	cddff06f          	j	12254 <_vfprintf_r+0x1e10>
   1257c:	04013783          	ld	a5,64(sp)
   12580:	0017f713          	andi	a4,a5,1
   12584:	f2070ee3          	beqz	a4,124c0 <_vfprintf_r+0x207c>
   12588:	012b0d33          	add	s10,s6,s2
   1258c:	04700a93          	li	s5,71
   12590:	a11ff06f          	j	11fa0 <_vfprintf_r+0x1b5c>
   12594:	10010613          	addi	a2,sp,256
   12598:	000b8593          	mv	a1,s7
   1259c:	00098513          	mv	a0,s3
   125a0:	735080ef          	jal	ra,1b4d4 <__sprint_r>
   125a4:	00050463          	beqz	a0,125ac <_vfprintf_r+0x2168>
   125a8:	c2dfe06f          	j	111d4 <_vfprintf_r+0xd90>
   125ac:	00094683          	lbu	a3,0(s2)
   125b0:	11013703          	ld	a4,272(sp)
   125b4:	18010413          	addi	s0,sp,384
   125b8:	01000893          	li	a7,16
   125bc:	00700313          	li	t1,7
   125c0:	00da0a33          	add	s4,s4,a3
   125c4:	815ff06f          	j	11dd8 <_vfprintf_r+0x1994>
   125c8:	07800713          	li	a4,120
   125cc:	c45ff06f          	j	12210 <_vfprintf_r+0x1dcc>
   125d0:	00013583          	ld	a1,0(sp)
   125d4:	10010613          	addi	a2,sp,256
   125d8:	00098513          	mv	a0,s3
   125dc:	6f9080ef          	jal	ra,1b4d4 <__sprint_r>
   125e0:	00050463          	beqz	a0,125e8 <_vfprintf_r+0x21a4>
   125e4:	bf1fe06f          	j	111d4 <_vfprintf_r+0xd90>
   125e8:	0d812683          	lw	a3,216(sp)
   125ec:	11013703          	ld	a4,272(sp)
   125f0:	18010413          	addi	s0,sp,384
   125f4:	ea9fe06f          	j	1149c <_vfprintf_r+0x1058>
   125f8:	02d00793          	li	a5,45
   125fc:	0cf107a3          	sb	a5,207(sp)
   12600:	02d00713          	li	a4,45
   12604:	d8cff06f          	j	11b90 <_vfprintf_r+0x174c>
   12608:	00054683          	lbu	a3,0(a0)
   1260c:	03000713          	li	a4,48
   12610:	00e68863          	beq	a3,a4,12620 <_vfprintf_r+0x21dc>
   12614:	0d812683          	lw	a3,216(sp)
   12618:	00dd0d33          	add	s10,s10,a3
   1261c:	985ff06f          	j	11fa0 <_vfprintf_r+0x1b5c>
   12620:	00000613          	li	a2,0
   12624:	00000693          	li	a3,0
   12628:	000b8513          	mv	a0,s7
   1262c:	000c0593          	mv	a1,s8
   12630:	02613823          	sd	t1,48(sp)
   12634:	6dd0d0ef          	jal	ra,20510 <__eqtf2>
   12638:	03013303          	ld	t1,48(sp)
   1263c:	fc050ce3          	beqz	a0,12614 <_vfprintf_r+0x21d0>
   12640:	00100713          	li	a4,1
   12644:	412706bb          	subw	a3,a4,s2
   12648:	0cd12c23          	sw	a3,216(sp)
   1264c:	00dd0d33          	add	s10,s10,a3
   12650:	951ff06f          	j	11fa0 <_vfprintf_r+0x1b5c>
   12654:	0cf14703          	lbu	a4,207(sp)
   12658:	03513023          	sd	s5,32(sp)
   1265c:	04013423          	sd	zero,72(sp)
   12660:	04013023          	sd	zero,64(sp)
   12664:	02013823          	sd	zero,48(sp)
   12668:	00030c13          	mv	s8,t1
   1266c:	00030d13          	mv	s10,t1
   12670:	00000313          	li	t1,0
   12674:	00070463          	beqz	a4,1267c <_vfprintf_r+0x2238>
   12678:	ce4fe06f          	j	10b5c <_vfprintf_r+0x718>
   1267c:	808fe06f          	j	10684 <_vfprintf_r+0x240>
   12680:	00013583          	ld	a1,0(sp)
   12684:	10010613          	addi	a2,sp,256
   12688:	00098513          	mv	a0,s3
   1268c:	649080ef          	jal	ra,1b4d4 <__sprint_r>
   12690:	00050463          	beqz	a0,12698 <_vfprintf_r+0x2254>
   12694:	b41fe06f          	j	111d4 <_vfprintf_r+0xd90>
   12698:	0d812603          	lw	a2,216(sp)
   1269c:	03813783          	ld	a5,56(sp)
   126a0:	11013703          	ld	a4,272(sp)
   126a4:	18010413          	addi	s0,sp,384
   126a8:	40c7863b          	subw	a2,a5,a2
   126ac:	e3dfe06f          	j	114e8 <_vfprintf_r+0x10a4>
   126b0:	000227b7          	lui	a5,0x22
   126b4:	cf878b13          	addi	s6,a5,-776 # 21cf8 <__clzdi2+0x68>
   126b8:	ce8ff06f          	j	11ba0 <_vfprintf_r+0x175c>
   126bc:	00090d93          	mv	s11,s2
   126c0:	c31fe06f          	j	112f0 <_vfprintf_r+0xeac>
   126c4:	00022f37          	lui	t5,0x22
   126c8:	ff000593          	li	a1,-16
   126cc:	40c00cbb          	negw	s9,a2
   126d0:	f48f0d93          	addi	s11,t5,-184 # 21f48 <zeroes.0>
   126d4:	01000d13          	li	s10,16
   126d8:	00700a93          	li	s5,7
   126dc:	00b64863          	blt	a2,a1,126ec <_vfprintf_r+0x22a8>
   126e0:	1100006f          	j	127f0 <_vfprintf_r+0x23ac>
   126e4:	ff0c8c9b          	addiw	s9,s9,-16
   126e8:	119d5463          	bge	s10,s9,127f0 <_vfprintf_r+0x23ac>
   126ec:	0016869b          	addiw	a3,a3,1
   126f0:	01070713          	addi	a4,a4,16
   126f4:	01b43023          	sd	s11,0(s0)
   126f8:	01a43423          	sd	s10,8(s0)
   126fc:	10e13823          	sd	a4,272(sp)
   12700:	10d12423          	sw	a3,264(sp)
   12704:	01040413          	addi	s0,s0,16
   12708:	fcdadee3          	bge	s5,a3,126e4 <_vfprintf_r+0x22a0>
   1270c:	00013583          	ld	a1,0(sp)
   12710:	10010613          	addi	a2,sp,256
   12714:	00098513          	mv	a0,s3
   12718:	5bd080ef          	jal	ra,1b4d4 <__sprint_r>
   1271c:	00050463          	beqz	a0,12724 <_vfprintf_r+0x22e0>
   12720:	ab5fe06f          	j	111d4 <_vfprintf_r+0xd90>
   12724:	11013703          	ld	a4,272(sp)
   12728:	10812683          	lw	a3,264(sp)
   1272c:	18010413          	addi	s0,sp,384
   12730:	fb5ff06f          	j	126e4 <_vfprintf_r+0x22a0>
   12734:	04013783          	ld	a5,64(sp)
   12738:	0017f713          	andi	a4,a5,1
   1273c:	03013783          	ld	a5,48(sp)
   12740:	00e36733          	or	a4,t1,a4
   12744:	28f05a63          	blez	a5,129d8 <_vfprintf_r+0x2594>
   12748:	26071a63          	bnez	a4,129bc <_vfprintf_r+0x2578>
   1274c:	03013d03          	ld	s10,48(sp)
   12750:	06600c93          	li	s9,102
   12754:	04013783          	ld	a5,64(sp)
   12758:	4007f713          	andi	a4,a5,1024
   1275c:	1c071863          	bnez	a4,1292c <_vfprintf_r+0x24e8>
   12760:	fffd4813          	not	a6,s10
   12764:	43f85813          	srai	a6,a6,0x3f
   12768:	010d7833          	and	a6,s10,a6
   1276c:	09013903          	ld	s2,144(sp)
   12770:	00080c1b          	sext.w	s8,a6
   12774:	de1ff06f          	j	12554 <_vfprintf_r+0x2110>
   12778:	05813783          	ld	a5,88(sp)
   1277c:	03813703          	ld	a4,56(sp)
   12780:	06700c93          	li	s9,103
   12784:	00e78d3b          	addw	s10,a5,a4
   12788:	03013783          	ld	a5,48(sp)
   1278c:	fcf044e3          	bgtz	a5,12754 <_vfprintf_r+0x2310>
   12790:	40fd073b          	subw	a4,s10,a5
   12794:	0017071b          	addiw	a4,a4,1
   12798:	00070d1b          	sext.w	s10,a4
   1279c:	fffd4613          	not	a2,s10
   127a0:	43f65613          	srai	a2,a2,0x3f
   127a4:	00c77733          	and	a4,a4,a2
   127a8:	09013903          	ld	s2,144(sp)
   127ac:	00070c1b          	sext.w	s8,a4
   127b0:	da5ff06f          	j	12554 <_vfprintf_r+0x2110>
   127b4:	fff00793          	li	a5,-1
   127b8:	00f13823          	sd	a5,16(sp)
   127bc:	810fe06f          	j	107cc <_vfprintf_r+0x388>
   127c0:	0e210713          	addi	a4,sp,226
   127c4:	00061863          	bnez	a2,127d4 <_vfprintf_r+0x2390>
   127c8:	03000713          	li	a4,48
   127cc:	0ee10123          	sb	a4,226(sp)
   127d0:	0e310713          	addi	a4,sp,227
   127d4:	20010793          	addi	a5,sp,512
   127d8:	40f706b3          	sub	a3,a4,a5
   127dc:	030d0d1b          	addiw	s10,s10,48
   127e0:	1216879b          	addiw	a5,a3,289
   127e4:	01a70023          	sb	s10,0(a4)
   127e8:	06f13823          	sd	a5,112(sp)
   127ec:	8e1ff06f          	j	120cc <_vfprintf_r+0x1c88>
   127f0:	0016869b          	addiw	a3,a3,1
   127f4:	01970733          	add	a4,a4,s9
   127f8:	01b43023          	sd	s11,0(s0)
   127fc:	01943423          	sd	s9,8(s0)
   12800:	10e13823          	sd	a4,272(sp)
   12804:	10d12423          	sw	a3,264(sp)
   12808:	00700613          	li	a2,7
   1280c:	aed65e63          	bge	a2,a3,11b08 <_vfprintf_r+0x16c4>
   12810:	00013583          	ld	a1,0(sp)
   12814:	10010613          	addi	a2,sp,256
   12818:	00098513          	mv	a0,s3
   1281c:	4b9080ef          	jal	ra,1b4d4 <__sprint_r>
   12820:	00050463          	beqz	a0,12828 <_vfprintf_r+0x23e4>
   12824:	9b1fe06f          	j	111d4 <_vfprintf_r+0xd90>
   12828:	11013703          	ld	a4,272(sp)
   1282c:	10812683          	lw	a3,264(sp)
   12830:	18010413          	addi	s0,sp,384
   12834:	bd0ff06f          	j	11c04 <_vfprintf_r+0x17c0>
   12838:	03013783          	ld	a5,48(sp)
   1283c:	000a8693          	mv	a3,s5
   12840:	0ef13423          	sd	a5,232(sp)
   12844:	03813783          	ld	a5,56(sp)
   12848:	fffac603          	lbu	a2,-1(s5)
   1284c:	00f7c583          	lbu	a1,15(a5)
   12850:	02c59063          	bne	a1,a2,12870 <_vfprintf_r+0x242c>
   12854:	03000513          	li	a0,48
   12858:	fea68fa3          	sb	a0,-1(a3)
   1285c:	0e813683          	ld	a3,232(sp)
   12860:	fff68793          	addi	a5,a3,-1
   12864:	0ef13423          	sd	a5,232(sp)
   12868:	fff6c603          	lbu	a2,-1(a3)
   1286c:	fec586e3          	beq	a1,a2,12858 <_vfprintf_r+0x2414>
   12870:	0016059b          	addiw	a1,a2,1
   12874:	03900513          	li	a0,57
   12878:	0ff5f593          	zext.b	a1,a1
   1287c:	02a60a63          	beq	a2,a0,128b0 <_vfprintf_r+0x246c>
   12880:	feb68fa3          	sb	a1,-1(a3)
   12884:	000a8c13          	mv	s8,s5
   12888:	b8dff06f          	j	12414 <_vfprintf_r+0x1fd0>
   1288c:	0013059b          	addiw	a1,t1,1
   12890:	00098513          	mv	a0,s3
   12894:	00613c23          	sd	t1,24(sp)
   12898:	238040ef          	jal	ra,16ad0 <_malloc_r>
   1289c:	01813303          	ld	t1,24(sp)
   128a0:	00050b13          	mv	s6,a0
   128a4:	1a050e63          	beqz	a0,12a60 <_vfprintf_r+0x261c>
   128a8:	00a13c23          	sd	a0,24(sp)
   128ac:	98dff06f          	j	12238 <_vfprintf_r+0x1df4>
   128b0:	03813783          	ld	a5,56(sp)
   128b4:	00a7c583          	lbu	a1,10(a5)
   128b8:	feb68fa3          	sb	a1,-1(a3)
   128bc:	fc9ff06f          	j	12884 <_vfprintf_r+0x2440>
   128c0:	0b813603          	ld	a2,184(sp)
   128c4:	03313823          	sd	s3,48(sp)
   128c8:	000b8993          	mv	s3,s7
   128cc:	000b0b93          	mv	s7,s6
   128d0:	000d0b13          	mv	s6,s10
   128d4:	00cb063b          	addw	a2,s6,a2
   128d8:	000a8d13          	mv	s10,s5
   128dc:	000a0a93          	mv	s5,s4
   128e0:	04813483          	ld	s1,72(sp)
   128e4:	0a813303          	ld	t1,168(sp)
   128e8:	0b013403          	ld	s0,176(sp)
   128ec:	0a013a03          	ld	s4,160(sp)
   128f0:	41560dbb          	subw	s11,a2,s5
   128f4:	ab9ff06f          	j	123ac <_vfprintf_r+0x1f68>
   128f8:	00030463          	beqz	t1,12900 <_vfprintf_r+0x24bc>
   128fc:	830fe06f          	j	1092c <_vfprintf_r+0x4e8>
   12900:	00100313          	li	t1,1
   12904:	828fe06f          	j	1092c <_vfprintf_r+0x4e8>
   12908:	00600313          	li	t1,6
   1290c:	820fe06f          	j	1092c <_vfprintf_r+0x4e8>
   12910:	04013783          	ld	a5,64(sp)
   12914:	0017f613          	andi	a2,a5,1
   12918:	fc060a63          	beqz	a2,120ec <_vfprintf_r+0x1ca8>
   1291c:	fc8ff06f          	j	120e4 <_vfprintf_r+0x1ca0>
   12920:	00f72023          	sw	a5,0(a4)
   12924:	c94fe06f          	j	10db8 <_vfprintf_r+0x974>
   12928:	06700c93          	li	s9,103
   1292c:	07813683          	ld	a3,120(sp)
   12930:	0ff00613          	li	a2,255
   12934:	0006c703          	lbu	a4,0(a3)
   12938:	10c70e63          	beq	a4,a2,12a54 <_vfprintf_r+0x2610>
   1293c:	03013783          	ld	a5,48(sp)
   12940:	00000813          	li	a6,0
   12944:	00000513          	li	a0,0
   12948:	0ff00593          	li	a1,255
   1294c:	0007061b          	sext.w	a2,a4
   12950:	00f75e63          	bge	a4,a5,1296c <_vfprintf_r+0x2528>
   12954:	0016c703          	lbu	a4,1(a3)
   12958:	40c787bb          	subw	a5,a5,a2
   1295c:	04070a63          	beqz	a4,129b0 <_vfprintf_r+0x256c>
   12960:	0015051b          	addiw	a0,a0,1
   12964:	00168693          	addi	a3,a3,1
   12968:	feb712e3          	bne	a4,a1,1294c <_vfprintf_r+0x2508>
   1296c:	02f13823          	sd	a5,48(sp)
   12970:	06d13c23          	sd	a3,120(sp)
   12974:	04a13023          	sd	a0,64(sp)
   12978:	05013423          	sd	a6,72(sp)
   1297c:	04013703          	ld	a4,64(sp)
   12980:	04813783          	ld	a5,72(sp)
   12984:	08013583          	ld	a1,128(sp)
   12988:	00e7853b          	addw	a0,a5,a4
   1298c:	1e00f0ef          	jal	ra,21b6c <__muldi3>
   12990:	01a5073b          	addw	a4,a0,s10
   12994:	00070d1b          	sext.w	s10,a4
   12998:	fffd4613          	not	a2,s10
   1299c:	43f65613          	srai	a2,a2,0x3f
   129a0:	00c77733          	and	a4,a4,a2
   129a4:	09013903          	ld	s2,144(sp)
   129a8:	00070c1b          	sext.w	s8,a4
   129ac:	f6cff06f          	j	12118 <_vfprintf_r+0x1cd4>
   129b0:	0006c703          	lbu	a4,0(a3)
   129b4:	0018081b          	addiw	a6,a6,1
   129b8:	fb1ff06f          	j	12968 <_vfprintf_r+0x2524>
   129bc:	05813703          	ld	a4,88(sp)
   129c0:	06600c93          	li	s9,102
   129c4:	00f706bb          	addw	a3,a4,a5
   129c8:	00668d3b          	addw	s10,a3,t1
   129cc:	d89ff06f          	j	12754 <_vfprintf_r+0x2310>
   129d0:	07000693          	li	a3,112
   129d4:	e4cff06f          	j	12020 <_vfprintf_r+0x1bdc>
   129d8:	00071c63          	bnez	a4,129f0 <_vfprintf_r+0x25ac>
   129dc:	09013903          	ld	s2,144(sp)
   129e0:	00100c13          	li	s8,1
   129e4:	06600c93          	li	s9,102
   129e8:	00100d13          	li	s10,1
   129ec:	b69ff06f          	j	12554 <_vfprintf_r+0x2110>
   129f0:	05813783          	ld	a5,88(sp)
   129f4:	09013903          	ld	s2,144(sp)
   129f8:	06600c93          	li	s9,102
   129fc:	0017871b          	addiw	a4,a5,1
   12a00:	0067073b          	addw	a4,a4,t1
   12a04:	00070d1b          	sext.w	s10,a4
   12a08:	fffd4613          	not	a2,s10
   12a0c:	43f65613          	srai	a2,a2,0x3f
   12a10:	00c77733          	and	a4,a4,a2
   12a14:	00070c1b          	sext.w	s8,a4
   12a18:	b3dff06f          	j	12554 <_vfprintf_r+0x2110>
   12a1c:	02013683          	ld	a3,32(sp)
   12a20:	0006a703          	lw	a4,0(a3)
   12a24:	00868693          	addi	a3,a3,8
   12a28:	00070313          	mv	t1,a4
   12a2c:	00075463          	bgez	a4,12a34 <_vfprintf_r+0x25f0>
   12a30:	fff00313          	li	t1,-1
   12a34:	0014ce03          	lbu	t3,1(s1)
   12a38:	00030a9b          	sext.w	s5,t1
   12a3c:	02d13023          	sd	a3,32(sp)
   12a40:	00078493          	mv	s1,a5
   12a44:	badfd06f          	j	105f0 <_vfprintf_r+0x1ac>
   12a48:	00200793          	li	a5,2
   12a4c:	06f13823          	sd	a5,112(sp)
   12a50:	e7cff06f          	j	120cc <_vfprintf_r+0x1c88>
   12a54:	04013423          	sd	zero,72(sp)
   12a58:	04013023          	sd	zero,64(sp)
   12a5c:	f21ff06f          	j	1297c <_vfprintf_r+0x2538>
   12a60:	00013703          	ld	a4,0(sp)
   12a64:	01075783          	lhu	a5,16(a4)
   12a68:	0407e793          	ori	a5,a5,64
   12a6c:	00f71823          	sh	a5,16(a4)
   12a70:	d49fd06f          	j	107b8 <_vfprintf_r+0x374>

0000000000012a74 <vfprintf>:
   12a74:	00050793          	mv	a5,a0
   12a78:	7581b503          	ld	a0,1880(gp) # 24d60 <_impure_ptr>
   12a7c:	00060693          	mv	a3,a2
   12a80:	00058613          	mv	a2,a1
   12a84:	00078593          	mv	a1,a5
   12a88:	9bdfd06f          	j	10444 <_vfprintf_r>

0000000000012a8c <__sbprintf>:
   12a8c:	01059783          	lh	a5,16(a1)
   12a90:	0125d703          	lhu	a4,18(a1)
   12a94:	0ac5a303          	lw	t1,172(a1)
   12a98:	ffd7f793          	andi	a5,a5,-3
   12a9c:	0107979b          	slliw	a5,a5,0x10
   12aa0:	0305b883          	ld	a7,48(a1)
   12aa4:	0405b803          	ld	a6,64(a1)
   12aa8:	0107171b          	slliw	a4,a4,0x10
   12aac:	0107d79b          	srliw	a5,a5,0x10
   12ab0:	b3010113          	addi	sp,sp,-1232
   12ab4:	00e7e7b3          	or	a5,a5,a4
   12ab8:	4c813023          	sd	s0,1216(sp)
   12abc:	40000713          	li	a4,1024
   12ac0:	00f12823          	sw	a5,16(sp)
   12ac4:	00058413          	mv	s0,a1
   12ac8:	0b010793          	addi	a5,sp,176
   12acc:	00010593          	mv	a1,sp
   12ad0:	4a913c23          	sd	s1,1208(sp)
   12ad4:	4b213823          	sd	s2,1200(sp)
   12ad8:	4c113423          	sd	ra,1224(sp)
   12adc:	00050913          	mv	s2,a0
   12ae0:	0a612623          	sw	t1,172(sp)
   12ae4:	03113823          	sd	a7,48(sp)
   12ae8:	05013023          	sd	a6,64(sp)
   12aec:	00f13023          	sd	a5,0(sp)
   12af0:	00f13c23          	sd	a5,24(sp)
   12af4:	00e12623          	sw	a4,12(sp)
   12af8:	02e12023          	sw	a4,32(sp)
   12afc:	02012423          	sw	zero,40(sp)
   12b00:	945fd0ef          	jal	ra,10444 <_vfprintf_r>
   12b04:	00050493          	mv	s1,a0
   12b08:	02055c63          	bgez	a0,12b40 <__sbprintf+0xb4>
   12b0c:	01015783          	lhu	a5,16(sp)
   12b10:	0407f793          	andi	a5,a5,64
   12b14:	00078863          	beqz	a5,12b24 <__sbprintf+0x98>
   12b18:	01045783          	lhu	a5,16(s0)
   12b1c:	0407e793          	ori	a5,a5,64
   12b20:	00f41823          	sh	a5,16(s0)
   12b24:	4c813083          	ld	ra,1224(sp)
   12b28:	4c013403          	ld	s0,1216(sp)
   12b2c:	4b013903          	ld	s2,1200(sp)
   12b30:	00048513          	mv	a0,s1
   12b34:	4b813483          	ld	s1,1208(sp)
   12b38:	4d010113          	addi	sp,sp,1232
   12b3c:	00008067          	ret
   12b40:	00010593          	mv	a1,sp
   12b44:	00090513          	mv	a0,s2
   12b48:	4c4000ef          	jal	ra,1300c <_fflush_r>
   12b4c:	fc0500e3          	beqz	a0,12b0c <__sbprintf+0x80>
   12b50:	fff00493          	li	s1,-1
   12b54:	fb9ff06f          	j	12b0c <__sbprintf+0x80>

0000000000012b58 <__swsetup_r>:
   12b58:	7581b783          	ld	a5,1880(gp) # 24d60 <_impure_ptr>
   12b5c:	fe010113          	addi	sp,sp,-32
   12b60:	00813823          	sd	s0,16(sp)
   12b64:	00913423          	sd	s1,8(sp)
   12b68:	00113c23          	sd	ra,24(sp)
   12b6c:	00050493          	mv	s1,a0
   12b70:	00058413          	mv	s0,a1
   12b74:	00078663          	beqz	a5,12b80 <__swsetup_r+0x28>
   12b78:	0507a703          	lw	a4,80(a5)
   12b7c:	08070063          	beqz	a4,12bfc <__swsetup_r+0xa4>
   12b80:	01041783          	lh	a5,16(s0)
   12b84:	0087f713          	andi	a4,a5,8
   12b88:	08070463          	beqz	a4,12c10 <__swsetup_r+0xb8>
   12b8c:	01843703          	ld	a4,24(s0)
   12b90:	0a070063          	beqz	a4,12c30 <__swsetup_r+0xd8>
   12b94:	0017f693          	andi	a3,a5,1
   12b98:	02068863          	beqz	a3,12bc8 <__swsetup_r+0x70>
   12b9c:	02042683          	lw	a3,32(s0)
   12ba0:	00042623          	sw	zero,12(s0)
   12ba4:	00000513          	li	a0,0
   12ba8:	40d006bb          	negw	a3,a3
   12bac:	02d42423          	sw	a3,40(s0)
   12bb0:	02070a63          	beqz	a4,12be4 <__swsetup_r+0x8c>
   12bb4:	01813083          	ld	ra,24(sp)
   12bb8:	01013403          	ld	s0,16(sp)
   12bbc:	00813483          	ld	s1,8(sp)
   12bc0:	02010113          	addi	sp,sp,32
   12bc4:	00008067          	ret
   12bc8:	0027f693          	andi	a3,a5,2
   12bcc:	00000613          	li	a2,0
   12bd0:	00069463          	bnez	a3,12bd8 <__swsetup_r+0x80>
   12bd4:	02042603          	lw	a2,32(s0)
   12bd8:	00c42623          	sw	a2,12(s0)
   12bdc:	00000513          	li	a0,0
   12be0:	fc071ae3          	bnez	a4,12bb4 <__swsetup_r+0x5c>
   12be4:	0807f713          	andi	a4,a5,128
   12be8:	fc0706e3          	beqz	a4,12bb4 <__swsetup_r+0x5c>
   12bec:	0407e793          	ori	a5,a5,64
   12bf0:	00f41823          	sh	a5,16(s0)
   12bf4:	fff00513          	li	a0,-1
   12bf8:	fbdff06f          	j	12bb4 <__swsetup_r+0x5c>
   12bfc:	00078513          	mv	a0,a5
   12c00:	039000ef          	jal	ra,13438 <__sinit>
   12c04:	01041783          	lh	a5,16(s0)
   12c08:	0087f713          	andi	a4,a5,8
   12c0c:	f80710e3          	bnez	a4,12b8c <__swsetup_r+0x34>
   12c10:	0107f713          	andi	a4,a5,16
   12c14:	06070a63          	beqz	a4,12c88 <__swsetup_r+0x130>
   12c18:	0047f713          	andi	a4,a5,4
   12c1c:	02071c63          	bnez	a4,12c54 <__swsetup_r+0xfc>
   12c20:	01843703          	ld	a4,24(s0)
   12c24:	0087e793          	ori	a5,a5,8
   12c28:	00f41823          	sh	a5,16(s0)
   12c2c:	f60714e3          	bnez	a4,12b94 <__swsetup_r+0x3c>
   12c30:	2807f693          	andi	a3,a5,640
   12c34:	20000613          	li	a2,512
   12c38:	f4c68ee3          	beq	a3,a2,12b94 <__swsetup_r+0x3c>
   12c3c:	00040593          	mv	a1,s0
   12c40:	00048513          	mv	a0,s1
   12c44:	425030ef          	jal	ra,16868 <__smakebuf_r>
   12c48:	01041783          	lh	a5,16(s0)
   12c4c:	01843703          	ld	a4,24(s0)
   12c50:	f45ff06f          	j	12b94 <__swsetup_r+0x3c>
   12c54:	05843583          	ld	a1,88(s0)
   12c58:	00058e63          	beqz	a1,12c74 <__swsetup_r+0x11c>
   12c5c:	07440713          	addi	a4,s0,116
   12c60:	00e58863          	beq	a1,a4,12c70 <__swsetup_r+0x118>
   12c64:	00048513          	mv	a0,s1
   12c68:	1a9000ef          	jal	ra,13610 <_free_r>
   12c6c:	01041783          	lh	a5,16(s0)
   12c70:	04043c23          	sd	zero,88(s0)
   12c74:	01843703          	ld	a4,24(s0)
   12c78:	fdb7f793          	andi	a5,a5,-37
   12c7c:	00042423          	sw	zero,8(s0)
   12c80:	00e43023          	sd	a4,0(s0)
   12c84:	fa1ff06f          	j	12c24 <__swsetup_r+0xcc>
   12c88:	00900713          	li	a4,9
   12c8c:	00e4a023          	sw	a4,0(s1)
   12c90:	0407e793          	ori	a5,a5,64
   12c94:	f5dff06f          	j	12bf0 <__swsetup_r+0x98>

0000000000012c98 <__call_exitprocs>:
   12c98:	fb010113          	addi	sp,sp,-80
   12c9c:	03413023          	sd	s4,32(sp)
   12ca0:	7481ba03          	ld	s4,1864(gp) # 24d50 <_global_impure_ptr>
   12ca4:	03213823          	sd	s2,48(sp)
   12ca8:	04113423          	sd	ra,72(sp)
   12cac:	1f8a3903          	ld	s2,504(s4)
   12cb0:	04813023          	sd	s0,64(sp)
   12cb4:	02913c23          	sd	s1,56(sp)
   12cb8:	03313423          	sd	s3,40(sp)
   12cbc:	01513c23          	sd	s5,24(sp)
   12cc0:	01613823          	sd	s6,16(sp)
   12cc4:	01713423          	sd	s7,8(sp)
   12cc8:	01813023          	sd	s8,0(sp)
   12ccc:	04090063          	beqz	s2,12d0c <__call_exitprocs+0x74>
   12cd0:	00050b13          	mv	s6,a0
   12cd4:	00058b93          	mv	s7,a1
   12cd8:	00100a93          	li	s5,1
   12cdc:	fff00993          	li	s3,-1
   12ce0:	00892483          	lw	s1,8(s2)
   12ce4:	fff4841b          	addiw	s0,s1,-1
   12ce8:	02044263          	bltz	s0,12d0c <__call_exitprocs+0x74>
   12cec:	00349493          	slli	s1,s1,0x3
   12cf0:	009904b3          	add	s1,s2,s1
   12cf4:	040b8463          	beqz	s7,12d3c <__call_exitprocs+0xa4>
   12cf8:	2084b783          	ld	a5,520(s1)
   12cfc:	05778063          	beq	a5,s7,12d3c <__call_exitprocs+0xa4>
   12d00:	fff4041b          	addiw	s0,s0,-1
   12d04:	ff848493          	addi	s1,s1,-8
   12d08:	ff3416e3          	bne	s0,s3,12cf4 <__call_exitprocs+0x5c>
   12d0c:	04813083          	ld	ra,72(sp)
   12d10:	04013403          	ld	s0,64(sp)
   12d14:	03813483          	ld	s1,56(sp)
   12d18:	03013903          	ld	s2,48(sp)
   12d1c:	02813983          	ld	s3,40(sp)
   12d20:	02013a03          	ld	s4,32(sp)
   12d24:	01813a83          	ld	s5,24(sp)
   12d28:	01013b03          	ld	s6,16(sp)
   12d2c:	00813b83          	ld	s7,8(sp)
   12d30:	00013c03          	ld	s8,0(sp)
   12d34:	05010113          	addi	sp,sp,80
   12d38:	00008067          	ret
   12d3c:	00892783          	lw	a5,8(s2)
   12d40:	0084b703          	ld	a4,8(s1)
   12d44:	fff7879b          	addiw	a5,a5,-1
   12d48:	06878263          	beq	a5,s0,12dac <__call_exitprocs+0x114>
   12d4c:	0004b423          	sd	zero,8(s1)
   12d50:	fa0708e3          	beqz	a4,12d00 <__call_exitprocs+0x68>
   12d54:	31092783          	lw	a5,784(s2)
   12d58:	008a96bb          	sllw	a3,s5,s0
   12d5c:	00892c03          	lw	s8,8(s2)
   12d60:	00d7f7b3          	and	a5,a5,a3
   12d64:	0007879b          	sext.w	a5,a5
   12d68:	02079263          	bnez	a5,12d8c <__call_exitprocs+0xf4>
   12d6c:	000700e7          	jalr	a4
   12d70:	00892703          	lw	a4,8(s2)
   12d74:	1f8a3783          	ld	a5,504(s4)
   12d78:	01871463          	bne	a4,s8,12d80 <__call_exitprocs+0xe8>
   12d7c:	f92782e3          	beq	a5,s2,12d00 <__call_exitprocs+0x68>
   12d80:	f80786e3          	beqz	a5,12d0c <__call_exitprocs+0x74>
   12d84:	00078913          	mv	s2,a5
   12d88:	f59ff06f          	j	12ce0 <__call_exitprocs+0x48>
   12d8c:	31492783          	lw	a5,788(s2)
   12d90:	1084b583          	ld	a1,264(s1)
   12d94:	00d7f7b3          	and	a5,a5,a3
   12d98:	0007879b          	sext.w	a5,a5
   12d9c:	00079c63          	bnez	a5,12db4 <__call_exitprocs+0x11c>
   12da0:	000b0513          	mv	a0,s6
   12da4:	000700e7          	jalr	a4
   12da8:	fc9ff06f          	j	12d70 <__call_exitprocs+0xd8>
   12dac:	00892423          	sw	s0,8(s2)
   12db0:	fa1ff06f          	j	12d50 <__call_exitprocs+0xb8>
   12db4:	00058513          	mv	a0,a1
   12db8:	000700e7          	jalr	a4
   12dbc:	fb5ff06f          	j	12d70 <__call_exitprocs+0xd8>

0000000000012dc0 <__sflush_r>:
   12dc0:	01059783          	lh	a5,16(a1)
   12dc4:	fd010113          	addi	sp,sp,-48
   12dc8:	02813023          	sd	s0,32(sp)
   12dcc:	01313423          	sd	s3,8(sp)
   12dd0:	02113423          	sd	ra,40(sp)
   12dd4:	00913c23          	sd	s1,24(sp)
   12dd8:	01213823          	sd	s2,16(sp)
   12ddc:	0087f713          	andi	a4,a5,8
   12de0:	00058413          	mv	s0,a1
   12de4:	00050993          	mv	s3,a0
   12de8:	12071263          	bnez	a4,12f0c <__sflush_r+0x14c>
   12dec:	00001737          	lui	a4,0x1
   12df0:	80070713          	addi	a4,a4,-2048 # 800 <exit-0xf8e8>
   12df4:	0085a683          	lw	a3,8(a1)
   12df8:	00e7e733          	or	a4,a5,a4
   12dfc:	00e59823          	sh	a4,16(a1)
   12e00:	18d05863          	blez	a3,12f90 <__sflush_r+0x1d0>
   12e04:	04843803          	ld	a6,72(s0)
   12e08:	0e080263          	beqz	a6,12eec <__sflush_r+0x12c>
   12e0c:	00c7d793          	srli	a5,a5,0xc
   12e10:	0009a483          	lw	s1,0(s3)
   12e14:	0017f793          	andi	a5,a5,1
   12e18:	0009a023          	sw	zero,0(s3)
   12e1c:	03043583          	ld	a1,48(s0)
   12e20:	18079063          	bnez	a5,12fa0 <__sflush_r+0x1e0>
   12e24:	00000613          	li	a2,0
   12e28:	00100693          	li	a3,1
   12e2c:	00098513          	mv	a0,s3
   12e30:	000800e7          	jalr	a6
   12e34:	fff00793          	li	a5,-1
   12e38:	00050613          	mv	a2,a0
   12e3c:	1af50063          	beq	a0,a5,12fdc <__sflush_r+0x21c>
   12e40:	01041703          	lh	a4,16(s0)
   12e44:	04843803          	ld	a6,72(s0)
   12e48:	03043583          	ld	a1,48(s0)
   12e4c:	00477713          	andi	a4,a4,4
   12e50:	00070e63          	beqz	a4,12e6c <__sflush_r+0xac>
   12e54:	00842703          	lw	a4,8(s0)
   12e58:	05843783          	ld	a5,88(s0)
   12e5c:	40e60633          	sub	a2,a2,a4
   12e60:	00078663          	beqz	a5,12e6c <__sflush_r+0xac>
   12e64:	07042783          	lw	a5,112(s0)
   12e68:	40f60633          	sub	a2,a2,a5
   12e6c:	00000693          	li	a3,0
   12e70:	00098513          	mv	a0,s3
   12e74:	000800e7          	jalr	a6
   12e78:	fff00793          	li	a5,-1
   12e7c:	12f51663          	bne	a0,a5,12fa8 <__sflush_r+0x1e8>
   12e80:	0009a683          	lw	a3,0(s3)
   12e84:	01d00793          	li	a5,29
   12e88:	0cd7ee63          	bltu	a5,a3,12f64 <__sflush_r+0x1a4>
   12e8c:	dfc00737          	lui	a4,0xdfc00
   12e90:	ffe70713          	addi	a4,a4,-2 # ffffffffdfbffffe <__BSS_END__+0xffffffffdfbdb1f6>
   12e94:	40d75733          	sra	a4,a4,a3
   12e98:	00177713          	andi	a4,a4,1
   12e9c:	01041783          	lh	a5,16(s0)
   12ea0:	0c071463          	bnez	a4,12f68 <__sflush_r+0x1a8>
   12ea4:	01843603          	ld	a2,24(s0)
   12ea8:	fffff737          	lui	a4,0xfffff
   12eac:	7ff70713          	addi	a4,a4,2047 # fffffffffffff7ff <__BSS_END__+0xfffffffffffda9f7>
   12eb0:	00e7f733          	and	a4,a5,a4
   12eb4:	00c7d793          	srli	a5,a5,0xc
   12eb8:	00e41823          	sh	a4,16(s0)
   12ebc:	00042423          	sw	zero,8(s0)
   12ec0:	00c43023          	sd	a2,0(s0)
   12ec4:	0017f793          	andi	a5,a5,1
   12ec8:	12079c63          	bnez	a5,13000 <__sflush_r+0x240>
   12ecc:	05843583          	ld	a1,88(s0)
   12ed0:	0099a023          	sw	s1,0(s3)
   12ed4:	00058c63          	beqz	a1,12eec <__sflush_r+0x12c>
   12ed8:	07440793          	addi	a5,s0,116
   12edc:	00f58663          	beq	a1,a5,12ee8 <__sflush_r+0x128>
   12ee0:	00098513          	mv	a0,s3
   12ee4:	72c000ef          	jal	ra,13610 <_free_r>
   12ee8:	04043c23          	sd	zero,88(s0)
   12eec:	00000513          	li	a0,0
   12ef0:	02813083          	ld	ra,40(sp)
   12ef4:	02013403          	ld	s0,32(sp)
   12ef8:	01813483          	ld	s1,24(sp)
   12efc:	01013903          	ld	s2,16(sp)
   12f00:	00813983          	ld	s3,8(sp)
   12f04:	03010113          	addi	sp,sp,48
   12f08:	00008067          	ret
   12f0c:	0185b903          	ld	s2,24(a1)
   12f10:	fc090ee3          	beqz	s2,12eec <__sflush_r+0x12c>
   12f14:	0005b483          	ld	s1,0(a1)
   12f18:	0037f793          	andi	a5,a5,3
   12f1c:	0125b023          	sd	s2,0(a1)
   12f20:	412484bb          	subw	s1,s1,s2
   12f24:	00000713          	li	a4,0
   12f28:	00079463          	bnez	a5,12f30 <__sflush_r+0x170>
   12f2c:	0205a703          	lw	a4,32(a1)
   12f30:	00e42623          	sw	a4,12(s0)
   12f34:	00904863          	bgtz	s1,12f44 <__sflush_r+0x184>
   12f38:	fb5ff06f          	j	12eec <__sflush_r+0x12c>
   12f3c:	00a90933          	add	s2,s2,a0
   12f40:	fa9056e3          	blez	s1,12eec <__sflush_r+0x12c>
   12f44:	04043783          	ld	a5,64(s0)
   12f48:	03043583          	ld	a1,48(s0)
   12f4c:	00048693          	mv	a3,s1
   12f50:	00090613          	mv	a2,s2
   12f54:	00098513          	mv	a0,s3
   12f58:	000780e7          	jalr	a5
   12f5c:	40a484bb          	subw	s1,s1,a0
   12f60:	fca04ee3          	bgtz	a0,12f3c <__sflush_r+0x17c>
   12f64:	01041783          	lh	a5,16(s0)
   12f68:	0407e793          	ori	a5,a5,64
   12f6c:	02813083          	ld	ra,40(sp)
   12f70:	00f41823          	sh	a5,16(s0)
   12f74:	02013403          	ld	s0,32(sp)
   12f78:	01813483          	ld	s1,24(sp)
   12f7c:	01013903          	ld	s2,16(sp)
   12f80:	00813983          	ld	s3,8(sp)
   12f84:	fff00513          	li	a0,-1
   12f88:	03010113          	addi	sp,sp,48
   12f8c:	00008067          	ret
   12f90:	0705a683          	lw	a3,112(a1)
   12f94:	e6d048e3          	bgtz	a3,12e04 <__sflush_r+0x44>
   12f98:	00000513          	li	a0,0
   12f9c:	f55ff06f          	j	12ef0 <__sflush_r+0x130>
   12fa0:	09043603          	ld	a2,144(s0)
   12fa4:	ea9ff06f          	j	12e4c <__sflush_r+0x8c>
   12fa8:	01041783          	lh	a5,16(s0)
   12fac:	01843683          	ld	a3,24(s0)
   12fb0:	fffff737          	lui	a4,0xfffff
   12fb4:	7ff70713          	addi	a4,a4,2047 # fffffffffffff7ff <__BSS_END__+0xfffffffffffda9f7>
   12fb8:	00e7f733          	and	a4,a5,a4
   12fbc:	00c7d793          	srli	a5,a5,0xc
   12fc0:	00e41823          	sh	a4,16(s0)
   12fc4:	00042423          	sw	zero,8(s0)
   12fc8:	00d43023          	sd	a3,0(s0)
   12fcc:	0017f793          	andi	a5,a5,1
   12fd0:	ee078ee3          	beqz	a5,12ecc <__sflush_r+0x10c>
   12fd4:	08a43823          	sd	a0,144(s0)
   12fd8:	ef5ff06f          	j	12ecc <__sflush_r+0x10c>
   12fdc:	0009a783          	lw	a5,0(s3)
   12fe0:	e60780e3          	beqz	a5,12e40 <__sflush_r+0x80>
   12fe4:	01d00713          	li	a4,29
   12fe8:	00e78663          	beq	a5,a4,12ff4 <__sflush_r+0x234>
   12fec:	01600713          	li	a4,22
   12ff0:	f6e79ae3          	bne	a5,a4,12f64 <__sflush_r+0x1a4>
   12ff4:	0099a023          	sw	s1,0(s3)
   12ff8:	00000513          	li	a0,0
   12ffc:	ef5ff06f          	j	12ef0 <__sflush_r+0x130>
   13000:	ec0696e3          	bnez	a3,12ecc <__sflush_r+0x10c>
   13004:	08a43823          	sd	a0,144(s0)
   13008:	ec5ff06f          	j	12ecc <__sflush_r+0x10c>

000000000001300c <_fflush_r>:
   1300c:	fe010113          	addi	sp,sp,-32
   13010:	00813823          	sd	s0,16(sp)
   13014:	00113c23          	sd	ra,24(sp)
   13018:	00050413          	mv	s0,a0
   1301c:	00050663          	beqz	a0,13028 <_fflush_r+0x1c>
   13020:	05052783          	lw	a5,80(a0)
   13024:	02078063          	beqz	a5,13044 <_fflush_r+0x38>
   13028:	01059783          	lh	a5,16(a1)
   1302c:	02079663          	bnez	a5,13058 <_fflush_r+0x4c>
   13030:	01813083          	ld	ra,24(sp)
   13034:	01013403          	ld	s0,16(sp)
   13038:	00000513          	li	a0,0
   1303c:	02010113          	addi	sp,sp,32
   13040:	00008067          	ret
   13044:	00b13423          	sd	a1,8(sp)
   13048:	3f0000ef          	jal	ra,13438 <__sinit>
   1304c:	00813583          	ld	a1,8(sp)
   13050:	01059783          	lh	a5,16(a1)
   13054:	fc078ee3          	beqz	a5,13030 <_fflush_r+0x24>
   13058:	00040513          	mv	a0,s0
   1305c:	01013403          	ld	s0,16(sp)
   13060:	01813083          	ld	ra,24(sp)
   13064:	02010113          	addi	sp,sp,32
   13068:	d59ff06f          	j	12dc0 <__sflush_r>

000000000001306c <fflush>:
   1306c:	06050663          	beqz	a0,130d8 <fflush+0x6c>
   13070:	fe010113          	addi	sp,sp,-32
   13074:	00813823          	sd	s0,16(sp)
   13078:	00050413          	mv	s0,a0
   1307c:	7581b503          	ld	a0,1880(gp) # 24d60 <_impure_ptr>
   13080:	00113c23          	sd	ra,24(sp)
   13084:	00050663          	beqz	a0,13090 <fflush+0x24>
   13088:	05052783          	lw	a5,80(a0)
   1308c:	02078a63          	beqz	a5,130c0 <fflush+0x54>
   13090:	01041783          	lh	a5,16(s0)
   13094:	00079c63          	bnez	a5,130ac <fflush+0x40>
   13098:	01813083          	ld	ra,24(sp)
   1309c:	01013403          	ld	s0,16(sp)
   130a0:	00000513          	li	a0,0
   130a4:	02010113          	addi	sp,sp,32
   130a8:	00008067          	ret
   130ac:	00040593          	mv	a1,s0
   130b0:	01013403          	ld	s0,16(sp)
   130b4:	01813083          	ld	ra,24(sp)
   130b8:	02010113          	addi	sp,sp,32
   130bc:	d05ff06f          	j	12dc0 <__sflush_r>
   130c0:	00a13423          	sd	a0,8(sp)
   130c4:	374000ef          	jal	ra,13438 <__sinit>
   130c8:	01041783          	lh	a5,16(s0)
   130cc:	00813503          	ld	a0,8(sp)
   130d0:	fc0784e3          	beqz	a5,13098 <fflush+0x2c>
   130d4:	fd9ff06f          	j	130ac <fflush+0x40>
   130d8:	7481b503          	ld	a0,1864(gp) # 24d50 <_global_impure_ptr>
   130dc:	000135b7          	lui	a1,0x13
   130e0:	00c58593          	addi	a1,a1,12 # 1300c <_fflush_r>
   130e4:	10d0006f          	j	139f0 <_fwalk_reent>

00000000000130e8 <__fp_lock>:
   130e8:	00000513          	li	a0,0
   130ec:	00008067          	ret

00000000000130f0 <_cleanup_r>:
   130f0:	0001d5b7          	lui	a1,0x1d
   130f4:	bec58593          	addi	a1,a1,-1044 # 1cbec <_fclose_r>
   130f8:	0f90006f          	j	139f0 <_fwalk_reent>

00000000000130fc <__fp_unlock>:
   130fc:	00000513          	li	a0,0
   13100:	00008067          	ret

0000000000013104 <__sinit.part.0>:
   13104:	fc010113          	addi	sp,sp,-64
   13108:	000137b7          	lui	a5,0x13
   1310c:	02113c23          	sd	ra,56(sp)
   13110:	02813823          	sd	s0,48(sp)
   13114:	02913423          	sd	s1,40(sp)
   13118:	03213023          	sd	s2,32(sp)
   1311c:	01313c23          	sd	s3,24(sp)
   13120:	01413823          	sd	s4,16(sp)
   13124:	01513423          	sd	s5,8(sp)
   13128:	01613023          	sd	s6,0(sp)
   1312c:	00853403          	ld	s0,8(a0)
   13130:	0f078793          	addi	a5,a5,240 # 130f0 <_cleanup_r>
   13134:	04f53c23          	sd	a5,88(a0)
   13138:	53850713          	addi	a4,a0,1336
   1313c:	00300793          	li	a5,3
   13140:	52e53823          	sd	a4,1328(a0)
   13144:	52f52423          	sw	a5,1320(a0)
   13148:	52053023          	sd	zero,1312(a0)
   1314c:	00400793          	li	a5,4
   13150:	00050913          	mv	s2,a0
   13154:	00f42823          	sw	a5,16(s0)
   13158:	00800613          	li	a2,8
   1315c:	00000593          	li	a1,0
   13160:	00043023          	sd	zero,0(s0)
   13164:	00043423          	sd	zero,8(s0)
   13168:	0a042623          	sw	zero,172(s0)
   1316c:	00043c23          	sd	zero,24(s0)
   13170:	02042023          	sw	zero,32(s0)
   13174:	02042423          	sw	zero,40(s0)
   13178:	0a440513          	addi	a0,s0,164
   1317c:	960fd0ef          	jal	ra,102dc <memset>
   13180:	00019b37          	lui	s6,0x19
   13184:	01093483          	ld	s1,16(s2)
   13188:	00019ab7          	lui	s5,0x19
   1318c:	00019a37          	lui	s4,0x19
   13190:	000199b7          	lui	s3,0x19
   13194:	92cb0b13          	addi	s6,s6,-1748 # 1892c <__sread>
   13198:	990a8a93          	addi	s5,s5,-1648 # 18990 <__swrite>
   1319c:	a18a0a13          	addi	s4,s4,-1512 # 18a18 <__sseek>
   131a0:	a9098993          	addi	s3,s3,-1392 # 18a90 <__sclose>
   131a4:	000107b7          	lui	a5,0x10
   131a8:	03643c23          	sd	s6,56(s0)
   131ac:	05543023          	sd	s5,64(s0)
   131b0:	05443423          	sd	s4,72(s0)
   131b4:	05343823          	sd	s3,80(s0)
   131b8:	02843823          	sd	s0,48(s0)
   131bc:	00978793          	addi	a5,a5,9 # 10009 <exit-0xdf>
   131c0:	00f4a823          	sw	a5,16(s1)
   131c4:	00800613          	li	a2,8
   131c8:	00000593          	li	a1,0
   131cc:	0004b023          	sd	zero,0(s1)
   131d0:	0004b423          	sd	zero,8(s1)
   131d4:	0a04a623          	sw	zero,172(s1)
   131d8:	0004bc23          	sd	zero,24(s1)
   131dc:	0204a023          	sw	zero,32(s1)
   131e0:	0204a423          	sw	zero,40(s1)
   131e4:	0a448513          	addi	a0,s1,164
   131e8:	8f4fd0ef          	jal	ra,102dc <memset>
   131ec:	01893403          	ld	s0,24(s2)
   131f0:	000207b7          	lui	a5,0x20
   131f4:	0364bc23          	sd	s6,56(s1)
   131f8:	0554b023          	sd	s5,64(s1)
   131fc:	0544b423          	sd	s4,72(s1)
   13200:	0534b823          	sd	s3,80(s1)
   13204:	0294b823          	sd	s1,48(s1)
   13208:	01278793          	addi	a5,a5,18 # 20012 <__divdf3+0x236>
   1320c:	00f42823          	sw	a5,16(s0)
   13210:	00043023          	sd	zero,0(s0)
   13214:	00043423          	sd	zero,8(s0)
   13218:	0a042623          	sw	zero,172(s0)
   1321c:	00043c23          	sd	zero,24(s0)
   13220:	02042023          	sw	zero,32(s0)
   13224:	02042423          	sw	zero,40(s0)
   13228:	0a440513          	addi	a0,s0,164
   1322c:	00800613          	li	a2,8
   13230:	00000593          	li	a1,0
   13234:	8a8fd0ef          	jal	ra,102dc <memset>
   13238:	03813083          	ld	ra,56(sp)
   1323c:	03643c23          	sd	s6,56(s0)
   13240:	05543023          	sd	s5,64(s0)
   13244:	05443423          	sd	s4,72(s0)
   13248:	05343823          	sd	s3,80(s0)
   1324c:	02843823          	sd	s0,48(s0)
   13250:	03013403          	ld	s0,48(sp)
   13254:	00100793          	li	a5,1
   13258:	04f92823          	sw	a5,80(s2)
   1325c:	02813483          	ld	s1,40(sp)
   13260:	02013903          	ld	s2,32(sp)
   13264:	01813983          	ld	s3,24(sp)
   13268:	01013a03          	ld	s4,16(sp)
   1326c:	00813a83          	ld	s5,8(sp)
   13270:	00013b03          	ld	s6,0(sp)
   13274:	04010113          	addi	sp,sp,64
   13278:	00008067          	ret

000000000001327c <__sfmoreglue>:
   1327c:	fe010113          	addi	sp,sp,-32
   13280:	fff5879b          	addiw	a5,a1,-1
   13284:	00813823          	sd	s0,16(sp)
   13288:	00179413          	slli	s0,a5,0x1
   1328c:	00f40433          	add	s0,s0,a5
   13290:	00241413          	slli	s0,s0,0x2
   13294:	40f40433          	sub	s0,s0,a5
   13298:	00441413          	slli	s0,s0,0x4
   1329c:	01213023          	sd	s2,0(sp)
   132a0:	00058913          	mv	s2,a1
   132a4:	0c840593          	addi	a1,s0,200
   132a8:	00913423          	sd	s1,8(sp)
   132ac:	00113c23          	sd	ra,24(sp)
   132b0:	021030ef          	jal	ra,16ad0 <_malloc_r>
   132b4:	00050493          	mv	s1,a0
   132b8:	02050063          	beqz	a0,132d8 <__sfmoreglue+0x5c>
   132bc:	01850513          	addi	a0,a0,24
   132c0:	0004b023          	sd	zero,0(s1)
   132c4:	0124a423          	sw	s2,8(s1)
   132c8:	00a4b823          	sd	a0,16(s1)
   132cc:	0b040613          	addi	a2,s0,176
   132d0:	00000593          	li	a1,0
   132d4:	808fd0ef          	jal	ra,102dc <memset>
   132d8:	01813083          	ld	ra,24(sp)
   132dc:	01013403          	ld	s0,16(sp)
   132e0:	00013903          	ld	s2,0(sp)
   132e4:	00048513          	mv	a0,s1
   132e8:	00813483          	ld	s1,8(sp)
   132ec:	02010113          	addi	sp,sp,32
   132f0:	00008067          	ret

00000000000132f4 <__sfp>:
   132f4:	fe010113          	addi	sp,sp,-32
   132f8:	01213023          	sd	s2,0(sp)
   132fc:	7481b903          	ld	s2,1864(gp) # 24d50 <_global_impure_ptr>
   13300:	00913423          	sd	s1,8(sp)
   13304:	00113c23          	sd	ra,24(sp)
   13308:	05092783          	lw	a5,80(s2)
   1330c:	00813823          	sd	s0,16(sp)
   13310:	00050493          	mv	s1,a0
   13314:	0a078c63          	beqz	a5,133cc <__sfp+0xd8>
   13318:	52090913          	addi	s2,s2,1312
   1331c:	00892703          	lw	a4,8(s2)
   13320:	01093403          	ld	s0,16(s2)
   13324:	08e05c63          	blez	a4,133bc <__sfp+0xc8>
   13328:	02071713          	slli	a4,a4,0x20
   1332c:	02075713          	srli	a4,a4,0x20
   13330:	00171793          	slli	a5,a4,0x1
   13334:	00e787b3          	add	a5,a5,a4
   13338:	00279793          	slli	a5,a5,0x2
   1333c:	40e787b3          	sub	a5,a5,a4
   13340:	00479793          	slli	a5,a5,0x4
   13344:	00f407b3          	add	a5,s0,a5
   13348:	00c0006f          	j	13354 <__sfp+0x60>
   1334c:	0b040413          	addi	s0,s0,176
   13350:	06f40663          	beq	s0,a5,133bc <__sfp+0xc8>
   13354:	01041703          	lh	a4,16(s0)
   13358:	fe071ae3          	bnez	a4,1334c <__sfp+0x58>
   1335c:	ffff07b7          	lui	a5,0xffff0
   13360:	00178793          	addi	a5,a5,1 # ffffffffffff0001 <__BSS_END__+0xfffffffffffcb1f9>
   13364:	00f42823          	sw	a5,16(s0)
   13368:	0a042623          	sw	zero,172(s0)
   1336c:	00043023          	sd	zero,0(s0)
   13370:	00043423          	sd	zero,8(s0)
   13374:	00043c23          	sd	zero,24(s0)
   13378:	02042023          	sw	zero,32(s0)
   1337c:	02042423          	sw	zero,40(s0)
   13380:	00800613          	li	a2,8
   13384:	00000593          	li	a1,0
   13388:	0a440513          	addi	a0,s0,164
   1338c:	f51fc0ef          	jal	ra,102dc <memset>
   13390:	04043c23          	sd	zero,88(s0)
   13394:	06042023          	sw	zero,96(s0)
   13398:	06043c23          	sd	zero,120(s0)
   1339c:	08042023          	sw	zero,128(s0)
   133a0:	01813083          	ld	ra,24(sp)
   133a4:	00040513          	mv	a0,s0
   133a8:	01013403          	ld	s0,16(sp)
   133ac:	00813483          	ld	s1,8(sp)
   133b0:	00013903          	ld	s2,0(sp)
   133b4:	02010113          	addi	sp,sp,32
   133b8:	00008067          	ret
   133bc:	00093403          	ld	s0,0(s2)
   133c0:	00040c63          	beqz	s0,133d8 <__sfp+0xe4>
   133c4:	00040913          	mv	s2,s0
   133c8:	f55ff06f          	j	1331c <__sfp+0x28>
   133cc:	00090513          	mv	a0,s2
   133d0:	d35ff0ef          	jal	ra,13104 <__sinit.part.0>
   133d4:	f45ff06f          	j	13318 <__sfp+0x24>
   133d8:	2d800593          	li	a1,728
   133dc:	00048513          	mv	a0,s1
   133e0:	6f0030ef          	jal	ra,16ad0 <_malloc_r>
   133e4:	00050413          	mv	s0,a0
   133e8:	02050863          	beqz	a0,13418 <__sfp+0x124>
   133ec:	01850513          	addi	a0,a0,24
   133f0:	00400793          	li	a5,4
   133f4:	00043023          	sd	zero,0(s0)
   133f8:	00f42423          	sw	a5,8(s0)
   133fc:	00a43823          	sd	a0,16(s0)
   13400:	2c000613          	li	a2,704
   13404:	00000593          	li	a1,0
   13408:	ed5fc0ef          	jal	ra,102dc <memset>
   1340c:	00893023          	sd	s0,0(s2)
   13410:	00040913          	mv	s2,s0
   13414:	f09ff06f          	j	1331c <__sfp+0x28>
   13418:	00093023          	sd	zero,0(s2)
   1341c:	00c00793          	li	a5,12
   13420:	00f4a023          	sw	a5,0(s1)
   13424:	f7dff06f          	j	133a0 <__sfp+0xac>

0000000000013428 <_cleanup>:
   13428:	7481b503          	ld	a0,1864(gp) # 24d50 <_global_impure_ptr>
   1342c:	0001d5b7          	lui	a1,0x1d
   13430:	bec58593          	addi	a1,a1,-1044 # 1cbec <_fclose_r>
   13434:	5bc0006f          	j	139f0 <_fwalk_reent>

0000000000013438 <__sinit>:
   13438:	05052783          	lw	a5,80(a0)
   1343c:	00078463          	beqz	a5,13444 <__sinit+0xc>
   13440:	00008067          	ret
   13444:	cc1ff06f          	j	13104 <__sinit.part.0>

0000000000013448 <__sfp_lock_acquire>:
   13448:	00008067          	ret

000000000001344c <__sfp_lock_release>:
   1344c:	00008067          	ret

0000000000013450 <__sinit_lock_acquire>:
   13450:	00008067          	ret

0000000000013454 <__sinit_lock_release>:
   13454:	00008067          	ret

0000000000013458 <__fp_lock_all>:
   13458:	7581b503          	ld	a0,1880(gp) # 24d60 <_impure_ptr>
   1345c:	000135b7          	lui	a1,0x13
   13460:	0e858593          	addi	a1,a1,232 # 130e8 <__fp_lock>
   13464:	4cc0006f          	j	13930 <_fwalk>

0000000000013468 <__fp_unlock_all>:
   13468:	7581b503          	ld	a0,1880(gp) # 24d60 <_impure_ptr>
   1346c:	000135b7          	lui	a1,0x13
   13470:	0fc58593          	addi	a1,a1,252 # 130fc <__fp_unlock>
   13474:	4bc0006f          	j	13930 <_fwalk>

0000000000013478 <__libc_fini_array>:
   13478:	fe010113          	addi	sp,sp,-32
   1347c:	00813823          	sd	s0,16(sp)
   13480:	000247b7          	lui	a5,0x24
   13484:	00024437          	lui	s0,0x24
   13488:	c1878793          	addi	a5,a5,-1000 # 23c18 <__do_global_dtors_aux_fini_array_entry>
   1348c:	c2040413          	addi	s0,s0,-992 # 23c20 <impure_data>
   13490:	40f40433          	sub	s0,s0,a5
   13494:	00913423          	sd	s1,8(sp)
   13498:	00113c23          	sd	ra,24(sp)
   1349c:	40345493          	srai	s1,s0,0x3
   134a0:	02048063          	beqz	s1,134c0 <__libc_fini_array+0x48>
   134a4:	ff840413          	addi	s0,s0,-8
   134a8:	00f40433          	add	s0,s0,a5
   134ac:	00043783          	ld	a5,0(s0)
   134b0:	fff48493          	addi	s1,s1,-1
   134b4:	ff840413          	addi	s0,s0,-8
   134b8:	000780e7          	jalr	a5
   134bc:	fe0498e3          	bnez	s1,134ac <__libc_fini_array+0x34>
   134c0:	01813083          	ld	ra,24(sp)
   134c4:	01013403          	ld	s0,16(sp)
   134c8:	00813483          	ld	s1,8(sp)
   134cc:	02010113          	addi	sp,sp,32
   134d0:	00008067          	ret

00000000000134d4 <_malloc_trim_r>:
   134d4:	fd010113          	addi	sp,sp,-48
   134d8:	01313423          	sd	s3,8(sp)
   134dc:	000249b7          	lui	s3,0x24
   134e0:	02813023          	sd	s0,32(sp)
   134e4:	00913c23          	sd	s1,24(sp)
   134e8:	01213823          	sd	s2,16(sp)
   134ec:	01413023          	sd	s4,0(sp)
   134f0:	02113423          	sd	ra,40(sp)
   134f4:	00058a13          	mv	s4,a1
   134f8:	00050913          	mv	s2,a0
   134fc:	51098993          	addi	s3,s3,1296 # 24510 <__malloc_av_>
   13500:	6e1030ef          	jal	ra,173e0 <__malloc_lock>
   13504:	0109b703          	ld	a4,16(s3)
   13508:	000017b7          	lui	a5,0x1
   1350c:	fdf78413          	addi	s0,a5,-33 # fdf <exit-0xf109>
   13510:	00873483          	ld	s1,8(a4)
   13514:	ffc4f493          	andi	s1,s1,-4
   13518:	00848433          	add	s0,s1,s0
   1351c:	41440433          	sub	s0,s0,s4
   13520:	00c45413          	srli	s0,s0,0xc
   13524:	fff40413          	addi	s0,s0,-1
   13528:	00c41413          	slli	s0,s0,0xc
   1352c:	00f44e63          	blt	s0,a5,13548 <_malloc_trim_r+0x74>
   13530:	00000593          	li	a1,0
   13534:	00090513          	mv	a0,s2
   13538:	1ec050ef          	jal	ra,18724 <_sbrk_r>
   1353c:	0109b783          	ld	a5,16(s3)
   13540:	009787b3          	add	a5,a5,s1
   13544:	02f50863          	beq	a0,a5,13574 <_malloc_trim_r+0xa0>
   13548:	00090513          	mv	a0,s2
   1354c:	699030ef          	jal	ra,173e4 <__malloc_unlock>
   13550:	02813083          	ld	ra,40(sp)
   13554:	02013403          	ld	s0,32(sp)
   13558:	01813483          	ld	s1,24(sp)
   1355c:	01013903          	ld	s2,16(sp)
   13560:	00813983          	ld	s3,8(sp)
   13564:	00013a03          	ld	s4,0(sp)
   13568:	00000513          	li	a0,0
   1356c:	03010113          	addi	sp,sp,48
   13570:	00008067          	ret
   13574:	408005b3          	neg	a1,s0
   13578:	00090513          	mv	a0,s2
   1357c:	1a8050ef          	jal	ra,18724 <_sbrk_r>
   13580:	fff00793          	li	a5,-1
   13584:	04f50a63          	beq	a0,a5,135d8 <_malloc_trim_r+0x104>
   13588:	000257b7          	lui	a5,0x25
   1358c:	de078793          	addi	a5,a5,-544 # 24de0 <__malloc_current_mallinfo>
   13590:	0007a703          	lw	a4,0(a5)
   13594:	0109b683          	ld	a3,16(s3)
   13598:	408484b3          	sub	s1,s1,s0
   1359c:	0014e493          	ori	s1,s1,1
   135a0:	4087073b          	subw	a4,a4,s0
   135a4:	00090513          	mv	a0,s2
   135a8:	0096b423          	sd	s1,8(a3)
   135ac:	00e7a023          	sw	a4,0(a5)
   135b0:	635030ef          	jal	ra,173e4 <__malloc_unlock>
   135b4:	02813083          	ld	ra,40(sp)
   135b8:	02013403          	ld	s0,32(sp)
   135bc:	01813483          	ld	s1,24(sp)
   135c0:	01013903          	ld	s2,16(sp)
   135c4:	00813983          	ld	s3,8(sp)
   135c8:	00013a03          	ld	s4,0(sp)
   135cc:	00100513          	li	a0,1
   135d0:	03010113          	addi	sp,sp,48
   135d4:	00008067          	ret
   135d8:	00000593          	li	a1,0
   135dc:	00090513          	mv	a0,s2
   135e0:	144050ef          	jal	ra,18724 <_sbrk_r>
   135e4:	0109b703          	ld	a4,16(s3)
   135e8:	01f00693          	li	a3,31
   135ec:	40e507b3          	sub	a5,a0,a4
   135f0:	f4f6dce3          	bge	a3,a5,13548 <_malloc_trim_r+0x74>
   135f4:	7601b683          	ld	a3,1888(gp) # 24d68 <__malloc_sbrk_base>
   135f8:	0017e793          	ori	a5,a5,1
   135fc:	00f73423          	sd	a5,8(a4)
   13600:	40d50533          	sub	a0,a0,a3
   13604:	000256b7          	lui	a3,0x25
   13608:	dea6a023          	sw	a0,-544(a3) # 24de0 <__malloc_current_mallinfo>
   1360c:	f3dff06f          	j	13548 <_malloc_trim_r+0x74>

0000000000013610 <_free_r>:
   13610:	18058863          	beqz	a1,137a0 <_free_r+0x190>
   13614:	fe010113          	addi	sp,sp,-32
   13618:	00813823          	sd	s0,16(sp)
   1361c:	00913423          	sd	s1,8(sp)
   13620:	00058413          	mv	s0,a1
   13624:	00050493          	mv	s1,a0
   13628:	00113c23          	sd	ra,24(sp)
   1362c:	5b5030ef          	jal	ra,173e0 <__malloc_lock>
   13630:	ff843503          	ld	a0,-8(s0)
   13634:	ff040713          	addi	a4,s0,-16
   13638:	000245b7          	lui	a1,0x24
   1363c:	ffe57793          	andi	a5,a0,-2
   13640:	00f70633          	add	a2,a4,a5
   13644:	51058593          	addi	a1,a1,1296 # 24510 <__malloc_av_>
   13648:	00863683          	ld	a3,8(a2)
   1364c:	0105b803          	ld	a6,16(a1)
   13650:	ffc6f693          	andi	a3,a3,-4
   13654:	1ac80863          	beq	a6,a2,13804 <_free_r+0x1f4>
   13658:	00d63423          	sd	a3,8(a2)
   1365c:	00157513          	andi	a0,a0,1
   13660:	00d60833          	add	a6,a2,a3
   13664:	0a051463          	bnez	a0,1370c <_free_r+0xfc>
   13668:	ff043303          	ld	t1,-16(s0)
   1366c:	00883803          	ld	a6,8(a6)
   13670:	00024537          	lui	a0,0x24
   13674:	40670733          	sub	a4,a4,t1
   13678:	01073883          	ld	a7,16(a4)
   1367c:	52050513          	addi	a0,a0,1312 # 24520 <__malloc_av_+0x10>
   13680:	006787b3          	add	a5,a5,t1
   13684:	00187813          	andi	a6,a6,1
   13688:	14a88863          	beq	a7,a0,137d8 <_free_r+0x1c8>
   1368c:	01873303          	ld	t1,24(a4)
   13690:	0068bc23          	sd	t1,24(a7)
   13694:	01133823          	sd	a7,16(t1)
   13698:	1a080c63          	beqz	a6,13850 <_free_r+0x240>
   1369c:	0017e693          	ori	a3,a5,1
   136a0:	00d73423          	sd	a3,8(a4)
   136a4:	00f63023          	sd	a5,0(a2)
   136a8:	1ff00693          	li	a3,511
   136ac:	08f6e063          	bltu	a3,a5,1372c <_free_r+0x11c>
   136b0:	0037d793          	srli	a5,a5,0x3
   136b4:	0017869b          	addiw	a3,a5,1
   136b8:	0016969b          	slliw	a3,a3,0x1
   136bc:	00369693          	slli	a3,a3,0x3
   136c0:	0085b803          	ld	a6,8(a1)
   136c4:	00d586b3          	add	a3,a1,a3
   136c8:	0006b503          	ld	a0,0(a3)
   136cc:	4027d61b          	sraiw	a2,a5,0x2
   136d0:	00100793          	li	a5,1
   136d4:	00c797b3          	sll	a5,a5,a2
   136d8:	0107e7b3          	or	a5,a5,a6
   136dc:	ff068613          	addi	a2,a3,-16
   136e0:	00c73c23          	sd	a2,24(a4)
   136e4:	00a73823          	sd	a0,16(a4)
   136e8:	00f5b423          	sd	a5,8(a1)
   136ec:	00e6b023          	sd	a4,0(a3)
   136f0:	00e53c23          	sd	a4,24(a0)
   136f4:	01013403          	ld	s0,16(sp)
   136f8:	01813083          	ld	ra,24(sp)
   136fc:	00048513          	mv	a0,s1
   13700:	00813483          	ld	s1,8(sp)
   13704:	02010113          	addi	sp,sp,32
   13708:	4dd0306f          	j	173e4 <__malloc_unlock>
   1370c:	00883503          	ld	a0,8(a6)
   13710:	00157513          	andi	a0,a0,1
   13714:	08050863          	beqz	a0,137a4 <_free_r+0x194>
   13718:	0017e693          	ori	a3,a5,1
   1371c:	fed43c23          	sd	a3,-8(s0)
   13720:	00f63023          	sd	a5,0(a2)
   13724:	1ff00693          	li	a3,511
   13728:	f8f6f4e3          	bgeu	a3,a5,136b0 <_free_r+0xa0>
   1372c:	0097d693          	srli	a3,a5,0x9
   13730:	00400613          	li	a2,4
   13734:	12d66263          	bltu	a2,a3,13858 <_free_r+0x248>
   13738:	0067d693          	srli	a3,a5,0x6
   1373c:	0396851b          	addiw	a0,a3,57
   13740:	0015151b          	slliw	a0,a0,0x1
   13744:	0386861b          	addiw	a2,a3,56
   13748:	00351513          	slli	a0,a0,0x3
   1374c:	00a58533          	add	a0,a1,a0
   13750:	00053683          	ld	a3,0(a0)
   13754:	ff050513          	addi	a0,a0,-16
   13758:	00d51863          	bne	a0,a3,13768 <_free_r+0x158>
   1375c:	15c0006f          	j	138b8 <_free_r+0x2a8>
   13760:	0106b683          	ld	a3,16(a3)
   13764:	00d50863          	beq	a0,a3,13774 <_free_r+0x164>
   13768:	0086b603          	ld	a2,8(a3)
   1376c:	ffc67613          	andi	a2,a2,-4
   13770:	fec7e8e3          	bltu	a5,a2,13760 <_free_r+0x150>
   13774:	0186b503          	ld	a0,24(a3)
   13778:	00a73c23          	sd	a0,24(a4)
   1377c:	00d73823          	sd	a3,16(a4)
   13780:	01013403          	ld	s0,16(sp)
   13784:	00e53823          	sd	a4,16(a0)
   13788:	01813083          	ld	ra,24(sp)
   1378c:	00048513          	mv	a0,s1
   13790:	00813483          	ld	s1,8(sp)
   13794:	00e6bc23          	sd	a4,24(a3)
   13798:	02010113          	addi	sp,sp,32
   1379c:	4490306f          	j	173e4 <__malloc_unlock>
   137a0:	00008067          	ret
   137a4:	00024537          	lui	a0,0x24
   137a8:	00d787b3          	add	a5,a5,a3
   137ac:	52050513          	addi	a0,a0,1312 # 24520 <__malloc_av_+0x10>
   137b0:	01063683          	ld	a3,16(a2)
   137b4:	0ea68063          	beq	a3,a0,13894 <_free_r+0x284>
   137b8:	01863803          	ld	a6,24(a2)
   137bc:	0017e513          	ori	a0,a5,1
   137c0:	00f70633          	add	a2,a4,a5
   137c4:	0106bc23          	sd	a6,24(a3)
   137c8:	00d83823          	sd	a3,16(a6)
   137cc:	00a73423          	sd	a0,8(a4)
   137d0:	00f63023          	sd	a5,0(a2)
   137d4:	ed5ff06f          	j	136a8 <_free_r+0x98>
   137d8:	14081463          	bnez	a6,13920 <_free_r+0x310>
   137dc:	01063583          	ld	a1,16(a2)
   137e0:	01863603          	ld	a2,24(a2)
   137e4:	00f686b3          	add	a3,a3,a5
   137e8:	0016e793          	ori	a5,a3,1
   137ec:	00c5bc23          	sd	a2,24(a1)
   137f0:	00b63823          	sd	a1,16(a2)
   137f4:	00f73423          	sd	a5,8(a4)
   137f8:	00d70733          	add	a4,a4,a3
   137fc:	00d73023          	sd	a3,0(a4)
   13800:	ef5ff06f          	j	136f4 <_free_r+0xe4>
   13804:	00157513          	andi	a0,a0,1
   13808:	00d786b3          	add	a3,a5,a3
   1380c:	02051063          	bnez	a0,1382c <_free_r+0x21c>
   13810:	ff043503          	ld	a0,-16(s0)
   13814:	40a70733          	sub	a4,a4,a0
   13818:	01873783          	ld	a5,24(a4)
   1381c:	01073603          	ld	a2,16(a4)
   13820:	00a686b3          	add	a3,a3,a0
   13824:	00f63c23          	sd	a5,24(a2)
   13828:	00c7b823          	sd	a2,16(a5)
   1382c:	0016e613          	ori	a2,a3,1
   13830:	7681b783          	ld	a5,1896(gp) # 24d70 <__malloc_trim_threshold>
   13834:	00c73423          	sd	a2,8(a4)
   13838:	00e5b823          	sd	a4,16(a1)
   1383c:	eaf6ece3          	bltu	a3,a5,136f4 <_free_r+0xe4>
   13840:	7881b583          	ld	a1,1928(gp) # 24d90 <__malloc_top_pad>
   13844:	00048513          	mv	a0,s1
   13848:	c8dff0ef          	jal	ra,134d4 <_malloc_trim_r>
   1384c:	ea9ff06f          	j	136f4 <_free_r+0xe4>
   13850:	00d787b3          	add	a5,a5,a3
   13854:	f5dff06f          	j	137b0 <_free_r+0x1a0>
   13858:	01400613          	li	a2,20
   1385c:	02d67263          	bgeu	a2,a3,13880 <_free_r+0x270>
   13860:	05400613          	li	a2,84
   13864:	06d66863          	bltu	a2,a3,138d4 <_free_r+0x2c4>
   13868:	00c7d693          	srli	a3,a5,0xc
   1386c:	06f6851b          	addiw	a0,a3,111
   13870:	0015151b          	slliw	a0,a0,0x1
   13874:	06e6861b          	addiw	a2,a3,110
   13878:	00351513          	slli	a0,a0,0x3
   1387c:	ed1ff06f          	j	1374c <_free_r+0x13c>
   13880:	05c6851b          	addiw	a0,a3,92
   13884:	0015151b          	slliw	a0,a0,0x1
   13888:	05b6861b          	addiw	a2,a3,91
   1388c:	00351513          	slli	a0,a0,0x3
   13890:	ebdff06f          	j	1374c <_free_r+0x13c>
   13894:	02e5b423          	sd	a4,40(a1)
   13898:	02e5b023          	sd	a4,32(a1)
   1389c:	0017e693          	ori	a3,a5,1
   138a0:	00a73c23          	sd	a0,24(a4)
   138a4:	00a73823          	sd	a0,16(a4)
   138a8:	00d73423          	sd	a3,8(a4)
   138ac:	00f70733          	add	a4,a4,a5
   138b0:	00f73023          	sd	a5,0(a4)
   138b4:	e41ff06f          	j	136f4 <_free_r+0xe4>
   138b8:	0085b803          	ld	a6,8(a1)
   138bc:	4026561b          	sraiw	a2,a2,0x2
   138c0:	00100793          	li	a5,1
   138c4:	00c797b3          	sll	a5,a5,a2
   138c8:	0107e7b3          	or	a5,a5,a6
   138cc:	00f5b423          	sd	a5,8(a1)
   138d0:	ea9ff06f          	j	13778 <_free_r+0x168>
   138d4:	15400613          	li	a2,340
   138d8:	00d66e63          	bltu	a2,a3,138f4 <_free_r+0x2e4>
   138dc:	00f7d693          	srli	a3,a5,0xf
   138e0:	0786851b          	addiw	a0,a3,120
   138e4:	0015151b          	slliw	a0,a0,0x1
   138e8:	0776861b          	addiw	a2,a3,119
   138ec:	00351513          	slli	a0,a0,0x3
   138f0:	e5dff06f          	j	1374c <_free_r+0x13c>
   138f4:	55400613          	li	a2,1364
   138f8:	00d66e63          	bltu	a2,a3,13914 <_free_r+0x304>
   138fc:	0127d693          	srli	a3,a5,0x12
   13900:	07d6851b          	addiw	a0,a3,125
   13904:	0015151b          	slliw	a0,a0,0x1
   13908:	07c6861b          	addiw	a2,a3,124
   1390c:	00351513          	slli	a0,a0,0x3
   13910:	e3dff06f          	j	1374c <_free_r+0x13c>
   13914:	7f000513          	li	a0,2032
   13918:	07e00613          	li	a2,126
   1391c:	e31ff06f          	j	1374c <_free_r+0x13c>
   13920:	0017e693          	ori	a3,a5,1
   13924:	00d73423          	sd	a3,8(a4)
   13928:	00f63023          	sd	a5,0(a2)
   1392c:	dc9ff06f          	j	136f4 <_free_r+0xe4>

0000000000013930 <_fwalk>:
   13930:	fc010113          	addi	sp,sp,-64
   13934:	03213023          	sd	s2,32(sp)
   13938:	01313c23          	sd	s3,24(sp)
   1393c:	01413823          	sd	s4,16(sp)
   13940:	01513423          	sd	s5,8(sp)
   13944:	01613023          	sd	s6,0(sp)
   13948:	02113c23          	sd	ra,56(sp)
   1394c:	02813823          	sd	s0,48(sp)
   13950:	02913423          	sd	s1,40(sp)
   13954:	00058a93          	mv	s5,a1
   13958:	52050993          	addi	s3,a0,1312
   1395c:	00000913          	li	s2,0
   13960:	00100b13          	li	s6,1
   13964:	fff00a13          	li	s4,-1
   13968:	0089a783          	lw	a5,8(s3)
   1396c:	0109b403          	ld	s0,16(s3)
   13970:	04f05663          	blez	a5,139bc <_fwalk+0x8c>
   13974:	02079793          	slli	a5,a5,0x20
   13978:	0207d793          	srli	a5,a5,0x20
   1397c:	00179493          	slli	s1,a5,0x1
   13980:	00f484b3          	add	s1,s1,a5
   13984:	00249493          	slli	s1,s1,0x2
   13988:	40f484b3          	sub	s1,s1,a5
   1398c:	00449493          	slli	s1,s1,0x4
   13990:	009404b3          	add	s1,s0,s1
   13994:	01045783          	lhu	a5,16(s0)
   13998:	00fb7e63          	bgeu	s6,a5,139b4 <_fwalk+0x84>
   1399c:	01241783          	lh	a5,18(s0)
   139a0:	00040513          	mv	a0,s0
   139a4:	01478863          	beq	a5,s4,139b4 <_fwalk+0x84>
   139a8:	000a80e7          	jalr	s5
   139ac:	01256933          	or	s2,a0,s2
   139b0:	0009091b          	sext.w	s2,s2
   139b4:	0b040413          	addi	s0,s0,176
   139b8:	fc849ee3          	bne	s1,s0,13994 <_fwalk+0x64>
   139bc:	0009b983          	ld	s3,0(s3)
   139c0:	fa0994e3          	bnez	s3,13968 <_fwalk+0x38>
   139c4:	03813083          	ld	ra,56(sp)
   139c8:	03013403          	ld	s0,48(sp)
   139cc:	02813483          	ld	s1,40(sp)
   139d0:	01813983          	ld	s3,24(sp)
   139d4:	01013a03          	ld	s4,16(sp)
   139d8:	00813a83          	ld	s5,8(sp)
   139dc:	00013b03          	ld	s6,0(sp)
   139e0:	00090513          	mv	a0,s2
   139e4:	02013903          	ld	s2,32(sp)
   139e8:	04010113          	addi	sp,sp,64
   139ec:	00008067          	ret

00000000000139f0 <_fwalk_reent>:
   139f0:	fb010113          	addi	sp,sp,-80
   139f4:	03213823          	sd	s2,48(sp)
   139f8:	03313423          	sd	s3,40(sp)
   139fc:	03413023          	sd	s4,32(sp)
   13a00:	01513c23          	sd	s5,24(sp)
   13a04:	01613823          	sd	s6,16(sp)
   13a08:	01713423          	sd	s7,8(sp)
   13a0c:	04113423          	sd	ra,72(sp)
   13a10:	04813023          	sd	s0,64(sp)
   13a14:	02913c23          	sd	s1,56(sp)
   13a18:	00050913          	mv	s2,a0
   13a1c:	00058a93          	mv	s5,a1
   13a20:	52050993          	addi	s3,a0,1312
   13a24:	00000b13          	li	s6,0
   13a28:	00100b93          	li	s7,1
   13a2c:	fff00a13          	li	s4,-1
   13a30:	0089a783          	lw	a5,8(s3)
   13a34:	0109b403          	ld	s0,16(s3)
   13a38:	04f05863          	blez	a5,13a88 <_fwalk_reent+0x98>
   13a3c:	02079793          	slli	a5,a5,0x20
   13a40:	0207d793          	srli	a5,a5,0x20
   13a44:	00179493          	slli	s1,a5,0x1
   13a48:	00f484b3          	add	s1,s1,a5
   13a4c:	00249493          	slli	s1,s1,0x2
   13a50:	40f484b3          	sub	s1,s1,a5
   13a54:	00449493          	slli	s1,s1,0x4
   13a58:	009404b3          	add	s1,s0,s1
   13a5c:	01045783          	lhu	a5,16(s0)
   13a60:	02fbf063          	bgeu	s7,a5,13a80 <_fwalk_reent+0x90>
   13a64:	01241783          	lh	a5,18(s0)
   13a68:	00040593          	mv	a1,s0
   13a6c:	00090513          	mv	a0,s2
   13a70:	01478863          	beq	a5,s4,13a80 <_fwalk_reent+0x90>
   13a74:	000a80e7          	jalr	s5
   13a78:	01656b33          	or	s6,a0,s6
   13a7c:	000b0b1b          	sext.w	s6,s6
   13a80:	0b040413          	addi	s0,s0,176
   13a84:	fc849ce3          	bne	s1,s0,13a5c <_fwalk_reent+0x6c>
   13a88:	0009b983          	ld	s3,0(s3)
   13a8c:	fa0992e3          	bnez	s3,13a30 <_fwalk_reent+0x40>
   13a90:	04813083          	ld	ra,72(sp)
   13a94:	04013403          	ld	s0,64(sp)
   13a98:	03813483          	ld	s1,56(sp)
   13a9c:	03013903          	ld	s2,48(sp)
   13aa0:	02813983          	ld	s3,40(sp)
   13aa4:	02013a03          	ld	s4,32(sp)
   13aa8:	01813a83          	ld	s5,24(sp)
   13aac:	00813b83          	ld	s7,8(sp)
   13ab0:	000b0513          	mv	a0,s6
   13ab4:	01013b03          	ld	s6,16(sp)
   13ab8:	05010113          	addi	sp,sp,80
   13abc:	00008067          	ret

0000000000013ac0 <eshdn1>:
   13ac0:	00450693          	addi	a3,a0,4
   13ac4:	00000713          	li	a4,0
   13ac8:	01a50513          	addi	a0,a0,26
   13acc:	ffff8837          	lui	a6,0xffff8
   13ad0:	0006d783          	lhu	a5,0(a3)
   13ad4:	0017f613          	andi	a2,a5,1
   13ad8:	00060463          	beqz	a2,13ae0 <eshdn1+0x20>
   13adc:	00176713          	ori	a4,a4,1
   13ae0:	00277613          	andi	a2,a4,2
   13ae4:	0017d793          	srli	a5,a5,0x1
   13ae8:	0017171b          	slliw	a4,a4,0x1
   13aec:	0107e5b3          	or	a1,a5,a6
   13af0:	00060663          	beqz	a2,13afc <eshdn1+0x3c>
   13af4:	03059793          	slli	a5,a1,0x30
   13af8:	0307d793          	srli	a5,a5,0x30
   13afc:	00f69023          	sh	a5,0(a3)
   13b00:	03071713          	slli	a4,a4,0x30
   13b04:	00268693          	addi	a3,a3,2
   13b08:	03075713          	srli	a4,a4,0x30
   13b0c:	fcd512e3          	bne	a0,a3,13ad0 <eshdn1+0x10>
   13b10:	00008067          	ret

0000000000013b14 <eshup1>:
   13b14:	01850693          	addi	a3,a0,24
   13b18:	00000713          	li	a4,0
   13b1c:	00250513          	addi	a0,a0,2
   13b20:	0006d783          	lhu	a5,0(a3)
   13b24:	00f7d613          	srli	a2,a5,0xf
   13b28:	0017979b          	slliw	a5,a5,0x1
   13b2c:	00060463          	beqz	a2,13b34 <eshup1+0x20>
   13b30:	00176713          	ori	a4,a4,1
   13b34:	00277613          	andi	a2,a4,2
   13b38:	03079793          	slli	a5,a5,0x30
   13b3c:	0017171b          	slliw	a4,a4,0x1
   13b40:	0307d793          	srli	a5,a5,0x30
   13b44:	00060463          	beqz	a2,13b4c <eshup1+0x38>
   13b48:	0017e793          	ori	a5,a5,1
   13b4c:	00f69023          	sh	a5,0(a3)
   13b50:	03071713          	slli	a4,a4,0x30
   13b54:	ffe68693          	addi	a3,a3,-2
   13b58:	03075713          	srli	a4,a4,0x30
   13b5c:	fcd512e3          	bne	a0,a3,13b20 <eshup1+0xc>
   13b60:	00008067          	ret

0000000000013b64 <m16m>:
   13b64:	fa010113          	addi	sp,sp,-96
   13b68:	03413823          	sd	s4,48(sp)
   13b6c:	00010a37          	lui	s4,0x10
   13b70:	04813823          	sd	s0,80(sp)
   13b74:	04913423          	sd	s1,72(sp)
   13b78:	05213023          	sd	s2,64(sp)
   13b7c:	03313c23          	sd	s3,56(sp)
   13b80:	03513423          	sd	s5,40(sp)
   13b84:	04113c23          	sd	ra,88(sp)
   13b88:	00050993          	mv	s3,a0
   13b8c:	00060493          	mv	s1,a2
   13b90:	00011b23          	sh	zero,22(sp)
   13b94:	00011c23          	sh	zero,24(sp)
   13b98:	01858913          	addi	s2,a1,24
   13b9c:	01810413          	addi	s0,sp,24
   13ba0:	00410a93          	addi	s5,sp,4
   13ba4:	fffa0a13          	addi	s4,s4,-1 # ffff <exit-0xe9>
   13ba8:	00095503          	lhu	a0,0(s2)
   13bac:	00098593          	mv	a1,s3
   13bb0:	ffe40413          	addi	s0,s0,-2
   13bb4:	ffe90913          	addi	s2,s2,-2
   13bb8:	02050a63          	beqz	a0,13bec <m16m+0x88>
   13bbc:	7b10d0ef          	jal	ra,21b6c <__muldi3>
   13bc0:	00245703          	lhu	a4,2(s0)
   13bc4:	00045683          	lhu	a3,0(s0)
   13bc8:	014577b3          	and	a5,a0,s4
   13bcc:	00e787b3          	add	a5,a5,a4
   13bd0:	01055513          	srli	a0,a0,0x10
   13bd4:	0107d713          	srli	a4,a5,0x10
   13bd8:	00d50533          	add	a0,a0,a3
   13bdc:	00e50533          	add	a0,a0,a4
   13be0:	00a41023          	sh	a0,0(s0)
   13be4:	00f41123          	sh	a5,2(s0)
   13be8:	0105551b          	srliw	a0,a0,0x10
   13bec:	fea41f23          	sh	a0,-2(s0)
   13bf0:	fb541ce3          	bne	s0,s5,13ba8 <m16m+0x44>
   13bf4:	00448613          	addi	a2,s1,4
   13bf8:	01a10713          	addi	a4,sp,26
   13bfc:	00045783          	lhu	a5,0(s0)
   13c00:	00240413          	addi	s0,s0,2
   13c04:	00260613          	addi	a2,a2,2
   13c08:	fef61f23          	sh	a5,-2(a2)
   13c0c:	fe8718e3          	bne	a4,s0,13bfc <m16m+0x98>
   13c10:	05813083          	ld	ra,88(sp)
   13c14:	05013403          	ld	s0,80(sp)
   13c18:	04813483          	ld	s1,72(sp)
   13c1c:	04013903          	ld	s2,64(sp)
   13c20:	03813983          	ld	s3,56(sp)
   13c24:	03013a03          	ld	s4,48(sp)
   13c28:	02813a83          	ld	s5,40(sp)
   13c2c:	06010113          	addi	sp,sp,96
   13c30:	00008067          	ret

0000000000013c34 <emovo.constprop.0>:
   13c34:	00055703          	lhu	a4,0(a0)
   13c38:	00255783          	lhu	a5,2(a0)
   13c3c:	00070663          	beqz	a4,13c48 <emovo.constprop.0+0x14>
   13c40:	00008737          	lui	a4,0x8
   13c44:	00e7e7b3          	or	a5,a5,a4
   13c48:	00f59923          	sh	a5,18(a1)
   13c4c:	00255703          	lhu	a4,2(a0)
   13c50:	000087b7          	lui	a5,0x8
   13c54:	fff78793          	addi	a5,a5,-1 # 7fff <exit-0x80e9>
   13c58:	02f70463          	beq	a4,a5,13c80 <emovo.constprop.0+0x4c>
   13c5c:	00650793          	addi	a5,a0,6
   13c60:	01058593          	addi	a1,a1,16
   13c64:	01850513          	addi	a0,a0,24
   13c68:	0007d703          	lhu	a4,0(a5)
   13c6c:	00278793          	addi	a5,a5,2
   13c70:	ffe58593          	addi	a1,a1,-2
   13c74:	00e59123          	sh	a4,2(a1)
   13c78:	fea798e3          	bne	a5,a0,13c68 <emovo.constprop.0+0x34>
   13c7c:	00008067          	ret
   13c80:	00650793          	addi	a5,a0,6
   13c84:	01a50513          	addi	a0,a0,26
   13c88:	0007d703          	lhu	a4,0(a5)
   13c8c:	00278793          	addi	a5,a5,2
   13c90:	02071a63          	bnez	a4,13cc4 <emovo.constprop.0+0x90>
   13c94:	fef51ae3          	bne	a0,a5,13c88 <emovo.constprop.0+0x54>
   13c98:	01258713          	addi	a4,a1,18
   13c9c:	00058793          	mv	a5,a1
   13ca0:	00278793          	addi	a5,a5,2
   13ca4:	fe079f23          	sh	zero,-2(a5)
   13ca8:	fee79ce3          	bne	a5,a4,13ca0 <emovo.constprop.0+0x6c>
   13cac:	0125d783          	lhu	a5,18(a1)
   13cb0:	00008737          	lui	a4,0x8
   13cb4:	fff70713          	addi	a4,a4,-1 # 7fff <exit-0x80e9>
   13cb8:	00e7e7b3          	or	a5,a5,a4
   13cbc:	00f59923          	sh	a5,18(a1)
   13cc0:	00008067          	ret
   13cc4:	01058713          	addi	a4,a1,16
   13cc8:	00058793          	mv	a5,a1
   13ccc:	00278793          	addi	a5,a5,2
   13cd0:	fe079f23          	sh	zero,-2(a5)
   13cd4:	fee79ce3          	bne	a5,a4,13ccc <emovo.constprop.0+0x98>
   13cd8:	ffffc7b7          	lui	a5,0xffffc
   13cdc:	00f59823          	sh	a5,16(a1)
   13ce0:	ffff87b7          	lui	a5,0xffff8
   13ce4:	fff7c793          	not	a5,a5
   13ce8:	00f59923          	sh	a5,18(a1)
   13cec:	00008067          	ret

0000000000013cf0 <enormlz>:
   13cf0:	00455783          	lhu	a5,4(a0)
   13cf4:	fe010113          	addi	sp,sp,-32
   13cf8:	00913423          	sd	s1,8(sp)
   13cfc:	00113c23          	sd	ra,24(sp)
   13d00:	00813823          	sd	s0,16(sp)
   13d04:	01213023          	sd	s2,0(sp)
   13d08:	00050493          	mv	s1,a0
   13d0c:	0c079663          	bnez	a5,13dd8 <enormlz+0xe8>
   13d10:	00655783          	lhu	a5,6(a0)
   13d14:	00000413          	li	s0,0
   13d18:	00f7d713          	srli	a4,a5,0xf
   13d1c:	0a071063          	bnez	a4,13dbc <enormlz+0xcc>
   13d20:	01850693          	addi	a3,a0,24
   13d24:	0a000613          	li	a2,160
   13d28:	02079663          	bnez	a5,13d54 <enormlz+0x64>
   13d2c:	00448793          	addi	a5,s1,4
   13d30:	0027d703          	lhu	a4,2(a5) # ffffffffffff8002 <__BSS_END__+0xfffffffffffd31fa>
   13d34:	00278793          	addi	a5,a5,2
   13d38:	fee79f23          	sh	a4,-2(a5)
   13d3c:	fed79ae3          	bne	a5,a3,13d30 <enormlz+0x40>
   13d40:	00049c23          	sh	zero,24(s1)
   13d44:	0104041b          	addiw	s0,s0,16
   13d48:	06c40a63          	beq	s0,a2,13dbc <enormlz+0xcc>
   13d4c:	0064d783          	lhu	a5,6(s1)
   13d50:	fc078ee3          	beqz	a5,13d2c <enormlz+0x3c>
   13d54:	0ff00713          	li	a4,255
   13d58:	04f76063          	bltu	a4,a5,13d98 <enormlz+0xa8>
   13d5c:	01848813          	addi	a6,s1,24
   13d60:	00248593          	addi	a1,s1,2
   13d64:	0ff00513          	li	a0,255
   13d68:	00000793          	li	a5,0
   13d6c:	00080713          	mv	a4,a6
   13d70:	00075683          	lhu	a3,0(a4)
   13d74:	ffe70713          	addi	a4,a4,-2
   13d78:	0086961b          	slliw	a2,a3,0x8
   13d7c:	00c7e7b3          	or	a5,a5,a2
   13d80:	00f71123          	sh	a5,2(a4)
   13d84:	0086d793          	srli	a5,a3,0x8
   13d88:	feb714e3          	bne	a4,a1,13d70 <enormlz+0x80>
   13d8c:	0064d783          	lhu	a5,6(s1)
   13d90:	0084041b          	addiw	s0,s0,8
   13d94:	fcf57ae3          	bgeu	a0,a5,13d68 <enormlz+0x78>
   13d98:	0a000913          	li	s2,160
   13d9c:	0140006f          	j	13db0 <enormlz+0xc0>
   13da0:	0014041b          	addiw	s0,s0,1
   13da4:	d71ff0ef          	jal	ra,13b14 <eshup1>
   13da8:	00894a63          	blt	s2,s0,13dbc <enormlz+0xcc>
   13dac:	0064d783          	lhu	a5,6(s1)
   13db0:	00f7d793          	srli	a5,a5,0xf
   13db4:	00048513          	mv	a0,s1
   13db8:	fe0784e3          	beqz	a5,13da0 <enormlz+0xb0>
   13dbc:	01813083          	ld	ra,24(sp)
   13dc0:	00040513          	mv	a0,s0
   13dc4:	01013403          	ld	s0,16(sp)
   13dc8:	00813483          	ld	s1,8(sp)
   13dcc:	00013903          	ld	s2,0(sp)
   13dd0:	02010113          	addi	sp,sp,32
   13dd4:	00008067          	ret
   13dd8:	0ff00713          	li	a4,255
   13ddc:	00000413          	li	s0,0
   13de0:	04f76063          	bltu	a4,a5,13e20 <enormlz+0x130>
   13de4:	f6f00913          	li	s2,-145
   13de8:	0140006f          	j	13dfc <enormlz+0x10c>
   13dec:	fff4041b          	addiw	s0,s0,-1
   13df0:	cd1ff0ef          	jal	ra,13ac0 <eshdn1>
   13df4:	fd2404e3          	beq	s0,s2,13dbc <enormlz+0xcc>
   13df8:	0044d783          	lhu	a5,4(s1)
   13dfc:	00048513          	mv	a0,s1
   13e00:	fe0796e3          	bnez	a5,13dec <enormlz+0xfc>
   13e04:	01813083          	ld	ra,24(sp)
   13e08:	00040513          	mv	a0,s0
   13e0c:	01013403          	ld	s0,16(sp)
   13e10:	00813483          	ld	s1,8(sp)
   13e14:	00013903          	ld	s2,0(sp)
   13e18:	02010113          	addi	sp,sp,32
   13e1c:	00008067          	ret
   13e20:	00450713          	addi	a4,a0,4
   13e24:	01a50593          	addi	a1,a0,26
   13e28:	00000793          	li	a5,0
   13e2c:	00075683          	lhu	a3,0(a4)
   13e30:	00270713          	addi	a4,a4,2
   13e34:	0086d61b          	srliw	a2,a3,0x8
   13e38:	00c7e7b3          	or	a5,a5,a2
   13e3c:	0086969b          	slliw	a3,a3,0x8
   13e40:	fef71f23          	sh	a5,-2(a4)
   13e44:	03069793          	slli	a5,a3,0x30
   13e48:	0307d793          	srli	a5,a5,0x30
   13e4c:	feb710e3          	bne	a4,a1,13e2c <enormlz+0x13c>
   13e50:	0044d783          	lhu	a5,4(s1)
   13e54:	ff800413          	li	s0,-8
   13e58:	f8dff06f          	j	13de4 <enormlz+0xf4>

0000000000013e5c <eshift.part.0>:
   13e5c:	fd010113          	addi	sp,sp,-48
   13e60:	02813023          	sd	s0,32(sp)
   13e64:	00913c23          	sd	s1,24(sp)
   13e68:	02113423          	sd	ra,40(sp)
   13e6c:	01213823          	sd	s2,16(sp)
   13e70:	01313423          	sd	s3,8(sp)
   13e74:	00058493          	mv	s1,a1
   13e78:	00050413          	mv	s0,a0
   13e7c:	0a05c463          	bltz	a1,13f24 <eshift.part.0+0xc8>
   13e80:	00f00793          	li	a5,15
   13e84:	00058613          	mv	a2,a1
   13e88:	00450513          	addi	a0,a0,4
   13e8c:	01840693          	addi	a3,s0,24
   13e90:	00f00593          	li	a1,15
   13e94:	0297d463          	bge	a5,s1,13ebc <eshift.part.0+0x60>
   13e98:	00050793          	mv	a5,a0
   13e9c:	0027d703          	lhu	a4,2(a5)
   13ea0:	00278793          	addi	a5,a5,2
   13ea4:	fee79f23          	sh	a4,-2(a5)
   13ea8:	fed79ae3          	bne	a5,a3,13e9c <eshift.part.0+0x40>
   13eac:	00041c23          	sh	zero,24(s0)
   13eb0:	ff06061b          	addiw	a2,a2,-16
   13eb4:	fec5c2e3          	blt	a1,a2,13e98 <eshift.part.0+0x3c>
   13eb8:	00f4f493          	andi	s1,s1,15
   13ebc:	00700793          	li	a5,7
   13ec0:	0297d863          	bge	a5,s1,13ef0 <eshift.part.0+0x94>
   13ec4:	01840713          	addi	a4,s0,24
   13ec8:	00240593          	addi	a1,s0,2
   13ecc:	00000793          	li	a5,0
   13ed0:	00075683          	lhu	a3,0(a4)
   13ed4:	ffe70713          	addi	a4,a4,-2
   13ed8:	0086961b          	slliw	a2,a3,0x8
   13edc:	00c7e7b3          	or	a5,a5,a2
   13ee0:	00f71123          	sh	a5,2(a4)
   13ee4:	0086d793          	srli	a5,a3,0x8
   13ee8:	feb714e3          	bne	a4,a1,13ed0 <eshift.part.0+0x74>
   13eec:	ff84849b          	addiw	s1,s1,-8
   13ef0:	00048a63          	beqz	s1,13f04 <eshift.part.0+0xa8>
   13ef4:	fff4849b          	addiw	s1,s1,-1
   13ef8:	00040513          	mv	a0,s0
   13efc:	c19ff0ef          	jal	ra,13b14 <eshup1>
   13f00:	fe049ae3          	bnez	s1,13ef4 <eshift.part.0+0x98>
   13f04:	00000513          	li	a0,0
   13f08:	02813083          	ld	ra,40(sp)
   13f0c:	02013403          	ld	s0,32(sp)
   13f10:	01813483          	ld	s1,24(sp)
   13f14:	01013903          	ld	s2,16(sp)
   13f18:	00813983          	ld	s3,8(sp)
   13f1c:	03010113          	addi	sp,sp,48
   13f20:	00008067          	ret
   13f24:	ff100793          	li	a5,-15
   13f28:	40b0093b          	negw	s2,a1
   13f2c:	00000993          	li	s3,0
   13f30:	01850593          	addi	a1,a0,24
   13f34:	00450693          	addi	a3,a0,4
   13f38:	00f00613          	li	a2,15
   13f3c:	0cf4dc63          	bge	s1,a5,14014 <eshift.part.0+0x1b8>
   13f40:	01845703          	lhu	a4,24(s0)
   13f44:	00058793          	mv	a5,a1
   13f48:	00e9e9b3          	or	s3,s3,a4
   13f4c:	ffe7d703          	lhu	a4,-2(a5)
   13f50:	ffe78793          	addi	a5,a5,-2
   13f54:	00e79123          	sh	a4,2(a5)
   13f58:	fed79ae3          	bne	a5,a3,13f4c <eshift.part.0+0xf0>
   13f5c:	00041223          	sh	zero,4(s0)
   13f60:	ff09091b          	addiw	s2,s2,-16
   13f64:	fd264ee3          	blt	a2,s2,13f40 <eshift.part.0+0xe4>
   13f68:	ff000913          	li	s2,-16
   13f6c:	ff100713          	li	a4,-15
   13f70:	4099093b          	subw	s2,s2,s1
   13f74:	00000793          	li	a5,0
   13f78:	08e4c863          	blt	s1,a4,14008 <eshift.part.0+0x1ac>
   13f7c:	00f9093b          	addw	s2,s2,a5
   13f80:	00700793          	li	a5,7
   13f84:	0327de63          	bge	a5,s2,13fc0 <eshift.part.0+0x164>
   13f88:	01844783          	lbu	a5,24(s0)
   13f8c:	01a40593          	addi	a1,s0,26
   13f90:	00f9e9b3          	or	s3,s3,a5
   13f94:	00000793          	li	a5,0
   13f98:	0006d703          	lhu	a4,0(a3)
   13f9c:	00268693          	addi	a3,a3,2
   13fa0:	0087561b          	srliw	a2,a4,0x8
   13fa4:	00c7e7b3          	or	a5,a5,a2
   13fa8:	0087171b          	slliw	a4,a4,0x8
   13fac:	fef69f23          	sh	a5,-2(a3)
   13fb0:	03071793          	slli	a5,a4,0x30
   13fb4:	0307d793          	srli	a5,a5,0x30
   13fb8:	feb690e3          	bne	a3,a1,13f98 <eshift.part.0+0x13c>
   13fbc:	ff89091b          	addiw	s2,s2,-8
   13fc0:	01303533          	snez	a0,s3
   13fc4:	f40902e3          	beqz	s2,13f08 <eshift.part.0+0xac>
   13fc8:	01845783          	lhu	a5,24(s0)
   13fcc:	fff9091b          	addiw	s2,s2,-1
   13fd0:	00040513          	mv	a0,s0
   13fd4:	0017f793          	andi	a5,a5,1
   13fd8:	00f9e9b3          	or	s3,s3,a5
   13fdc:	ae5ff0ef          	jal	ra,13ac0 <eshdn1>
   13fe0:	fe0914e3          	bnez	s2,13fc8 <eshift.part.0+0x16c>
   13fe4:	02813083          	ld	ra,40(sp)
   13fe8:	02013403          	ld	s0,32(sp)
   13fec:	0009899b          	sext.w	s3,s3
   13ff0:	01813483          	ld	s1,24(sp)
   13ff4:	01013903          	ld	s2,16(sp)
   13ff8:	01303533          	snez	a0,s3
   13ffc:	00813983          	ld	s3,8(sp)
   14000:	03010113          	addi	sp,sp,48
   14004:	00008067          	ret
   14008:	ff097793          	andi	a5,s2,-16
   1400c:	40f007bb          	negw	a5,a5
   14010:	f6dff06f          	j	13f7c <eshift.part.0+0x120>
   14014:	ff900793          	li	a5,-7
   14018:	f6f4c8e3          	blt	s1,a5,13f88 <eshift.part.0+0x12c>
   1401c:	fadff06f          	j	13fc8 <eshift.part.0+0x16c>

0000000000014020 <emovi>:
   14020:	01255783          	lhu	a5,18(a0)
   14024:	000086b7          	lui	a3,0x8
   14028:	fff68693          	addi	a3,a3,-1 # 7fff <exit-0x80e9>
   1402c:	00f7d79b          	srliw	a5,a5,0xf
   14030:	40f007bb          	negw	a5,a5
   14034:	00f59023          	sh	a5,0(a1)
   14038:	01255703          	lhu	a4,18(a0)
   1403c:	01050793          	addi	a5,a0,16
   14040:	00d77733          	and	a4,a4,a3
   14044:	00e59123          	sh	a4,2(a1)
   14048:	0007061b          	sext.w	a2,a4
   1404c:	02d70663          	beq	a4,a3,14078 <emovi+0x58>
   14050:	00658713          	addi	a4,a1,6
   14054:	00059223          	sh	zero,4(a1)
   14058:	ffe50513          	addi	a0,a0,-2
   1405c:	0007d683          	lhu	a3,0(a5)
   14060:	ffe78793          	addi	a5,a5,-2
   14064:	00270713          	addi	a4,a4,2
   14068:	fed71f23          	sh	a3,-2(a4)
   1406c:	fea798e3          	bne	a5,a0,1405c <emovi+0x3c>
   14070:	00059c23          	sh	zero,24(a1)
   14074:	00008067          	ret
   14078:	01255703          	lhu	a4,18(a0)
   1407c:	00c77733          	and	a4,a4,a2
   14080:	00c71e63          	bne	a4,a2,1409c <emovi+0x7c>
   14084:	01250613          	addi	a2,a0,18
   14088:	00050713          	mv	a4,a0
   1408c:	00075683          	lhu	a3,0(a4)
   14090:	00270713          	addi	a4,a4,2
   14094:	02069063          	bnez	a3,140b4 <emovi+0x94>
   14098:	fec71ae3          	bne	a4,a2,1408c <emovi+0x6c>
   1409c:	00458793          	addi	a5,a1,4
   140a0:	01a58593          	addi	a1,a1,26
   140a4:	00278793          	addi	a5,a5,2
   140a8:	fe079f23          	sh	zero,-2(a5)
   140ac:	feb79ce3          	bne	a5,a1,140a4 <emovi+0x84>
   140b0:	00008067          	ret
   140b4:	00658713          	addi	a4,a1,6
   140b8:	00059223          	sh	zero,4(a1)
   140bc:	ffc50513          	addi	a0,a0,-4
   140c0:	0007d683          	lhu	a3,0(a5)
   140c4:	ffe78793          	addi	a5,a5,-2
   140c8:	00270713          	addi	a4,a4,2
   140cc:	fed71f23          	sh	a3,-2(a4)
   140d0:	fef518e3          	bne	a0,a5,140c0 <emovi+0xa0>
   140d4:	00008067          	ret

00000000000140d8 <ecmp>:
   140d8:	01255783          	lhu	a5,18(a0)
   140dc:	fb010113          	addi	sp,sp,-80
   140e0:	04813023          	sd	s0,64(sp)
   140e4:	fff7c793          	not	a5,a5
   140e8:	04113423          	sd	ra,72(sp)
   140ec:	03179713          	slli	a4,a5,0x31
   140f0:	00058413          	mv	s0,a1
   140f4:	00071e63          	bnez	a4,14110 <ecmp+0x38>
   140f8:	01250693          	addi	a3,a0,18
   140fc:	00050793          	mv	a5,a0
   14100:	0007d703          	lhu	a4,0(a5)
   14104:	00278793          	addi	a5,a5,2
   14108:	08071c63          	bnez	a4,141a0 <ecmp+0xc8>
   1410c:	fed79ae3          	bne	a5,a3,14100 <ecmp+0x28>
   14110:	01245783          	lhu	a5,18(s0)
   14114:	fff7c793          	not	a5,a5
   14118:	03179713          	slli	a4,a5,0x31
   1411c:	06070063          	beqz	a4,1417c <ecmp+0xa4>
   14120:	00010593          	mv	a1,sp
   14124:	efdff0ef          	jal	ra,14020 <emovi>
   14128:	02010593          	addi	a1,sp,32
   1412c:	00040513          	mv	a0,s0
   14130:	ef1ff0ef          	jal	ra,14020 <emovi>
   14134:	00015583          	lhu	a1,0(sp)
   14138:	02015783          	lhu	a5,32(sp)
   1413c:	06b78c63          	beq	a5,a1,141b4 <ecmp+0xdc>
   14140:	00210793          	addi	a5,sp,2
   14144:	02210713          	addi	a4,sp,34
   14148:	01810613          	addi	a2,sp,24
   1414c:	0007d683          	lhu	a3,0(a5)
   14150:	00278793          	addi	a5,a5,2
   14154:	0a069663          	bnez	a3,14200 <ecmp+0x128>
   14158:	00075683          	lhu	a3,0(a4)
   1415c:	00270713          	addi	a4,a4,2
   14160:	0a069063          	bnez	a3,14200 <ecmp+0x128>
   14164:	fef614e3          	bne	a2,a5,1414c <ecmp+0x74>
   14168:	00000513          	li	a0,0
   1416c:	04813083          	ld	ra,72(sp)
   14170:	04013403          	ld	s0,64(sp)
   14174:	05010113          	addi	sp,sp,80
   14178:	00008067          	ret
   1417c:	00040793          	mv	a5,s0
   14180:	0007d703          	lhu	a4,0(a5)
   14184:	01240693          	addi	a3,s0,18
   14188:	00278793          	addi	a5,a5,2
   1418c:	00071a63          	bnez	a4,141a0 <ecmp+0xc8>
   14190:	f8d788e3          	beq	a5,a3,14120 <ecmp+0x48>
   14194:	0007d703          	lhu	a4,0(a5)
   14198:	00278793          	addi	a5,a5,2
   1419c:	fe070ae3          	beqz	a4,14190 <ecmp+0xb8>
   141a0:	04813083          	ld	ra,72(sp)
   141a4:	04013403          	ld	s0,64(sp)
   141a8:	ffe00513          	li	a0,-2
   141ac:	05010113          	addi	sp,sp,80
   141b0:	00008067          	ret
   141b4:	fff00513          	li	a0,-1
   141b8:	06058063          	beqz	a1,14218 <ecmp+0x140>
   141bc:	00010793          	mv	a5,sp
   141c0:	0007d603          	lhu	a2,0(a5)
   141c4:	02015683          	lhu	a3,32(sp)
   141c8:	02010713          	addi	a4,sp,32
   141cc:	01810593          	addi	a1,sp,24
   141d0:	00278793          	addi	a5,a5,2
   141d4:	00270713          	addi	a4,a4,2
   141d8:	00d61e63          	bne	a2,a3,141f4 <ecmp+0x11c>
   141dc:	f8b786e3          	beq	a5,a1,14168 <ecmp+0x90>
   141e0:	0007d603          	lhu	a2,0(a5)
   141e4:	00075683          	lhu	a3,0(a4)
   141e8:	00278793          	addi	a5,a5,2
   141ec:	00270713          	addi	a4,a4,2
   141f0:	fed606e3          	beq	a2,a3,141dc <ecmp+0x104>
   141f4:	f6c6ece3          	bltu	a3,a2,1416c <ecmp+0x94>
   141f8:	40a0053b          	negw	a0,a0
   141fc:	f71ff06f          	j	1416c <ecmp+0x94>
   14200:	02059063          	bnez	a1,14220 <ecmp+0x148>
   14204:	04813083          	ld	ra,72(sp)
   14208:	04013403          	ld	s0,64(sp)
   1420c:	00100513          	li	a0,1
   14210:	05010113          	addi	sp,sp,80
   14214:	00008067          	ret
   14218:	00100513          	li	a0,1
   1421c:	fa1ff06f          	j	141bc <ecmp+0xe4>
   14220:	fff00513          	li	a0,-1
   14224:	f49ff06f          	j	1416c <ecmp+0x94>

0000000000014228 <emdnorm>:
   14228:	fc010113          	addi	sp,sp,-64
   1422c:	02813823          	sd	s0,48(sp)
   14230:	02913423          	sd	s1,40(sp)
   14234:	03213023          	sd	s2,32(sp)
   14238:	01313c23          	sd	s3,24(sp)
   1423c:	01413823          	sd	s4,16(sp)
   14240:	01513423          	sd	s5,8(sp)
   14244:	00068913          	mv	s2,a3
   14248:	00078413          	mv	s0,a5
   1424c:	02113c23          	sd	ra,56(sp)
   14250:	00050493          	mv	s1,a0
   14254:	00058993          	mv	s3,a1
   14258:	00060a13          	mv	s4,a2
   1425c:	00070a93          	mv	s5,a4
   14260:	a91ff0ef          	jal	ra,13cf0 <enormlz>
   14264:	09000793          	li	a5,144
   14268:	40a90933          	sub	s2,s2,a0
   1426c:	18a7d863          	bge	a5,a0,143fc <emdnorm+0x1d4>
   14270:	000087b7          	lui	a5,0x8
   14274:	ffe78793          	addi	a5,a5,-2 # 7ffe <exit-0x80ea>
   14278:	2d27da63          	bge	a5,s2,1454c <emdnorm+0x324>
   1427c:	220a8a63          	beqz	s5,144b0 <emdnorm+0x288>
   14280:	00442a83          	lw	s5,4(s0)
   14284:	00042783          	lw	a5,0(s0)
   14288:	28fa8a63          	beq	s5,a5,1451c <emdnorm+0x2f4>
   1428c:	01a40713          	addi	a4,s0,26
   14290:	03440793          	addi	a5,s0,52
   14294:	00270713          	addi	a4,a4,2
   14298:	fe071f23          	sh	zero,-2(a4)
   1429c:	fee79ce3          	bne	a5,a4,14294 <emdnorm+0x6c>
   142a0:	03800793          	li	a5,56
   142a4:	38fa8863          	beq	s5,a5,14634 <emdnorm+0x40c>
   142a8:	1b57da63          	bge	a5,s5,1445c <emdnorm+0x234>
   142ac:	04000793          	li	a5,64
   142b0:	2afa8a63          	beq	s5,a5,14564 <emdnorm+0x33c>
   142b4:	07100793          	li	a5,113
   142b8:	3afa9c63          	bne	s5,a5,14670 <emdnorm+0x448>
   142bc:	400087b7          	lui	a5,0x40008
   142c0:	00a00693          	li	a3,10
   142c4:	ffff8737          	lui	a4,0xffff8
   142c8:	fff78793          	addi	a5,a5,-1 # 40007fff <__BSS_END__+0x3ffe31f7>
   142cc:	00d42423          	sw	a3,8(s0)
   142d0:	00f42a23          	sw	a5,20(s0)
   142d4:	00e41c23          	sh	a4,24(s0)
   142d8:	00d42623          	sw	a3,12(s0)
   142dc:	02e41723          	sh	a4,46(s0)
   142e0:	01542023          	sw	s5,0(s0)
   142e4:	23205063          	blez	s2,14504 <emdnorm+0x2dc>
   142e8:	0144d603          	lhu	a2,20(s1)
   142ec:	01448593          	addi	a1,s1,20
   142f0:	00b00793          	li	a5,11
   142f4:	03161613          	slli	a2,a2,0x31
   142f8:	03165613          	srli	a2,a2,0x31
   142fc:	00c00713          	li	a4,12
   14300:	40f7073b          	subw	a4,a4,a5
   14304:	02071713          	slli	a4,a4,0x20
   14308:	02075713          	srli	a4,a4,0x20
   1430c:	00f70733          	add	a4,a4,a5
   14310:	00171713          	slli	a4,a4,0x1
   14314:	00179793          	slli	a5,a5,0x1
   14318:	00248693          	addi	a3,s1,2
   1431c:	00f487b3          	add	a5,s1,a5
   14320:	00d70733          	add	a4,a4,a3
   14324:	0007d683          	lhu	a3,0(a5)
   14328:	00068463          	beqz	a3,14330 <emdnorm+0x108>
   1432c:	00166613          	ori	a2,a2,1
   14330:	00079023          	sh	zero,0(a5)
   14334:	00278793          	addi	a5,a5,2
   14338:	fef716e3          	bne	a4,a5,14324 <emdnorm+0xfc>
   1433c:	0005d703          	lhu	a4,0(a1)
   14340:	01445683          	lhu	a3,20(s0)
   14344:	fff6c693          	not	a3,a3
   14348:	00d77733          	and	a4,a4,a3
   1434c:	00e59023          	sh	a4,0(a1)
   14350:	01645783          	lhu	a5,22(s0)
   14354:	00c7f733          	and	a4,a5,a2
   14358:	06070063          	beqz	a4,143b8 <emdnorm+0x190>
   1435c:	02c79263          	bne	a5,a2,14380 <emdnorm+0x158>
   14360:	2c099663          	bnez	s3,1462c <emdnorm+0x404>
   14364:	00c42783          	lw	a5,12(s0)
   14368:	01845703          	lhu	a4,24(s0)
   1436c:	00179793          	slli	a5,a5,0x1
   14370:	00f487b3          	add	a5,s1,a5
   14374:	0007d783          	lhu	a5,0(a5)
   14378:	00e7f7b3          	and	a5,a5,a4
   1437c:	02078e63          	beqz	a5,143b8 <emdnorm+0x190>
   14380:	03240793          	addi	a5,s0,50
   14384:	01848613          	addi	a2,s1,24
   14388:	00248513          	addi	a0,s1,2
   1438c:	00000593          	li	a1,0
   14390:	0007d703          	lhu	a4,0(a5)
   14394:	00065683          	lhu	a3,0(a2)
   14398:	ffe60613          	addi	a2,a2,-2
   1439c:	ffe78793          	addi	a5,a5,-2
   143a0:	00d70733          	add	a4,a4,a3
   143a4:	00b70733          	add	a4,a4,a1
   143a8:	01075593          	srli	a1,a4,0x10
   143ac:	00e61123          	sh	a4,2(a2)
   143b0:	0015f593          	andi	a1,a1,1
   143b4:	fca61ee3          	bne	a2,a0,14390 <emdnorm+0x168>
   143b8:	23205a63          	blez	s2,145ec <emdnorm+0x3c4>
   143bc:	0044d783          	lhu	a5,4(s1)
   143c0:	20079663          	bnez	a5,145cc <emdnorm+0x3a4>
   143c4:	000087b7          	lui	a5,0x8
   143c8:	00049c23          	sh	zero,24(s1)
   143cc:	ffe78793          	addi	a5,a5,-2 # 7ffe <exit-0x80ea>
   143d0:	0f27c263          	blt	a5,s2,144b4 <emdnorm+0x28c>
   143d4:	01249123          	sh	s2,2(s1)
   143d8:	03813083          	ld	ra,56(sp)
   143dc:	03013403          	ld	s0,48(sp)
   143e0:	02813483          	ld	s1,40(sp)
   143e4:	02013903          	ld	s2,32(sp)
   143e8:	01813983          	ld	s3,24(sp)
   143ec:	01013a03          	ld	s4,16(sp)
   143f0:	00813a83          	ld	s5,8(sp)
   143f4:	04010113          	addi	sp,sp,64
   143f8:	00008067          	ret
   143fc:	04094063          	bltz	s2,1443c <emdnorm+0x214>
   14400:	fc0a82e3          	beqz	s5,143c4 <emdnorm+0x19c>
   14404:	00442a83          	lw	s5,4(s0)
   14408:	00042783          	lw	a5,0(s0)
   1440c:	e8fa90e3          	bne	s5,a5,1428c <emdnorm+0x64>
   14410:	2d204263          	bgtz	s2,146d4 <emdnorm+0x4ac>
   14414:	09000713          	li	a4,144
   14418:	2ce79263          	bne	a5,a4,146dc <emdnorm+0x4b4>
   1441c:	00842583          	lw	a1,8(s0)
   14420:	01445683          	lhu	a3,20(s0)
   14424:	09000a93          	li	s5,144
   14428:	00159593          	slli	a1,a1,0x1
   1442c:	00b485b3          	add	a1,s1,a1
   14430:	0005d703          	lhu	a4,0(a1)
   14434:	00d77633          	and	a2,a4,a3
   14438:	f0dff06f          	j	14344 <emdnorm+0x11c>
   1443c:	f7000793          	li	a5,-144
   14440:	16f95263          	bge	s2,a5,145a4 <emdnorm+0x37c>
   14444:	00248793          	addi	a5,s1,2
   14448:	01a48493          	addi	s1,s1,26
   1444c:	00278793          	addi	a5,a5,2
   14450:	fe079f23          	sh	zero,-2(a5)
   14454:	fef49ce3          	bne	s1,a5,1444c <emdnorm+0x224>
   14458:	f81ff06f          	j	143d8 <emdnorm+0x1b0>
   1445c:	01800793          	li	a5,24
   14460:	06fa8c63          	beq	s5,a5,144d8 <emdnorm+0x2b0>
   14464:	03500793          	li	a5,53
   14468:	20fa9463          	bne	s5,a5,14670 <emdnorm+0x448>
   1446c:	000017b7          	lui	a5,0x1
   14470:	04000737          	lui	a4,0x4000
   14474:	00600693          	li	a3,6
   14478:	80078793          	addi	a5,a5,-2048 # 800 <exit-0xf8e8>
   1447c:	7ff70713          	addi	a4,a4,2047 # 40007ff <__BSS_END__+0x3fdb9f7>
   14480:	00d42423          	sw	a3,8(s0)
   14484:	00e42a23          	sw	a4,20(s0)
   14488:	00f41c23          	sh	a5,24(s0)
   1448c:	00d42623          	sw	a3,12(s0)
   14490:	02f41323          	sh	a5,38(s0)
   14494:	01542023          	sw	s5,0(s0)
   14498:	07205663          	blez	s2,14504 <emdnorm+0x2dc>
   1449c:	00c4d603          	lhu	a2,12(s1)
   144a0:	00c48593          	addi	a1,s1,12
   144a4:	00700793          	li	a5,7
   144a8:	7ff67613          	andi	a2,a2,2047
   144ac:	e51ff06f          	j	142fc <emdnorm+0xd4>
   144b0:	00049c23          	sh	zero,24(s1)
   144b4:	ffff87b7          	lui	a5,0xffff8
   144b8:	fff7c793          	not	a5,a5
   144bc:	00f49123          	sh	a5,2(s1)
   144c0:	00448793          	addi	a5,s1,4
   144c4:	01848493          	addi	s1,s1,24
   144c8:	00079023          	sh	zero,0(a5) # ffffffffffff8000 <__BSS_END__+0xfffffffffffd31f8>
   144cc:	00278793          	addi	a5,a5,2
   144d0:	fe979ce3          	bne	a5,s1,144c8 <emdnorm+0x2a0>
   144d4:	f05ff06f          	j	143d8 <emdnorm+0x1b0>
   144d8:	008007b7          	lui	a5,0x800
   144dc:	00400693          	li	a3,4
   144e0:	10000713          	li	a4,256
   144e4:	0ff78793          	addi	a5,a5,255 # 8000ff <__BSS_END__+0x7db2f7>
   144e8:	00d42423          	sw	a3,8(s0)
   144ec:	00f42a23          	sw	a5,20(s0)
   144f0:	00e41c23          	sh	a4,24(s0)
   144f4:	00d42623          	sw	a3,12(s0)
   144f8:	02e41123          	sh	a4,34(s0)
   144fc:	01542023          	sw	s5,0(s0)
   14500:	1b204c63          	bgtz	s2,146b8 <emdnorm+0x490>
   14504:	0184d783          	lhu	a5,24(s1)
   14508:	00048513          	mv	a0,s1
   1450c:	0017f793          	andi	a5,a5,1
   14510:	00f9e7b3          	or	a5,s3,a5
   14514:	0007899b          	sext.w	s3,a5
   14518:	da8ff0ef          	jal	ra,13ac0 <eshdn1>
   1451c:	00842783          	lw	a5,8(s0)
   14520:	01445683          	lhu	a3,20(s0)
   14524:	08f00513          	li	a0,143
   14528:	00179593          	slli	a1,a5,0x1
   1452c:	00b485b3          	add	a1,s1,a1
   14530:	0005d703          	lhu	a4,0(a1)
   14534:	00d77633          	and	a2,a4,a3
   14538:	e15546e3          	blt	a0,s5,14344 <emdnorm+0x11c>
   1453c:	0017879b          	addiw	a5,a5,1
   14540:	00c00513          	li	a0,12
   14544:	daf55ce3          	bge	a0,a5,142fc <emdnorm+0xd4>
   14548:	dfdff06f          	j	14344 <emdnorm+0x11c>
   1454c:	00248793          	addi	a5,s1,2
   14550:	01a48493          	addi	s1,s1,26
   14554:	00278793          	addi	a5,a5,2
   14558:	fe079f23          	sh	zero,-2(a5)
   1455c:	fef49ce3          	bne	s1,a5,14554 <emdnorm+0x32c>
   14560:	e79ff06f          	j	143d8 <emdnorm+0x1b0>
   14564:	00700793          	li	a5,7
   14568:	00f42423          	sw	a5,8(s0)
   1456c:	800107b7          	lui	a5,0x80010
   14570:	fff78793          	addi	a5,a5,-1 # ffffffff8000ffff <__BSS_END__+0xffffffff7ffeb1f7>
   14574:	00100713          	li	a4,1
   14578:	00f42a23          	sw	a5,20(s0)
   1457c:	00600793          	li	a5,6
   14580:	00e41c23          	sh	a4,24(s0)
   14584:	00f42623          	sw	a5,12(s0)
   14588:	02e41323          	sh	a4,38(s0)
   1458c:	01542023          	sw	s5,0(s0)
   14590:	f7205ae3          	blez	s2,14504 <emdnorm+0x2dc>
   14594:	00e4d603          	lhu	a2,14(s1)
   14598:	00e48593          	addi	a1,s1,14
   1459c:	00800793          	li	a5,8
   145a0:	d5dff06f          	j	142fc <emdnorm+0xd4>
   145a4:	0009059b          	sext.w	a1,s2
   145a8:	00048513          	mv	a0,s1
   145ac:	8b1ff0ef          	jal	ra,13e5c <eshift.part.0>
   145b0:	0e050a63          	beqz	a0,146a4 <emdnorm+0x47c>
   145b4:	100a8a63          	beqz	s5,146c8 <emdnorm+0x4a0>
   145b8:	00442a83          	lw	s5,4(s0)
   145bc:	00042783          	lw	a5,0(s0)
   145c0:	00100993          	li	s3,1
   145c4:	ccfa94e3          	bne	s5,a5,1428c <emdnorm+0x64>
   145c8:	e4dff06f          	j	14414 <emdnorm+0x1ec>
   145cc:	00048513          	mv	a0,s1
   145d0:	cf0ff0ef          	jal	ra,13ac0 <eshdn1>
   145d4:	000087b7          	lui	a5,0x8
   145d8:	00190913          	addi	s2,s2,1
   145dc:	00049c23          	sh	zero,24(s1)
   145e0:	ffe78793          	addi	a5,a5,-2 # 7ffe <exit-0x80ea>
   145e4:	ed27c8e3          	blt	a5,s2,144b4 <emdnorm+0x28c>
   145e8:	dedff06f          	j	143d4 <emdnorm+0x1ac>
   145ec:	09000793          	li	a5,144
   145f0:	02fa8263          	beq	s5,a5,14614 <emdnorm+0x3ec>
   145f4:	00048513          	mv	a0,s1
   145f8:	d1cff0ef          	jal	ra,13b14 <eshup1>
   145fc:	0044d783          	lhu	a5,4(s1)
   14600:	00079e63          	bnez	a5,1461c <emdnorm+0x3f4>
   14604:	00049c23          	sh	zero,24(s1)
   14608:	dc0956e3          	bgez	s2,143d4 <emdnorm+0x1ac>
   1460c:	00049123          	sh	zero,2(s1)
   14610:	dc9ff06f          	j	143d8 <emdnorm+0x1b0>
   14614:	0044d783          	lhu	a5,4(s1)
   14618:	fe0786e3          	beqz	a5,14604 <emdnorm+0x3dc>
   1461c:	00048513          	mv	a0,s1
   14620:	ca0ff0ef          	jal	ra,13ac0 <eshdn1>
   14624:	00190913          	addi	s2,s2,1
   14628:	fddff06f          	j	14604 <emdnorm+0x3dc>
   1462c:	d40a0ae3          	beqz	s4,14380 <emdnorm+0x158>
   14630:	d89ff06f          	j	143b8 <emdnorm+0x190>
   14634:	008007b7          	lui	a5,0x800
   14638:	00600693          	li	a3,6
   1463c:	10000713          	li	a4,256
   14640:	0ff78793          	addi	a5,a5,255 # 8000ff <__BSS_END__+0x7db2f7>
   14644:	00d42423          	sw	a3,8(s0)
   14648:	00f42a23          	sw	a5,20(s0)
   1464c:	00e41c23          	sh	a4,24(s0)
   14650:	00d42623          	sw	a3,12(s0)
   14654:	02e41323          	sh	a4,38(s0)
   14658:	01542023          	sw	s5,0(s0)
   1465c:	eb2054e3          	blez	s2,14504 <emdnorm+0x2dc>
   14660:	00c4c603          	lbu	a2,12(s1)
   14664:	00c48593          	addi	a1,s1,12
   14668:	00700793          	li	a5,7
   1466c:	c91ff06f          	j	142fc <emdnorm+0xd4>
   14670:	00c00793          	li	a5,12
   14674:	00f42423          	sw	a5,8(s0)
   14678:	800107b7          	lui	a5,0x80010
   1467c:	fff78793          	addi	a5,a5,-1 # ffffffff8000ffff <__BSS_END__+0xffffffff7ffeb1f7>
   14680:	00100713          	li	a4,1
   14684:	00f42a23          	sw	a5,20(s0)
   14688:	00b00793          	li	a5,11
   1468c:	00f42623          	sw	a5,12(s0)
   14690:	00e41c23          	sh	a4,24(s0)
   14694:	02e41823          	sh	a4,48(s0)
   14698:	01542023          	sw	s5,0(s0)
   1469c:	000a8793          	mv	a5,s5
   146a0:	d71ff06f          	j	14410 <emdnorm+0x1e8>
   146a4:	020a8263          	beqz	s5,146c8 <emdnorm+0x4a0>
   146a8:	00442a83          	lw	s5,4(s0)
   146ac:	00042783          	lw	a5,0(s0)
   146b0:	bcfa9ee3          	bne	s5,a5,1428c <emdnorm+0x64>
   146b4:	d61ff06f          	j	14414 <emdnorm+0x1ec>
   146b8:	0084c603          	lbu	a2,8(s1)
   146bc:	00848593          	addi	a1,s1,8
   146c0:	00500793          	li	a5,5
   146c4:	c39ff06f          	j	142fc <emdnorm+0xd4>
   146c8:	00049c23          	sh	zero,24(s1)
   146cc:	00049123          	sh	zero,2(s1)
   146d0:	d09ff06f          	j	143d8 <emdnorm+0x1b0>
   146d4:	00078a93          	mv	s5,a5
   146d8:	e45ff06f          	j	1451c <emdnorm+0x2f4>
   146dc:	00078a93          	mv	s5,a5
   146e0:	e25ff06f          	j	14504 <emdnorm+0x2dc>

00000000000146e4 <eiremain>:
   146e4:	fa010113          	addi	sp,sp,-96
   146e8:	05213023          	sd	s2,64(sp)
   146ec:	03313c23          	sd	s3,56(sp)
   146f0:	00058913          	mv	s2,a1
   146f4:	00255983          	lhu	s3,2(a0)
   146f8:	04113c23          	sd	ra,88(sp)
   146fc:	04813823          	sd	s0,80(sp)
   14700:	04913423          	sd	s1,72(sp)
   14704:	03413823          	sd	s4,48(sp)
   14708:	00060493          	mv	s1,a2
   1470c:	01713c23          	sd	s7,24(sp)
   14710:	03513423          	sd	s5,40(sp)
   14714:	03613023          	sd	s6,32(sp)
   14718:	01813823          	sd	s8,16(sp)
   1471c:	01913423          	sd	s9,8(sp)
   14720:	01a13023          	sd	s10,0(sp)
   14724:	00050b93          	mv	s7,a0
   14728:	dc8ff0ef          	jal	ra,13cf0 <enormlz>
   1472c:	00295403          	lhu	s0,2(s2)
   14730:	00050793          	mv	a5,a0
   14734:	00090513          	mv	a0,s2
   14738:	40f989b3          	sub	s3,s3,a5
   1473c:	03448a13          	addi	s4,s1,52
   14740:	db0ff0ef          	jal	ra,13cf0 <enormlz>
   14744:	40a40433          	sub	s0,s0,a0
   14748:	04e48713          	addi	a4,s1,78
   1474c:	000a0793          	mv	a5,s4
   14750:	00278793          	addi	a5,a5,2
   14754:	fe079f23          	sh	zero,-2(a5)
   14758:	fee79ce3          	bne	a5,a4,14750 <eiremain+0x6c>
   1475c:	09344863          	blt	s0,s3,147ec <eiremain+0x108>
   14760:	004b8b13          	addi	s6,s7,4
   14764:	00490a93          	addi	s5,s2,4
   14768:	01ab8c13          	addi	s8,s7,26
   1476c:	00290d13          	addi	s10,s2,2
   14770:	000a8713          	mv	a4,s5
   14774:	000b0793          	mv	a5,s6
   14778:	0007d603          	lhu	a2,0(a5)
   1477c:	00075683          	lhu	a3,0(a4)
   14780:	00278793          	addi	a5,a5,2
   14784:	00270713          	addi	a4,a4,2
   14788:	0ad61a63          	bne	a2,a3,1483c <eiremain+0x158>
   1478c:	fefc16e3          	bne	s8,a5,14778 <eiremain+0x94>
   14790:	018b8613          	addi	a2,s7,24
   14794:	01890713          	addi	a4,s2,24
   14798:	00000693          	li	a3,0
   1479c:	00075783          	lhu	a5,0(a4)
   147a0:	00065583          	lhu	a1,0(a2)
   147a4:	ffe70713          	addi	a4,a4,-2
   147a8:	ffe60613          	addi	a2,a2,-2
   147ac:	40b787b3          	sub	a5,a5,a1
   147b0:	40d787b3          	sub	a5,a5,a3
   147b4:	0107d693          	srli	a3,a5,0x10
   147b8:	00f71123          	sh	a5,2(a4)
   147bc:	0016f693          	andi	a3,a3,1
   147c0:	fda71ee3          	bne	a4,s10,1479c <eiremain+0xb8>
   147c4:	00100c93          	li	s9,1
   147c8:	000a0513          	mv	a0,s4
   147cc:	b48ff0ef          	jal	ra,13b14 <eshup1>
   147d0:	04c4d783          	lhu	a5,76(s1)
   147d4:	fff40413          	addi	s0,s0,-1
   147d8:	00090513          	mv	a0,s2
   147dc:	00fce7b3          	or	a5,s9,a5
   147e0:	04f49623          	sh	a5,76(s1)
   147e4:	b30ff0ef          	jal	ra,13b14 <eshup1>
   147e8:	f93454e3          	bge	s0,s3,14770 <eiremain+0x8c>
   147ec:	00040693          	mv	a3,s0
   147f0:	05013403          	ld	s0,80(sp)
   147f4:	05813083          	ld	ra,88(sp)
   147f8:	03813983          	ld	s3,56(sp)
   147fc:	03013a03          	ld	s4,48(sp)
   14800:	02813a83          	ld	s5,40(sp)
   14804:	02013b03          	ld	s6,32(sp)
   14808:	01813b83          	ld	s7,24(sp)
   1480c:	01013c03          	ld	s8,16(sp)
   14810:	00813c83          	ld	s9,8(sp)
   14814:	00013d03          	ld	s10,0(sp)
   14818:	00048793          	mv	a5,s1
   1481c:	00090513          	mv	a0,s2
   14820:	04813483          	ld	s1,72(sp)
   14824:	04013903          	ld	s2,64(sp)
   14828:	00000713          	li	a4,0
   1482c:	00000613          	li	a2,0
   14830:	00000593          	li	a1,0
   14834:	06010113          	addi	sp,sp,96
   14838:	9f1ff06f          	j	14228 <emdnorm>
   1483c:	00000c93          	li	s9,0
   14840:	f8c6e4e3          	bltu	a3,a2,147c8 <eiremain+0xe4>
   14844:	f4dff06f          	j	14790 <eiremain+0xac>

0000000000014848 <e113toe.isra.0>:
   14848:	fd010113          	addi	sp,sp,-48
   1484c:	02813023          	sd	s0,32(sp)
   14850:	02113423          	sd	ra,40(sp)
   14854:	00058413          	mv	s0,a1
   14858:	00010793          	mv	a5,sp
   1485c:	01a10713          	addi	a4,sp,26
   14860:	00278793          	addi	a5,a5,2
   14864:	fe079f23          	sh	zero,-2(a5)
   14868:	fee79ce3          	bne	a5,a4,14860 <e113toe.isra.0+0x18>
   1486c:	00e55783          	lhu	a5,14(a0)
   14870:	00008737          	lui	a4,0x8
   14874:	fff70713          	addi	a4,a4,-1 # 7fff <exit-0x80e9>
   14878:	03079693          	slli	a3,a5,0x30
   1487c:	43f6d693          	srai	a3,a3,0x3f
   14880:	00d11023          	sh	a3,0(sp)
   14884:	00e7f6b3          	and	a3,a5,a4
   14888:	00068613          	mv	a2,a3
   1488c:	06e68063          	beq	a3,a4,148ec <e113toe.isra.0+0xa4>
   14890:	00e50793          	addi	a5,a0,14
   14894:	00d11123          	sh	a3,2(sp)
   14898:	00610713          	addi	a4,sp,6
   1489c:	ffe7d683          	lhu	a3,-2(a5)
   148a0:	ffe78793          	addi	a5,a5,-2
   148a4:	00270713          	addi	a4,a4,2
   148a8:	fed71f23          	sh	a3,-2(a4)
   148ac:	fef518e3          	bne	a0,a5,1489c <e113toe.isra.0+0x54>
   148b0:	02061263          	bnez	a2,148d4 <e113toe.isra.0+0x8c>
   148b4:	00011223          	sh	zero,4(sp)
   148b8:	00040593          	mv	a1,s0
   148bc:	00010513          	mv	a0,sp
   148c0:	b74ff0ef          	jal	ra,13c34 <emovo.constprop.0>
   148c4:	02813083          	ld	ra,40(sp)
   148c8:	02013403          	ld	s0,32(sp)
   148cc:	03010113          	addi	sp,sp,48
   148d0:	00008067          	ret
   148d4:	00100793          	li	a5,1
   148d8:	fff00593          	li	a1,-1
   148dc:	00010513          	mv	a0,sp
   148e0:	00f11223          	sh	a5,4(sp)
   148e4:	d78ff0ef          	jal	ra,13e5c <eshift.part.0>
   148e8:	fd1ff06f          	j	148b8 <e113toe.isra.0+0x70>
   148ec:	00050793          	mv	a5,a0
   148f0:	00e50693          	addi	a3,a0,14
   148f4:	0007d703          	lhu	a4,0(a5)
   148f8:	00278793          	addi	a5,a5,2
   148fc:	06071c63          	bnez	a4,14974 <e113toe.isra.0+0x12c>
   14900:	fed79ae3          	bne	a5,a3,148f4 <e113toe.isra.0+0xac>
   14904:	01440713          	addi	a4,s0,20
   14908:	00040793          	mv	a5,s0
   1490c:	00278793          	addi	a5,a5,2
   14910:	fe079f23          	sh	zero,-2(a5)
   14914:	fee79ce3          	bne	a5,a4,1490c <e113toe.isra.0+0xc4>
   14918:	01240713          	addi	a4,s0,18
   1491c:	00040793          	mv	a5,s0
   14920:	00278793          	addi	a5,a5,2
   14924:	fe079f23          	sh	zero,-2(a5)
   14928:	fee79ce3          	bne	a5,a4,14920 <e113toe.isra.0+0xd8>
   1492c:	01245783          	lhu	a5,18(s0)
   14930:	000086b7          	lui	a3,0x8
   14934:	fff68693          	addi	a3,a3,-1 # 7fff <exit-0x80e9>
   14938:	00d7e7b3          	or	a5,a5,a3
   1493c:	03079793          	slli	a5,a5,0x30
   14940:	0307d793          	srli	a5,a5,0x30
   14944:	00f41923          	sh	a5,18(s0)
   14948:	00e51683          	lh	a3,14(a0)
   1494c:	f606dce3          	bgez	a3,148c4 <e113toe.isra.0+0x7c>
   14950:	00040693          	mv	a3,s0
   14954:	0006d603          	lhu	a2,0(a3)
   14958:	00268693          	addi	a3,a3,2
   1495c:	f60614e3          	bnez	a2,148c4 <e113toe.isra.0+0x7c>
   14960:	fee69ae3          	bne	a3,a4,14954 <e113toe.isra.0+0x10c>
   14964:	ffff8737          	lui	a4,0xffff8
   14968:	00e7c7b3          	xor	a5,a5,a4
   1496c:	00f41923          	sh	a5,18(s0)
   14970:	f55ff06f          	j	148c4 <e113toe.isra.0+0x7c>
   14974:	01040713          	addi	a4,s0,16
   14978:	00040793          	mv	a5,s0
   1497c:	00278793          	addi	a5,a5,2
   14980:	fe079f23          	sh	zero,-2(a5)
   14984:	fee79ce3          	bne	a5,a4,1497c <e113toe.isra.0+0x134>
   14988:	ffffc7b7          	lui	a5,0xffffc
   1498c:	00f41823          	sh	a5,16(s0)
   14990:	ffff87b7          	lui	a5,0xffff8
   14994:	fff7c793          	not	a5,a5
   14998:	00f41923          	sh	a5,18(s0)
   1499c:	f29ff06f          	j	148c4 <e113toe.isra.0+0x7c>

00000000000149a0 <ediv>:
   149a0:	01255783          	lhu	a5,18(a0)
   149a4:	f1010113          	addi	sp,sp,-240
   149a8:	0e813023          	sd	s0,224(sp)
   149ac:	fff7c793          	not	a5,a5
   149b0:	0c913c23          	sd	s1,216(sp)
   149b4:	0d213823          	sd	s2,208(sp)
   149b8:	0d313423          	sd	s3,200(sp)
   149bc:	0e113423          	sd	ra,232(sp)
   149c0:	0d413023          	sd	s4,192(sp)
   149c4:	0b513c23          	sd	s5,184(sp)
   149c8:	0b613823          	sd	s6,176(sp)
   149cc:	0b713423          	sd	s7,168(sp)
   149d0:	0b813023          	sd	s8,160(sp)
   149d4:	09913c23          	sd	s9,152(sp)
   149d8:	09a13823          	sd	s10,144(sp)
   149dc:	09b13423          	sd	s11,136(sp)
   149e0:	03179713          	slli	a4,a5,0x31
   149e4:	00050493          	mv	s1,a0
   149e8:	00058993          	mv	s3,a1
   149ec:	00060413          	mv	s0,a2
   149f0:	00068913          	mv	s2,a3
   149f4:	00071e63          	bnez	a4,14a10 <ediv+0x70>
   149f8:	01250693          	addi	a3,a0,18
   149fc:	00050793          	mv	a5,a0
   14a00:	0007d703          	lhu	a4,0(a5) # ffffffffffff8000 <__BSS_END__+0xfffffffffffd31f8>
   14a04:	00278793          	addi	a5,a5,2
   14a08:	0e071e63          	bnez	a4,14b04 <ediv+0x164>
   14a0c:	fed79ae3          	bne	a5,a3,14a00 <ediv+0x60>
   14a10:	0129d783          	lhu	a5,18(s3)
   14a14:	fff7c793          	not	a5,a5
   14a18:	03179713          	slli	a4,a5,0x31
   14a1c:	00071e63          	bnez	a4,14a38 <ediv+0x98>
   14a20:	01298693          	addi	a3,s3,18
   14a24:	00098793          	mv	a5,s3
   14a28:	0007d703          	lhu	a4,0(a5)
   14a2c:	00278793          	addi	a5,a5,2
   14a30:	0e071863          	bnez	a4,14b20 <ediv+0x180>
   14a34:	fed79ae3          	bne	a5,a3,14a28 <ediv+0x88>
   14a38:	00022a37          	lui	s4,0x22
   14a3c:	290a0593          	addi	a1,s4,656 # 22290 <ezero>
   14a40:	00048513          	mv	a0,s1
   14a44:	e94ff0ef          	jal	ra,140d8 <ecmp>
   14a48:	18050a63          	beqz	a0,14bdc <ediv+0x23c>
   14a4c:	0124d603          	lhu	a2,18(s1)
   14a50:	000087b7          	lui	a5,0x8
   14a54:	fff78793          	addi	a5,a5,-1 # 7fff <exit-0x80e9>
   14a58:	00f67533          	and	a0,a2,a5
   14a5c:	0ef51063          	bne	a0,a5,14b3c <ediv+0x19c>
   14a60:	01248693          	addi	a3,s1,18
   14a64:	00048793          	mv	a5,s1
   14a68:	0007d703          	lhu	a4,0(a5)
   14a6c:	00278793          	addi	a5,a5,2
   14a70:	0c071663          	bnez	a4,14b3c <ediv+0x19c>
   14a74:	fed79ae3          	bne	a5,a3,14a68 <ediv+0xc8>
   14a78:	0129d703          	lhu	a4,18(s3)
   14a7c:	fff74793          	not	a5,a4
   14a80:	03179693          	slli	a3,a5,0x31
   14a84:	14069263          	bnez	a3,14bc8 <ediv+0x228>
   14a88:	01298693          	addi	a3,s3,18
   14a8c:	00098793          	mv	a5,s3
   14a90:	0007d583          	lhu	a1,0(a5)
   14a94:	00278793          	addi	a5,a5,2
   14a98:	48059c63          	bnez	a1,14f30 <ediv+0x590>
   14a9c:	fed79ae3          	bne	a5,a3,14a90 <ediv+0xf0>
   14aa0:	01040713          	addi	a4,s0,16
   14aa4:	00040793          	mv	a5,s0
   14aa8:	00278793          	addi	a5,a5,2
   14aac:	fe079f23          	sh	zero,-2(a5)
   14ab0:	fee79ce3          	bne	a5,a4,14aa8 <ediv+0x108>
   14ab4:	ffffc7b7          	lui	a5,0xffffc
   14ab8:	00f41823          	sh	a5,16(s0)
   14abc:	ffff87b7          	lui	a5,0xffff8
   14ac0:	fff7c793          	not	a5,a5
   14ac4:	00f41923          	sh	a5,18(s0)
   14ac8:	0e813083          	ld	ra,232(sp)
   14acc:	0e013403          	ld	s0,224(sp)
   14ad0:	0d813483          	ld	s1,216(sp)
   14ad4:	0d013903          	ld	s2,208(sp)
   14ad8:	0c813983          	ld	s3,200(sp)
   14adc:	0c013a03          	ld	s4,192(sp)
   14ae0:	0b813a83          	ld	s5,184(sp)
   14ae4:	0b013b03          	ld	s6,176(sp)
   14ae8:	0a813b83          	ld	s7,168(sp)
   14aec:	0a013c03          	ld	s8,160(sp)
   14af0:	09813c83          	ld	s9,152(sp)
   14af4:	09013d03          	ld	s10,144(sp)
   14af8:	08813d83          	ld	s11,136(sp)
   14afc:	0f010113          	addi	sp,sp,240
   14b00:	00008067          	ret
   14b04:	01448713          	addi	a4,s1,20
   14b08:	0004d783          	lhu	a5,0(s1)
   14b0c:	00248493          	addi	s1,s1,2
   14b10:	00240413          	addi	s0,s0,2
   14b14:	fef41f23          	sh	a5,-2(s0)
   14b18:	fee498e3          	bne	s1,a4,14b08 <ediv+0x168>
   14b1c:	fadff06f          	j	14ac8 <ediv+0x128>
   14b20:	01440713          	addi	a4,s0,20
   14b24:	0009d783          	lhu	a5,0(s3)
   14b28:	00240413          	addi	s0,s0,2
   14b2c:	00298993          	addi	s3,s3,2
   14b30:	fef41f23          	sh	a5,-2(s0)
   14b34:	fee418e3          	bne	s0,a4,14b24 <ediv+0x184>
   14b38:	f91ff06f          	j	14ac8 <ediv+0x128>
   14b3c:	0129d703          	lhu	a4,18(s3)
   14b40:	fff74793          	not	a5,a4
   14b44:	03179693          	slli	a3,a5,0x31
   14b48:	0a069463          	bnez	a3,14bf0 <ediv+0x250>
   14b4c:	00000813          	li	a6,0
   14b50:	01298693          	addi	a3,s3,18
   14b54:	00098793          	mv	a5,s3
   14b58:	0007d583          	lhu	a1,0(a5) # ffffffffffff8000 <__BSS_END__+0xfffffffffffd31f8>
   14b5c:	00278793          	addi	a5,a5,2
   14b60:	06059263          	bnez	a1,14bc4 <ediv+0x224>
   14b64:	fed79ae3          	bne	a5,a3,14b58 <ediv+0x1b8>
   14b68:	000087b7          	lui	a5,0x8
   14b6c:	fff78793          	addi	a5,a5,-1 # 7fff <exit-0x80e9>
   14b70:	0cf50863          	beq	a0,a5,14c40 <ediv+0x2a0>
   14b74:	00f65613          	srli	a2,a2,0xf
   14b78:	0009d783          	lhu	a5,0(s3)
   14b7c:	00298993          	addi	s3,s3,2
   14b80:	3a079063          	bnez	a5,14f20 <ediv+0x580>
   14b84:	fed99ae3          	bne	s3,a3,14b78 <ediv+0x1d8>
   14b88:	00f75793          	srli	a5,a4,0xf
   14b8c:	00c7c7b3          	xor	a5,a5,a2
   14b90:	00f7979b          	slliw	a5,a5,0xf
   14b94:	00f41923          	sh	a5,18(s0)
   14b98:	01240713          	addi	a4,s0,18
   14b9c:	00040793          	mv	a5,s0
   14ba0:	00278793          	addi	a5,a5,2
   14ba4:	fe079f23          	sh	zero,-2(a5)
   14ba8:	fee79ce3          	bne	a5,a4,14ba0 <ediv+0x200>
   14bac:	01245783          	lhu	a5,18(s0)
   14bb0:	00008737          	lui	a4,0x8
   14bb4:	fff70713          	addi	a4,a4,-1 # 7fff <exit-0x80e9>
   14bb8:	00e7e7b3          	or	a5,a5,a4
   14bbc:	00f41923          	sh	a5,18(s0)
   14bc0:	f09ff06f          	j	14ac8 <ediv+0x128>
   14bc4:	02080663          	beqz	a6,14bf0 <ediv+0x250>
   14bc8:	01440793          	addi	a5,s0,20
   14bcc:	00240413          	addi	s0,s0,2
   14bd0:	fe041f23          	sh	zero,-2(s0)
   14bd4:	fef41ce3          	bne	s0,a5,14bcc <ediv+0x22c>
   14bd8:	ef1ff06f          	j	14ac8 <ediv+0x128>
   14bdc:	290a0593          	addi	a1,s4,656
   14be0:	00098513          	mv	a0,s3
   14be4:	cf4ff0ef          	jal	ra,140d8 <ecmp>
   14be8:	e60512e3          	bnez	a0,14a4c <ediv+0xac>
   14bec:	eb5ff06f          	j	14aa0 <ediv+0x100>
   14bf0:	02010593          	addi	a1,sp,32
   14bf4:	00048513          	mv	a0,s1
   14bf8:	c28ff0ef          	jal	ra,14020 <emovi>
   14bfc:	04010593          	addi	a1,sp,64
   14c00:	00098513          	mv	a0,s3
   14c04:	c1cff0ef          	jal	ra,14020 <emovi>
   14c08:	04215b03          	lhu	s6,66(sp)
   14c0c:	02215c03          	lhu	s8,34(sp)
   14c10:	040b1463          	bnez	s6,14c58 <ediv+0x2b8>
   14c14:	04210793          	addi	a5,sp,66
   14c18:	05810c93          	addi	s9,sp,88
   14c1c:	0007d703          	lhu	a4,0(a5)
   14c20:	00278793          	addi	a5,a5,2
   14c24:	2c071a63          	bnez	a4,14ef8 <ediv+0x558>
   14c28:	fefc9ae3          	bne	s9,a5,14c1c <ediv+0x27c>
   14c2c:	01440793          	addi	a5,s0,20
   14c30:	00240413          	addi	s0,s0,2
   14c34:	fe041f23          	sh	zero,-2(s0)
   14c38:	fef41ce3          	bne	s0,a5,14c30 <ediv+0x290>
   14c3c:	e8dff06f          	j	14ac8 <ediv+0x128>
   14c40:	01248593          	addi	a1,s1,18
   14c44:	0004d783          	lhu	a5,0(s1)
   14c48:	00248493          	addi	s1,s1,2
   14c4c:	2c079e63          	bnez	a5,14f28 <ediv+0x588>
   14c50:	feb49ae3          	bne	s1,a1,14c44 <ediv+0x2a4>
   14c54:	f21ff06f          	j	14b74 <ediv+0x1d4>
   14c58:	01613423          	sd	s6,8(sp)
   14c5c:	040c1663          	bnez	s8,14ca8 <ediv+0x308>
   14c60:	02210793          	addi	a5,sp,34
   14c64:	03810693          	addi	a3,sp,56
   14c68:	0007d703          	lhu	a4,0(a5)
   14c6c:	00278793          	addi	a5,a5,2
   14c70:	28071e63          	bnez	a4,14f0c <ediv+0x56c>
   14c74:	fed79ae3          	bne	a5,a3,14c68 <ediv+0x2c8>
   14c78:	02015683          	lhu	a3,32(sp)
   14c7c:	04015603          	lhu	a2,64(sp)
   14c80:	01240713          	addi	a4,s0,18
   14c84:	00040793          	mv	a5,s0
   14c88:	40c686b3          	sub	a3,a3,a2
   14c8c:	00d036b3          	snez	a3,a3
   14c90:	00f6969b          	slliw	a3,a3,0xf
   14c94:	00d41923          	sh	a3,18(s0)
   14c98:	00278793          	addi	a5,a5,2
   14c9c:	fe079f23          	sh	zero,-2(a5)
   14ca0:	fee79ce3          	bne	a5,a4,14c98 <ediv+0x2f8>
   14ca4:	f09ff06f          	j	14bac <ediv+0x20c>
   14ca8:	01813823          	sd	s8,16(sp)
   14cac:	04012783          	lw	a5,64(sp)
   14cb0:	03890493          	addi	s1,s2,56
   14cb4:	03490713          	addi	a4,s2,52
   14cb8:	02f92a23          	sw	a5,52(s2)
   14cbc:	00e13c23          	sd	a4,24(sp)
   14cc0:	04e90993          	addi	s3,s2,78
   14cc4:	00048793          	mv	a5,s1
   14cc8:	00278793          	addi	a5,a5,2
   14ccc:	fe079f23          	sh	zero,-2(a5)
   14cd0:	ff379ce3          	bne	a5,s3,14cc8 <ediv+0x328>
   14cd4:	04010513          	addi	a0,sp,64
   14cd8:	de9fe0ef          	jal	ra,13ac0 <eshdn1>
   14cdc:	02615b83          	lhu	s7,38(sp)
   14ce0:	00010a37          	lui	s4,0x10
   14ce4:	04210d13          	addi	s10,sp,66
   14ce8:	010b9a93          	slli	s5,s7,0x10
   14cec:	417a8ab3          	sub	s5,s5,s7
   14cf0:	05810c93          	addi	s9,sp,88
   14cf4:	fffa0a13          	addi	s4,s4,-1 # ffff <exit-0xe9>
   14cf8:	07a10d93          	addi	s11,sp,122
   14cfc:	06210c13          	addi	s8,sp,98
   14d00:	04415503          	lhu	a0,68(sp)
   14d04:	04615783          	lhu	a5,70(sp)
   14d08:	000a0b13          	mv	s6,s4
   14d0c:	01051513          	slli	a0,a0,0x10
   14d10:	00f50533          	add	a0,a0,a5
   14d14:	00aaea63          	bltu	s5,a0,14d28 <ediv+0x388>
   14d18:	000b8593          	mv	a1,s7
   14d1c:	6bd0c0ef          	jal	ra,21bd8 <__hidden___udivdi3>
   14d20:	03051b13          	slli	s6,a0,0x30
   14d24:	030b5b13          	srli	s6,s6,0x30
   14d28:	06010613          	addi	a2,sp,96
   14d2c:	02010593          	addi	a1,sp,32
   14d30:	000b0513          	mv	a0,s6
   14d34:	e31fe0ef          	jal	ra,13b64 <m16m>
   14d38:	04410713          	addi	a4,sp,68
   14d3c:	06410793          	addi	a5,sp,100
   14d40:	0007d603          	lhu	a2,0(a5)
   14d44:	00075683          	lhu	a3,0(a4)
   14d48:	00278793          	addi	a5,a5,2
   14d4c:	00270713          	addi	a4,a4,2
   14d50:	0ed61a63          	bne	a2,a3,14e44 <ediv+0x4a4>
   14d54:	ffb796e3          	bne	a5,s11,14d40 <ediv+0x3a0>
   14d58:	00000693          	li	a3,0
   14d5c:	07810613          	addi	a2,sp,120
   14d60:	000c8793          	mv	a5,s9
   14d64:	0007d703          	lhu	a4,0(a5)
   14d68:	00065583          	lhu	a1,0(a2)
   14d6c:	ffe78793          	addi	a5,a5,-2
   14d70:	ffe60613          	addi	a2,a2,-2
   14d74:	40b70733          	sub	a4,a4,a1
   14d78:	40d70733          	sub	a4,a4,a3
   14d7c:	01075693          	srli	a3,a4,0x10
   14d80:	00e79123          	sh	a4,2(a5)
   14d84:	0016f693          	andi	a3,a3,1
   14d88:	fda79ee3          	bne	a5,s10,14d64 <ediv+0x3c4>
   14d8c:	01649023          	sh	s6,0(s1)
   14d90:	04410793          	addi	a5,sp,68
   14d94:	0027d703          	lhu	a4,2(a5)
   14d98:	00278793          	addi	a5,a5,2
   14d9c:	fee79f23          	sh	a4,-2(a5)
   14da0:	ff979ae3          	bne	a5,s9,14d94 <ediv+0x3f4>
   14da4:	04011c23          	sh	zero,88(sp)
   14da8:	00248493          	addi	s1,s1,2
   14dac:	f4999ae3          	bne	s3,s1,14d00 <ediv+0x360>
   14db0:	00000713          	li	a4,0
   14db4:	04410793          	addi	a5,sp,68
   14db8:	05a10693          	addi	a3,sp,90
   14dbc:	0007d603          	lhu	a2,0(a5)
   14dc0:	00278793          	addi	a5,a5,2
   14dc4:	00c76733          	or	a4,a4,a2
   14dc8:	fed79ae3          	bne	a5,a3,14dbc <ediv+0x41c>
   14dcc:	01813483          	ld	s1,24(sp)
   14dd0:	0007071b          	sext.w	a4,a4
   14dd4:	00e035b3          	snez	a1,a4
   14dd8:	04010793          	addi	a5,sp,64
   14ddc:	0004d703          	lhu	a4,0(s1)
   14de0:	00278793          	addi	a5,a5,2
   14de4:	00248493          	addi	s1,s1,2
   14de8:	fee79f23          	sh	a4,-2(a5)
   14dec:	fef698e3          	bne	a3,a5,14ddc <ediv+0x43c>
   14df0:	00813783          	ld	a5,8(sp)
   14df4:	01013703          	ld	a4,16(sp)
   14df8:	000046b7          	lui	a3,0x4
   14dfc:	fff68693          	addi	a3,a3,-1 # 3fff <exit-0xc0e9>
   14e00:	40e78b33          	sub	s6,a5,a4
   14e04:	04010513          	addi	a0,sp,64
   14e08:	00090793          	mv	a5,s2
   14e0c:	04000713          	li	a4,64
   14e10:	00db06b3          	add	a3,s6,a3
   14e14:	00000613          	li	a2,0
   14e18:	c10ff0ef          	jal	ra,14228 <emdnorm>
   14e1c:	04015703          	lhu	a4,64(sp)
   14e20:	02015783          	lhu	a5,32(sp)
   14e24:	00040593          	mv	a1,s0
   14e28:	04010513          	addi	a0,sp,64
   14e2c:	40e787b3          	sub	a5,a5,a4
   14e30:	00f037b3          	snez	a5,a5
   14e34:	40f007bb          	negw	a5,a5
   14e38:	04f11023          	sh	a5,64(sp)
   14e3c:	df9fe0ef          	jal	ra,13c34 <emovo.constprop.0>
   14e40:	c89ff06f          	j	14ac8 <ediv+0x128>
   14e44:	f0c6fae3          	bgeu	a3,a2,14d58 <ediv+0x3b8>
   14e48:	fffb079b          	addiw	a5,s6,-1
   14e4c:	03079513          	slli	a0,a5,0x30
   14e50:	03055513          	srli	a0,a0,0x30
   14e54:	00000693          	li	a3,0
   14e58:	03810613          	addi	a2,sp,56
   14e5c:	07810713          	addi	a4,sp,120
   14e60:	00075783          	lhu	a5,0(a4)
   14e64:	00065583          	lhu	a1,0(a2)
   14e68:	ffe70713          	addi	a4,a4,-2
   14e6c:	ffe60613          	addi	a2,a2,-2
   14e70:	40b787b3          	sub	a5,a5,a1
   14e74:	40d787b3          	sub	a5,a5,a3
   14e78:	0107d693          	srli	a3,a5,0x10
   14e7c:	00f71123          	sh	a5,2(a4)
   14e80:	0016f693          	andi	a3,a3,1
   14e84:	fd871ee3          	bne	a4,s8,14e60 <ediv+0x4c0>
   14e88:	04410713          	addi	a4,sp,68
   14e8c:	06410793          	addi	a5,sp,100
   14e90:	0007d603          	lhu	a2,0(a5)
   14e94:	00075683          	lhu	a3,0(a4)
   14e98:	00278793          	addi	a5,a5,2
   14e9c:	00270713          	addi	a4,a4,2
   14ea0:	00d61863          	bne	a2,a3,14eb0 <ediv+0x510>
   14ea4:	ffb796e3          	bne	a5,s11,14e90 <ediv+0x4f0>
   14ea8:	00050b13          	mv	s6,a0
   14eac:	eadff06f          	j	14d58 <ediv+0x3b8>
   14eb0:	fec6fce3          	bgeu	a3,a2,14ea8 <ediv+0x508>
   14eb4:	ffeb031b          	addiw	t1,s6,-2
   14eb8:	03031b13          	slli	s6,t1,0x30
   14ebc:	030b5b13          	srli	s6,s6,0x30
   14ec0:	00000693          	li	a3,0
   14ec4:	03810613          	addi	a2,sp,56
   14ec8:	07810713          	addi	a4,sp,120
   14ecc:	00075783          	lhu	a5,0(a4)
   14ed0:	00065583          	lhu	a1,0(a2)
   14ed4:	ffe70713          	addi	a4,a4,-2
   14ed8:	ffe60613          	addi	a2,a2,-2
   14edc:	40b787b3          	sub	a5,a5,a1
   14ee0:	40d787b3          	sub	a5,a5,a3
   14ee4:	0107d693          	srli	a3,a5,0x10
   14ee8:	00f71123          	sh	a5,2(a4)
   14eec:	0016f693          	andi	a3,a3,1
   14ef0:	fd871ee3          	bne	a4,s8,14ecc <ediv+0x52c>
   14ef4:	e65ff06f          	j	14d58 <ediv+0x3b8>
   14ef8:	04010513          	addi	a0,sp,64
   14efc:	df5fe0ef          	jal	ra,13cf0 <enormlz>
   14f00:	40a007b3          	neg	a5,a0
   14f04:	00f13423          	sd	a5,8(sp)
   14f08:	d55ff06f          	j	14c5c <ediv+0x2bc>
   14f0c:	02010513          	addi	a0,sp,32
   14f10:	de1fe0ef          	jal	ra,13cf0 <enormlz>
   14f14:	40a007b3          	neg	a5,a0
   14f18:	00f13823          	sd	a5,16(sp)
   14f1c:	d91ff06f          	j	14cac <ediv+0x30c>
   14f20:	00000793          	li	a5,0
   14f24:	c69ff06f          	j	14b8c <ediv+0x1ec>
   14f28:	00000613          	li	a2,0
   14f2c:	c4dff06f          	j	14b78 <ediv+0x1d8>
   14f30:	00100813          	li	a6,1
   14f34:	c21ff06f          	j	14b54 <ediv+0x1b4>

0000000000014f38 <emul>:
   14f38:	01255803          	lhu	a6,18(a0)
   14f3c:	00008737          	lui	a4,0x8
   14f40:	f4010113          	addi	sp,sp,-192
   14f44:	fff70713          	addi	a4,a4,-1 # 7fff <exit-0x80e9>
   14f48:	0a813823          	sd	s0,176(sp)
   14f4c:	0a913423          	sd	s1,168(sp)
   14f50:	0b213023          	sd	s2,160(sp)
   14f54:	09513423          	sd	s5,136(sp)
   14f58:	00050493          	mv	s1,a0
   14f5c:	0a113c23          	sd	ra,184(sp)
   14f60:	09313c23          	sd	s3,152(sp)
   14f64:	09413823          	sd	s4,144(sp)
   14f68:	09613023          	sd	s6,128(sp)
   14f6c:	07713c23          	sd	s7,120(sp)
   14f70:	07813823          	sd	s8,112(sp)
   14f74:	07913423          	sd	s9,104(sp)
   14f78:	07a13023          	sd	s10,96(sp)
   14f7c:	00e87533          	and	a0,a6,a4
   14f80:	00058913          	mv	s2,a1
   14f84:	00060413          	mv	s0,a2
   14f88:	00068a93          	mv	s5,a3
   14f8c:	18e51663          	bne	a0,a4,15118 <emul+0x1e0>
   14f90:	01248993          	addi	s3,s1,18
   14f94:	00048713          	mv	a4,s1
   14f98:	00075603          	lhu	a2,0(a4)
   14f9c:	00270713          	addi	a4,a4,2
   14fa0:	20061463          	bnez	a2,151a8 <emul+0x270>
   14fa4:	ff371ae3          	bne	a4,s3,14f98 <emul+0x60>
   14fa8:	01295603          	lhu	a2,18(s2)
   14fac:	fff64793          	not	a5,a2
   14fb0:	03179713          	slli	a4,a5,0x31
   14fb4:	16070863          	beqz	a4,15124 <emul+0x1ec>
   14fb8:	00048793          	mv	a5,s1
   14fbc:	0007d703          	lhu	a4,0(a5)
   14fc0:	00278793          	addi	a5,a5,2
   14fc4:	28071063          	bnez	a4,15244 <emul+0x30c>
   14fc8:	ff379ae3          	bne	a5,s3,14fbc <emul+0x84>
   14fcc:	000225b7          	lui	a1,0x22
   14fd0:	29058593          	addi	a1,a1,656 # 22290 <ezero>
   14fd4:	00090513          	mv	a0,s2
   14fd8:	900ff0ef          	jal	ra,140d8 <ecmp>
   14fdc:	28050e63          	beqz	a0,15278 <emul+0x340>
   14fe0:	01295603          	lhu	a2,18(s2)
   14fe4:	000085b7          	lui	a1,0x8
   14fe8:	fff58593          	addi	a1,a1,-1 # 7fff <exit-0x80e9>
   14fec:	00b67733          	and	a4,a2,a1
   14ff0:	00070693          	mv	a3,a4
   14ff4:	01290793          	addi	a5,s2,18
   14ff8:	40b71e63          	bne	a4,a1,15414 <emul+0x4dc>
   14ffc:	00090713          	mv	a4,s2
   15000:	00075683          	lhu	a3,0(a4)
   15004:	00270713          	addi	a4,a4,2
   15008:	20069263          	bnez	a3,1520c <emul+0x2d4>
   1500c:	fee79ae3          	bne	a5,a4,15000 <emul+0xc8>
   15010:	000225b7          	lui	a1,0x22
   15014:	29058593          	addi	a1,a1,656 # 22290 <ezero>
   15018:	00048513          	mv	a0,s1
   1501c:	8bcff0ef          	jal	ra,140d8 <ecmp>
   15020:	24050c63          	beqz	a0,15278 <emul+0x340>
   15024:	0124d803          	lhu	a6,18(s1)
   15028:	01295603          	lhu	a2,18(s2)
   1502c:	000087b7          	lui	a5,0x8
   15030:	fff78793          	addi	a5,a5,-1 # 7fff <exit-0x80e9>
   15034:	00f87733          	and	a4,a6,a5
   15038:	00f676b3          	and	a3,a2,a5
   1503c:	00070593          	mv	a1,a4
   15040:	1ef70263          	beq	a4,a5,15224 <emul+0x2ec>
   15044:	00068713          	mv	a4,a3
   15048:	00058693          	mv	a3,a1
   1504c:	000087b7          	lui	a5,0x8
   15050:	0007071b          	sext.w	a4,a4
   15054:	fff78793          	addi	a5,a5,-1 # 7fff <exit-0x80e9>
   15058:	0ef71e63          	bne	a4,a5,15154 <emul+0x21c>
   1505c:	01290793          	addi	a5,s2,18
   15060:	00090713          	mv	a4,s2
   15064:	00075583          	lhu	a1,0(a4)
   15068:	00270713          	addi	a4,a4,2
   1506c:	0e059463          	bnez	a1,15154 <emul+0x21c>
   15070:	fef71ae3          	bne	a4,a5,15064 <emul+0x12c>
   15074:	000085b7          	lui	a1,0x8
   15078:	fff58593          	addi	a1,a1,-1 # 7fff <exit-0x80e9>
   1507c:	0006871b          	sext.w	a4,a3
   15080:	01248993          	addi	s3,s1,18
   15084:	22b69063          	bne	a3,a1,152a4 <emul+0x36c>
   15088:	0004d783          	lhu	a5,0(s1)
   1508c:	00248493          	addi	s1,s1,2
   15090:	20079e63          	bnez	a5,152ac <emul+0x374>
   15094:	fe999ae3          	bne	s3,s1,15088 <emul+0x150>
   15098:	00f85813          	srli	a6,a6,0xf
   1509c:	000087b7          	lui	a5,0x8
   150a0:	fff78793          	addi	a5,a5,-1 # 7fff <exit-0x80e9>
   150a4:	1af70e63          	beq	a4,a5,15260 <emul+0x328>
   150a8:	00f65793          	srli	a5,a2,0xf
   150ac:	0107c7b3          	xor	a5,a5,a6
   150b0:	00f7979b          	slliw	a5,a5,0xf
   150b4:	00f41923          	sh	a5,18(s0)
   150b8:	01240713          	addi	a4,s0,18
   150bc:	00040793          	mv	a5,s0
   150c0:	00278793          	addi	a5,a5,2
   150c4:	fe079f23          	sh	zero,-2(a5)
   150c8:	fee79ce3          	bne	a5,a4,150c0 <emul+0x188>
   150cc:	01245783          	lhu	a5,18(s0)
   150d0:	00008737          	lui	a4,0x8
   150d4:	fff70713          	addi	a4,a4,-1 # 7fff <exit-0x80e9>
   150d8:	00e7e7b3          	or	a5,a5,a4
   150dc:	00f41923          	sh	a5,18(s0)
   150e0:	0b813083          	ld	ra,184(sp)
   150e4:	0b013403          	ld	s0,176(sp)
   150e8:	0a813483          	ld	s1,168(sp)
   150ec:	0a013903          	ld	s2,160(sp)
   150f0:	09813983          	ld	s3,152(sp)
   150f4:	09013a03          	ld	s4,144(sp)
   150f8:	08813a83          	ld	s5,136(sp)
   150fc:	08013b03          	ld	s6,128(sp)
   15100:	07813b83          	ld	s7,120(sp)
   15104:	07013c03          	ld	s8,112(sp)
   15108:	06813c83          	ld	s9,104(sp)
   1510c:	06013d03          	ld	s10,96(sp)
   15110:	0c010113          	addi	sp,sp,192
   15114:	00008067          	ret
   15118:	0125d603          	lhu	a2,18(a1)
   1511c:	00e677b3          	and	a5,a2,a4
   15120:	02e79a63          	bne	a5,a4,15154 <emul+0x21c>
   15124:	01290793          	addi	a5,s2,18
   15128:	00090713          	mv	a4,s2
   1512c:	00075683          	lhu	a3,0(a4)
   15130:	00270713          	addi	a4,a4,2
   15134:	08069863          	bnez	a3,151c4 <emul+0x28c>
   15138:	fef71ae3          	bne	a4,a5,1512c <emul+0x1f4>
   1513c:	00008737          	lui	a4,0x8
   15140:	fff70713          	addi	a4,a4,-1 # 7fff <exit-0x80e9>
   15144:	01248993          	addi	s3,s1,18
   15148:	e6e508e3          	beq	a0,a4,14fb8 <emul+0x80>
   1514c:	00e676b3          	and	a3,a2,a4
   15150:	eae686e3          	beq	a3,a4,14ffc <emul+0xc4>
   15154:	00048513          	mv	a0,s1
   15158:	00010593          	mv	a1,sp
   1515c:	ec5fe0ef          	jal	ra,14020 <emovi>
   15160:	00090513          	mv	a0,s2
   15164:	02010593          	addi	a1,sp,32
   15168:	eb9fe0ef          	jal	ra,14020 <emovi>
   1516c:	00215903          	lhu	s2,2(sp)
   15170:	02215483          	lhu	s1,34(sp)
   15174:	06090663          	beqz	s2,151e0 <emul+0x2a8>
   15178:	14049a63          	bnez	s1,152cc <emul+0x394>
   1517c:	02210793          	addi	a5,sp,34
   15180:	03810693          	addi	a3,sp,56
   15184:	0007d703          	lhu	a4,0(a5)
   15188:	00278793          	addi	a5,a5,2
   1518c:	26071a63          	bnez	a4,15400 <emul+0x4c8>
   15190:	fed79ae3          	bne	a5,a3,15184 <emul+0x24c>
   15194:	01440793          	addi	a5,s0,20
   15198:	00240413          	addi	s0,s0,2
   1519c:	fe041f23          	sh	zero,-2(s0)
   151a0:	fe879ce3          	bne	a5,s0,15198 <emul+0x260>
   151a4:	f3dff06f          	j	150e0 <emul+0x1a8>
   151a8:	01440713          	addi	a4,s0,20
   151ac:	0004d783          	lhu	a5,0(s1)
   151b0:	00240413          	addi	s0,s0,2
   151b4:	00248493          	addi	s1,s1,2
   151b8:	fef41f23          	sh	a5,-2(s0)
   151bc:	fee418e3          	bne	s0,a4,151ac <emul+0x274>
   151c0:	f21ff06f          	j	150e0 <emul+0x1a8>
   151c4:	01490713          	addi	a4,s2,20
   151c8:	00095783          	lhu	a5,0(s2)
   151cc:	00290913          	addi	s2,s2,2
   151d0:	00240413          	addi	s0,s0,2
   151d4:	fef41f23          	sh	a5,-2(s0)
   151d8:	ff2718e3          	bne	a4,s2,151c8 <emul+0x290>
   151dc:	f05ff06f          	j	150e0 <emul+0x1a8>
   151e0:	00210793          	addi	a5,sp,2
   151e4:	01810693          	addi	a3,sp,24
   151e8:	0007d703          	lhu	a4,0(a5)
   151ec:	00278793          	addi	a5,a5,2
   151f0:	20071063          	bnez	a4,153f0 <emul+0x4b8>
   151f4:	fef69ae3          	bne	a3,a5,151e8 <emul+0x2b0>
   151f8:	01440793          	addi	a5,s0,20
   151fc:	00240413          	addi	s0,s0,2
   15200:	fe041f23          	sh	zero,-2(s0)
   15204:	fef41ce3          	bne	s0,a5,151fc <emul+0x2c4>
   15208:	ed9ff06f          	j	150e0 <emul+0x1a8>
   1520c:	0124d803          	lhu	a6,18(s1)
   15210:	000085b7          	lui	a1,0x8
   15214:	fff58593          	addi	a1,a1,-1 # 7fff <exit-0x80e9>
   15218:	00b87733          	and	a4,a6,a1
   1521c:	00070693          	mv	a3,a4
   15220:	e4b710e3          	bne	a4,a1,15060 <emul+0x128>
   15224:	01248993          	addi	s3,s1,18
   15228:	00048793          	mv	a5,s1
   1522c:	0007d703          	lhu	a4,0(a5)
   15230:	00278793          	addi	a5,a5,2
   15234:	08071463          	bnez	a4,152bc <emul+0x384>
   15238:	fef99ae3          	bne	s3,a5,1522c <emul+0x2f4>
   1523c:	0006871b          	sext.w	a4,a3
   15240:	e49ff06f          	j	15088 <emul+0x150>
   15244:	000085b7          	lui	a1,0x8
   15248:	fff58593          	addi	a1,a1,-1 # 7fff <exit-0x80e9>
   1524c:	00b67733          	and	a4,a2,a1
   15250:	00070693          	mv	a3,a4
   15254:	01290793          	addi	a5,s2,18
   15258:	dab702e3          	beq	a4,a1,14ffc <emul+0xc4>
   1525c:	fcdff06f          	j	15228 <emul+0x2f0>
   15260:	01290793          	addi	a5,s2,18
   15264:	00095703          	lhu	a4,0(s2)
   15268:	00290913          	addi	s2,s2,2
   1526c:	04071463          	bnez	a4,152b4 <emul+0x37c>
   15270:	ff279ae3          	bne	a5,s2,15264 <emul+0x32c>
   15274:	e35ff06f          	j	150a8 <emul+0x170>
   15278:	01040713          	addi	a4,s0,16
   1527c:	00040793          	mv	a5,s0
   15280:	00278793          	addi	a5,a5,2
   15284:	fe079f23          	sh	zero,-2(a5)
   15288:	fef71ce3          	bne	a4,a5,15280 <emul+0x348>
   1528c:	ffffc7b7          	lui	a5,0xffffc
   15290:	00f41823          	sh	a5,16(s0)
   15294:	ffff87b7          	lui	a5,0xffff8
   15298:	fff7c793          	not	a5,a5
   1529c:	00f41923          	sh	a5,18(s0)
   152a0:	e41ff06f          	j	150e0 <emul+0x1a8>
   152a4:	00f85813          	srli	a6,a6,0xf
   152a8:	fbdff06f          	j	15264 <emul+0x32c>
   152ac:	00000813          	li	a6,0
   152b0:	dedff06f          	j	1509c <emul+0x164>
   152b4:	00000793          	li	a5,0
   152b8:	df5ff06f          	j	150ac <emul+0x174>
   152bc:	00068713          	mv	a4,a3
   152c0:	000086b7          	lui	a3,0x8
   152c4:	fff68693          	addi	a3,a3,-1 # 7fff <exit-0x80e9>
   152c8:	d85ff06f          	j	1504c <emul+0x114>
   152cc:	00048993          	mv	s3,s1
   152d0:	02015783          	lhu	a5,32(sp)
   152d4:	0104949b          	slliw	s1,s1,0x10
   152d8:	038a8a13          	addi	s4,s5,56
   152dc:	0097e7b3          	or	a5,a5,s1
   152e0:	02faaa23          	sw	a5,52(s5)
   152e4:	034a8493          	addi	s1,s5,52
   152e8:	000a0793          	mv	a5,s4
   152ec:	04ea8713          	addi	a4,s5,78
   152f0:	00079023          	sh	zero,0(a5) # ffffffffffff8000 <__BSS_END__+0xfffffffffffd31f8>
   152f4:	00278793          	addi	a5,a5,2
   152f8:	fee79ce3          	bne	a5,a4,152f0 <emul+0x3b8>
   152fc:	04ca8c93          	addi	s9,s5,76
   15300:	00000c13          	li	s8,0
   15304:	01810b13          	addi	s6,sp,24
   15308:	00410d13          	addi	s10,sp,4
   1530c:	04210b93          	addi	s7,sp,66
   15310:	000b5503          	lhu	a0,0(s6)
   15314:	ffeb0b13          	addi	s6,s6,-2
   15318:	08051a63          	bnez	a0,153ac <emul+0x474>
   1531c:	04cad783          	lhu	a5,76(s5)
   15320:	000c8713          	mv	a4,s9
   15324:	00fc6c33          	or	s8,s8,a5
   15328:	ffe75603          	lhu	a2,-2(a4)
   1532c:	ffe70713          	addi	a4,a4,-2
   15330:	00c71123          	sh	a2,2(a4)
   15334:	feea1ae3          	bne	s4,a4,15328 <emul+0x3f0>
   15338:	020a9c23          	sh	zero,56(s5)
   1533c:	fdab1ae3          	bne	s6,s10,15310 <emul+0x3d8>
   15340:	02010793          	addi	a5,sp,32
   15344:	03a10693          	addi	a3,sp,58
   15348:	0004d703          	lhu	a4,0(s1)
   1534c:	00278793          	addi	a5,a5,2
   15350:	00248493          	addi	s1,s1,2
   15354:	fee79f23          	sh	a4,-2(a5)
   15358:	fed798e3          	bne	a5,a3,15348 <emul+0x410>
   1535c:	ffffc6b7          	lui	a3,0xffffc
   15360:	01390933          	add	s2,s2,s3
   15364:	00268693          	addi	a3,a3,2 # ffffffffffffc002 <__BSS_END__+0xfffffffffffd71fa>
   15368:	000c0593          	mv	a1,s8
   1536c:	02010513          	addi	a0,sp,32
   15370:	000a8793          	mv	a5,s5
   15374:	04000713          	li	a4,64
   15378:	00d906b3          	add	a3,s2,a3
   1537c:	00000613          	li	a2,0
   15380:	ea9fe0ef          	jal	ra,14228 <emdnorm>
   15384:	02015703          	lhu	a4,32(sp)
   15388:	00015783          	lhu	a5,0(sp)
   1538c:	00040593          	mv	a1,s0
   15390:	02010513          	addi	a0,sp,32
   15394:	40e787b3          	sub	a5,a5,a4
   15398:	00f037b3          	snez	a5,a5
   1539c:	40f007bb          	negw	a5,a5
   153a0:	02f11023          	sh	a5,32(sp)
   153a4:	891fe0ef          	jal	ra,13c34 <emovo.constprop.0>
   153a8:	d39ff06f          	j	150e0 <emul+0x1a8>
   153ac:	04010613          	addi	a2,sp,64
   153b0:	02010593          	addi	a1,sp,32
   153b4:	fb0fe0ef          	jal	ra,13b64 <m16m>
   153b8:	000c8513          	mv	a0,s9
   153bc:	00000593          	li	a1,0
   153c0:	05810613          	addi	a2,sp,88
   153c4:	00055783          	lhu	a5,0(a0)
   153c8:	00065703          	lhu	a4,0(a2)
   153cc:	ffe50513          	addi	a0,a0,-2
   153d0:	ffe60613          	addi	a2,a2,-2
   153d4:	00f70733          	add	a4,a4,a5
   153d8:	00b70733          	add	a4,a4,a1
   153dc:	01075593          	srli	a1,a4,0x10
   153e0:	00e51123          	sh	a4,2(a0)
   153e4:	0015f593          	andi	a1,a1,1
   153e8:	fd761ee3          	bne	a2,s7,153c4 <emul+0x48c>
   153ec:	f31ff06f          	j	1531c <emul+0x3e4>
   153f0:	00010513          	mv	a0,sp
   153f4:	8fdfe0ef          	jal	ra,13cf0 <enormlz>
   153f8:	40a00933          	neg	s2,a0
   153fc:	d7dff06f          	j	15178 <emul+0x240>
   15400:	02010513          	addi	a0,sp,32
   15404:	8edfe0ef          	jal	ra,13cf0 <enormlz>
   15408:	40a009b3          	neg	s3,a0
   1540c:	02215483          	lhu	s1,34(sp)
   15410:	ec1ff06f          	j	152d0 <emul+0x398>
   15414:	0124d803          	lhu	a6,18(s1)
   15418:	00b877b3          	and	a5,a6,a1
   1541c:	e0b786e3          	beq	a5,a1,15228 <emul+0x2f0>
   15420:	d35ff06f          	j	15154 <emul+0x21c>

0000000000015424 <_ldtoa_r>:
   15424:	d8010113          	addi	sp,sp,-640
   15428:	09100313          	li	t1,145
   1542c:	06c13c23          	sd	a2,120(sp)
   15430:	06053e03          	ld	t3,96(a0)
   15434:	02031613          	slli	a2,t1,0x20
   15438:	fff60613          	addi	a2,a2,-1
   1543c:	26813823          	sd	s0,624(sp)
   15440:	27213023          	sd	s2,608(sp)
   15444:	26113c23          	sd	ra,632(sp)
   15448:	26913423          	sd	s1,616(sp)
   1544c:	25313c23          	sd	s3,600(sp)
   15450:	25413823          	sd	s4,592(sp)
   15454:	25513423          	sd	s5,584(sp)
   15458:	25613023          	sd	s6,576(sp)
   1545c:	23713c23          	sd	s7,568(sp)
   15460:	23813823          	sd	s8,560(sp)
   15464:	23913423          	sd	s9,552(sp)
   15468:	23a13023          	sd	s10,544(sp)
   1546c:	21b13c23          	sd	s11,536(sp)
   15470:	06b13823          	sd	a1,112(sp)
   15474:	1cc13023          	sd	a2,448(sp)
   15478:	00d13423          	sd	a3,8(sp)
   1547c:	00e13c23          	sd	a4,24(sp)
   15480:	02f13023          	sd	a5,32(sp)
   15484:	03113423          	sd	a7,40(sp)
   15488:	00050913          	mv	s2,a0
   1548c:	00080413          	mv	s0,a6
   15490:	020e0863          	beqz	t3,154c0 <_ldtoa_r+0x9c>
   15494:	06852783          	lw	a5,104(a0)
   15498:	00100713          	li	a4,1
   1549c:	000e0593          	mv	a1,t3
   154a0:	00f7173b          	sllw	a4,a4,a5
   154a4:	02079793          	slli	a5,a5,0x20
   154a8:	02071713          	slli	a4,a4,0x20
   154ac:	0207d793          	srli	a5,a5,0x20
   154b0:	00e7e7b3          	or	a5,a5,a4
   154b4:	00fe3423          	sd	a5,8(t3)
   154b8:	7dd010ef          	jal	ra,17494 <_Bfree>
   154bc:	06093023          	sd	zero,96(s2)
   154c0:	0a010593          	addi	a1,sp,160
   154c4:	07010513          	addi	a0,sp,112
   154c8:	b80ff0ef          	jal	ra,14848 <e113toe.isra.0>
   154cc:	0b215683          	lhu	a3,178(sp)
   154d0:	000087b7          	lui	a5,0x8
   154d4:	fff78793          	addi	a5,a5,-1 # 7fff <exit-0x80e9>
   154d8:	00f6f733          	and	a4,a3,a5
   154dc:	02e13823          	sd	a4,48(sp)
   154e0:	46f70863          	beq	a4,a5,15950 <_ldtoa_r+0x52c>
   154e4:	0106979b          	slliw	a5,a3,0x10
   154e8:	4107d79b          	sraiw	a5,a5,0x10
   154ec:	00813703          	ld	a4,8(sp)
   154f0:	01f7d79b          	srliw	a5,a5,0x1f
   154f4:	00f42023          	sw	a5,0(s0)
   154f8:	00300793          	li	a5,3
   154fc:	12f70ae3          	beq	a4,a5,15e30 <_ldtoa_r+0xa0c>
   15500:	01400793          	li	a5,20
   15504:	00f13823          	sd	a5,16(sp)
   15508:	00813783          	ld	a5,8(sp)
   1550c:	140792e3          	bnez	a5,15e50 <_ldtoa_r+0xa2c>
   15510:	0c010793          	addi	a5,sp,192
   15514:	0a010713          	addi	a4,sp,160
   15518:	0d410413          	addi	s0,sp,212
   1551c:	00075683          	lhu	a3,0(a4)
   15520:	00278793          	addi	a5,a5,2
   15524:	00270713          	addi	a4,a4,2
   15528:	fed79f23          	sh	a3,-2(a5)
   1552c:	fe8798e3          	bne	a5,s0,1551c <_ldtoa_r+0xf8>
   15530:	0d215a83          	lhu	s5,210(sp)
   15534:	00000993          	li	s3,0
   15538:	00fad793          	srli	a5,s5,0xf
   1553c:	00078c63          	beqz	a5,15554 <_ldtoa_r+0x130>
   15540:	031a9f13          	slli	t5,s5,0x31
   15544:	031f5a93          	srli	s5,t5,0x31
   15548:	000107b7          	lui	a5,0x10
   1554c:	0d511923          	sh	s5,210(sp)
   15550:	fff78993          	addi	s3,a5,-1 # ffff <exit-0xe9>
   15554:	00022bb7          	lui	s7,0x22
   15558:	000224b7          	lui	s1,0x22
   1555c:	0e010713          	addi	a4,sp,224
   15560:	278b8793          	addi	a5,s7,632 # 22278 <eone>
