
echo：     文件格式 elf64-littleriscv


Disassembly of section .text:

00000000000100e8 <exit>:
   100e8:	ff010113          	addi	sp,sp,-16
   100ec:	00000593          	li	a1,0
   100f0:	00813023          	sd	s0,0(sp)
   100f4:	00113423          	sd	ra,8(sp)
   100f8:	00050413          	mv	s0,a0
   100fc:	56d050ef          	jal	ra,15e68 <__call_exitprocs>
   10100:	7401b503          	ld	a0,1856(gp) # 2f770 <_global_impure_ptr>
   10104:	05853783          	ld	a5,88(a0)
   10108:	00078463          	beqz	a5,10110 <exit+0x28>
   1010c:	000780e7          	jalr	a5
   10110:	00040513          	mv	a0,s0
   10114:	249180ef          	jal	ra,28b5c <_exit>

0000000000010118 <register_fini>:
   10118:	00000793          	li	a5,0
   1011c:	00078863          	beqz	a5,1012c <register_fini+0x14>
   10120:	00016537          	lui	a0,0x16
   10124:	64850513          	addi	a0,a0,1608 # 16648 <__libc_fini_array>
   10128:	5511206f          	j	22e78 <atexit>
   1012c:	00008067          	ret

0000000000010130 <_start>:
   10130:	0001f197          	auipc	gp,0x1f
   10134:	f0018193          	addi	gp,gp,-256 # 2f030 <__global_pointer$>
   10138:	76a18513          	addi	a0,gp,1898 # 2f79a <__bss_start>
   1013c:	0001f617          	auipc	a2,0x1f
   10140:	6f460613          	addi	a2,a2,1780 # 2f830 <__BSS_END__>
   10144:	40a60633          	sub	a2,a2,a0
   10148:	00000593          	li	a1,0
   1014c:	18c000ef          	jal	ra,102d8 <memset>
   10150:	00013517          	auipc	a0,0x13
   10154:	d2850513          	addi	a0,a0,-728 # 22e78 <atexit>
   10158:	00050863          	beqz	a0,10168 <_start+0x38>
   1015c:	00006517          	auipc	a0,0x6
   10160:	4ec50513          	addi	a0,a0,1260 # 16648 <__libc_fini_array>
   10164:	515120ef          	jal	ra,22e78 <atexit>
   10168:	0d4000ef          	jal	ra,1023c <__libc_init_array>
   1016c:	00012503          	lw	a0,0(sp)
   10170:	00810593          	addi	a1,sp,8
   10174:	00000613          	li	a2,0
   10178:	06c000ef          	jal	ra,101e4 <main>
   1017c:	f6dff06f          	j	100e8 <exit>

0000000000010180 <__do_global_dtors_aux>:
   10180:	ff010113          	addi	sp,sp,-16
   10184:	00813023          	sd	s0,0(sp)
   10188:	7a01c783          	lbu	a5,1952(gp) # 2f7d0 <completed.1>
   1018c:	00113423          	sd	ra,8(sp)
   10190:	02079263          	bnez	a5,101b4 <__do_global_dtors_aux+0x34>
   10194:	00000793          	li	a5,0
   10198:	00078a63          	beqz	a5,101ac <__do_global_dtors_aux+0x2c>
   1019c:	0002e537          	lui	a0,0x2e
   101a0:	59050513          	addi	a0,a0,1424 # 2e590 <__FRAME_END__>
   101a4:	00000097          	auipc	ra,0x0
   101a8:	000000e7          	jalr	zero # 0 <exit-0x100e8>
   101ac:	00100793          	li	a5,1
   101b0:	7af18023          	sb	a5,1952(gp) # 2f7d0 <completed.1>
   101b4:	00813083          	ld	ra,8(sp)
   101b8:	00013403          	ld	s0,0(sp)
   101bc:	01010113          	addi	sp,sp,16
   101c0:	00008067          	ret

00000000000101c4 <frame_dummy>:
   101c4:	00000793          	li	a5,0
   101c8:	00078c63          	beqz	a5,101e0 <frame_dummy+0x1c>
   101cc:	0002e537          	lui	a0,0x2e
   101d0:	7a818593          	addi	a1,gp,1960 # 2f7d8 <object.0>
   101d4:	59050513          	addi	a0,a0,1424 # 2e590 <__FRAME_END__>
   101d8:	00000317          	auipc	t1,0x0
   101dc:	00000067          	jr	zero # 0 <exit-0x100e8>
   101e0:	00008067          	ret

00000000000101e4 <main>:
   101e4:	fe010113          	addi	sp,sp,-32
   101e8:	00113c23          	sd	ra,24(sp)
   101ec:	00813823          	sd	s0,16(sp)
   101f0:	02010413          	addi	s0,sp,32
   101f4:	00500793          	li	a5,5
   101f8:	fef42623          	sw	a5,-20(s0)
   101fc:	fec40793          	addi	a5,s0,-20
   10200:	00078593          	mv	a1,a5
   10204:	0002c7b7          	lui	a5,0x2c
   10208:	e2078513          	addi	a0,a5,-480 # 2be20 <__clzdi2+0x50>
   1020c:	234000ef          	jal	ra,10440 <scanf>
   10210:	fec42783          	lw	a5,-20(s0)
   10214:	00078593          	mv	a1,a5
   10218:	0002c7b7          	lui	a5,0x2c
   1021c:	e2878513          	addi	a0,a5,-472 # 2be28 <__clzdi2+0x58>
   10220:	1d4000ef          	jal	ra,103f4 <printf>
   10224:	00000793          	li	a5,0
   10228:	00078513          	mv	a0,a5
   1022c:	01813083          	ld	ra,24(sp)
   10230:	01013403          	ld	s0,16(sp)
   10234:	02010113          	addi	sp,sp,32
   10238:	00008067          	ret

000000000001023c <__libc_init_array>:
   1023c:	fe010113          	addi	sp,sp,-32
   10240:	00813823          	sd	s0,16(sp)
   10244:	0002e7b7          	lui	a5,0x2e
   10248:	0002e437          	lui	s0,0x2e
   1024c:	01213023          	sd	s2,0(sp)
   10250:	59478793          	addi	a5,a5,1428 # 2e594 <__preinit_array_end>
   10254:	59440713          	addi	a4,s0,1428 # 2e594 <__preinit_array_end>
   10258:	00113c23          	sd	ra,24(sp)
   1025c:	00913423          	sd	s1,8(sp)
   10260:	40e78933          	sub	s2,a5,a4
   10264:	02e78263          	beq	a5,a4,10288 <__libc_init_array+0x4c>
   10268:	40395913          	srai	s2,s2,0x3
   1026c:	59440413          	addi	s0,s0,1428
   10270:	00000493          	li	s1,0
   10274:	00043783          	ld	a5,0(s0)
   10278:	00148493          	addi	s1,s1,1
   1027c:	00840413          	addi	s0,s0,8
   10280:	000780e7          	jalr	a5
   10284:	ff24e8e3          	bltu	s1,s2,10274 <__libc_init_array+0x38>
   10288:	0002e437          	lui	s0,0x2e
   1028c:	0002e7b7          	lui	a5,0x2e
   10290:	5a878793          	addi	a5,a5,1448 # 2e5a8 <__do_global_dtors_aux_fini_array_entry>
   10294:	59840713          	addi	a4,s0,1432 # 2e598 <__init_array_start>
   10298:	40e78933          	sub	s2,a5,a4
   1029c:	40395913          	srai	s2,s2,0x3
   102a0:	02e78063          	beq	a5,a4,102c0 <__libc_init_array+0x84>
   102a4:	59840413          	addi	s0,s0,1432
   102a8:	00000493          	li	s1,0
   102ac:	00043783          	ld	a5,0(s0)
   102b0:	00148493          	addi	s1,s1,1
   102b4:	00840413          	addi	s0,s0,8
   102b8:	000780e7          	jalr	a5
   102bc:	ff24e8e3          	bltu	s1,s2,102ac <__libc_init_array+0x70>
   102c0:	01813083          	ld	ra,24(sp)
   102c4:	01013403          	ld	s0,16(sp)
   102c8:	00813483          	ld	s1,8(sp)
   102cc:	00013903          	ld	s2,0(sp)
   102d0:	02010113          	addi	sp,sp,32
   102d4:	00008067          	ret

00000000000102d8 <memset>:
   102d8:	00f00313          	li	t1,15
   102dc:	00050713          	mv	a4,a0
   102e0:	02c37a63          	bgeu	t1,a2,10314 <memset+0x3c>
   102e4:	00f77793          	andi	a5,a4,15
   102e8:	0a079063          	bnez	a5,10388 <memset+0xb0>
   102ec:	06059e63          	bnez	a1,10368 <memset+0x90>
   102f0:	ff067693          	andi	a3,a2,-16
   102f4:	00f67613          	andi	a2,a2,15
   102f8:	00e686b3          	add	a3,a3,a4
   102fc:	00b73023          	sd	a1,0(a4)
   10300:	00b73423          	sd	a1,8(a4)
   10304:	01070713          	addi	a4,a4,16
   10308:	fed76ae3          	bltu	a4,a3,102fc <memset+0x24>
   1030c:	00061463          	bnez	a2,10314 <memset+0x3c>
   10310:	00008067          	ret
   10314:	40c306b3          	sub	a3,t1,a2
   10318:	00269693          	slli	a3,a3,0x2
   1031c:	00000297          	auipc	t0,0x0
   10320:	005686b3          	add	a3,a3,t0
   10324:	00c68067          	jr	12(a3)
   10328:	00b70723          	sb	a1,14(a4)
   1032c:	00b706a3          	sb	a1,13(a4)
   10330:	00b70623          	sb	a1,12(a4)
   10334:	00b705a3          	sb	a1,11(a4)
   10338:	00b70523          	sb	a1,10(a4)
   1033c:	00b704a3          	sb	a1,9(a4)
   10340:	00b70423          	sb	a1,8(a4)
   10344:	00b703a3          	sb	a1,7(a4)
   10348:	00b70323          	sb	a1,6(a4)
   1034c:	00b702a3          	sb	a1,5(a4)
   10350:	00b70223          	sb	a1,4(a4)
   10354:	00b701a3          	sb	a1,3(a4)
   10358:	00b70123          	sb	a1,2(a4)
   1035c:	00b700a3          	sb	a1,1(a4)
   10360:	00b70023          	sb	a1,0(a4)
   10364:	00008067          	ret
   10368:	0ff5f593          	zext.b	a1,a1
   1036c:	00859693          	slli	a3,a1,0x8
   10370:	00d5e5b3          	or	a1,a1,a3
   10374:	01059693          	slli	a3,a1,0x10
   10378:	00d5e5b3          	or	a1,a1,a3
   1037c:	02059693          	slli	a3,a1,0x20
   10380:	00d5e5b3          	or	a1,a1,a3
   10384:	f6dff06f          	j	102f0 <memset+0x18>
   10388:	00279693          	slli	a3,a5,0x2
   1038c:	00000297          	auipc	t0,0x0
   10390:	005686b3          	add	a3,a3,t0
   10394:	00008293          	mv	t0,ra
   10398:	f98680e7          	jalr	-104(a3)
   1039c:	00028093          	mv	ra,t0
   103a0:	ff078793          	addi	a5,a5,-16
   103a4:	40f70733          	sub	a4,a4,a5
   103a8:	00f60633          	add	a2,a2,a5
   103ac:	f6c374e3          	bgeu	t1,a2,10314 <memset+0x3c>
   103b0:	f3dff06f          	j	102ec <memset+0x14>

00000000000103b4 <_printf_r>:
   103b4:	fb010113          	addi	sp,sp,-80
   103b8:	02c13023          	sd	a2,32(sp)
   103bc:	02d13423          	sd	a3,40(sp)
   103c0:	02e13823          	sd	a4,48(sp)
   103c4:	02f13c23          	sd	a5,56(sp)
   103c8:	05013023          	sd	a6,64(sp)
   103cc:	05113423          	sd	a7,72(sp)
   103d0:	00058613          	mv	a2,a1
   103d4:	01053583          	ld	a1,16(a0)
   103d8:	02010693          	addi	a3,sp,32
   103dc:	00113c23          	sd	ra,24(sp)
   103e0:	00d13423          	sd	a3,8(sp)
   103e4:	0e8000ef          	jal	ra,104cc <_vfprintf_r>
   103e8:	01813083          	ld	ra,24(sp)
   103ec:	05010113          	addi	sp,sp,80
   103f0:	00008067          	ret

00000000000103f4 <printf>:
   103f4:	7501b303          	ld	t1,1872(gp) # 2f780 <_impure_ptr>
   103f8:	fa010113          	addi	sp,sp,-96
   103fc:	02c13823          	sd	a2,48(sp)
   10400:	02d13c23          	sd	a3,56(sp)
   10404:	02b13423          	sd	a1,40(sp)
   10408:	04e13023          	sd	a4,64(sp)
   1040c:	04f13423          	sd	a5,72(sp)
   10410:	05013823          	sd	a6,80(sp)
   10414:	05113c23          	sd	a7,88(sp)
   10418:	01033583          	ld	a1,16(t1) # 101e8 <main+0x4>
   1041c:	02810693          	addi	a3,sp,40
   10420:	00050613          	mv	a2,a0
   10424:	00030513          	mv	a0,t1
   10428:	00113c23          	sd	ra,24(sp)
   1042c:	00d13423          	sd	a3,8(sp)
   10430:	09c000ef          	jal	ra,104cc <_vfprintf_r>
   10434:	01813083          	ld	ra,24(sp)
   10438:	06010113          	addi	sp,sp,96
   1043c:	00008067          	ret

0000000000010440 <scanf>:
   10440:	7501b303          	ld	t1,1872(gp) # 2f780 <_impure_ptr>
   10444:	fa010113          	addi	sp,sp,-96
   10448:	02c13823          	sd	a2,48(sp)
   1044c:	02d13c23          	sd	a3,56(sp)
   10450:	02b13423          	sd	a1,40(sp)
   10454:	04e13023          	sd	a4,64(sp)
   10458:	04f13423          	sd	a5,72(sp)
   1045c:	05013823          	sd	a6,80(sp)
   10460:	05113c23          	sd	a7,88(sp)
   10464:	00833583          	ld	a1,8(t1)
   10468:	02810693          	addi	a3,sp,40
   1046c:	00050613          	mv	a2,a0
   10470:	00030513          	mv	a0,t1
   10474:	00113c23          	sd	ra,24(sp)
   10478:	00d13423          	sd	a3,8(sp)
   1047c:	04d050ef          	jal	ra,15cc8 <_vfscanf_r>
   10480:	01813083          	ld	ra,24(sp)
   10484:	06010113          	addi	sp,sp,96
   10488:	00008067          	ret

000000000001048c <_scanf_r>:
   1048c:	fb010113          	addi	sp,sp,-80
   10490:	02c13023          	sd	a2,32(sp)
   10494:	02d13423          	sd	a3,40(sp)
   10498:	02e13823          	sd	a4,48(sp)
   1049c:	02f13c23          	sd	a5,56(sp)
   104a0:	05013023          	sd	a6,64(sp)
   104a4:	05113423          	sd	a7,72(sp)
   104a8:	00058613          	mv	a2,a1
   104ac:	00853583          	ld	a1,8(a0)
   104b0:	02010693          	addi	a3,sp,32
   104b4:	00113c23          	sd	ra,24(sp)
   104b8:	00d13423          	sd	a3,8(sp)
   104bc:	00d050ef          	jal	ra,15cc8 <_vfscanf_r>
   104c0:	01813083          	ld	ra,24(sp)
   104c4:	05010113          	addi	sp,sp,80
   104c8:	00008067          	ret

00000000000104cc <_vfprintf_r>:
   104cc:	d9010113          	addi	sp,sp,-624
   104d0:	26113423          	sd	ra,616(sp)
   104d4:	26813023          	sd	s0,608(sp)
   104d8:	25213823          	sd	s2,592(sp)
   104dc:	00b13023          	sd	a1,0(sp)
   104e0:	00060913          	mv	s2,a2
   104e4:	02d13023          	sd	a3,32(sp)
   104e8:	24913c23          	sd	s1,600(sp)
   104ec:	25313423          	sd	s3,584(sp)
   104f0:	25413023          	sd	s4,576(sp)
   104f4:	23513c23          	sd	s5,568(sp)
   104f8:	23613823          	sd	s6,560(sp)
   104fc:	23713423          	sd	s7,552(sp)
   10500:	23813023          	sd	s8,544(sp)
   10504:	21913c23          	sd	s9,536(sp)
   10508:	21a13823          	sd	s10,528(sp)
   1050c:	21b13423          	sd	s11,520(sp)
   10510:	00050413          	mv	s0,a0
   10514:	04a13823          	sd	a0,80(sp)
   10518:	698090ef          	jal	ra,19bb0 <_localeconv_r>
   1051c:	00053703          	ld	a4,0(a0)
   10520:	00070513          	mv	a0,a4
   10524:	06e13023          	sd	a4,96(sp)
   10528:	6f00c0ef          	jal	ra,1cc18 <strlen>
   1052c:	04a13c23          	sd	a0,88(sp)
   10530:	0e013823          	sd	zero,240(sp)
   10534:	0e013c23          	sd	zero,248(sp)
   10538:	00040663          	beqz	s0,10544 <_vfprintf_r+0x78>
   1053c:	05042703          	lw	a4,80(s0)
   10540:	5e070a63          	beqz	a4,10b34 <_vfprintf_r+0x668>
   10544:	00013783          	ld	a5,0(sp)
   10548:	01079703          	lh	a4,16(a5)
   1054c:	03271693          	slli	a3,a4,0x32
   10550:	0206c663          	bltz	a3,1057c <_vfprintf_r+0xb0>
   10554:	0ac7a683          	lw	a3,172(a5)
   10558:	00002637          	lui	a2,0x2
   1055c:	00c76733          	or	a4,a4,a2
   10560:	ffffe637          	lui	a2,0xffffe
   10564:	0107171b          	slliw	a4,a4,0x10
   10568:	fff60613          	addi	a2,a2,-1 # ffffffffffffdfff <__BSS_END__+0xfffffffffffce7cf>
   1056c:	4107571b          	sraiw	a4,a4,0x10
   10570:	00c6f6b3          	and	a3,a3,a2
   10574:	00e79823          	sh	a4,16(a5)
   10578:	0ad7a623          	sw	a3,172(a5)
   1057c:	00877693          	andi	a3,a4,8
   10580:	32068263          	beqz	a3,108a4 <_vfprintf_r+0x3d8>
   10584:	00013783          	ld	a5,0(sp)
   10588:	0187b683          	ld	a3,24(a5)
   1058c:	30068c63          	beqz	a3,108a4 <_vfprintf_r+0x3d8>
   10590:	01a77713          	andi	a4,a4,26
   10594:	00a00693          	li	a3,10
   10598:	32d70a63          	beq	a4,a3,108cc <_vfprintf_r+0x400>
   1059c:	18010793          	addi	a5,sp,384
   105a0:	0002c737          	lui	a4,0x2c
   105a4:	00078313          	mv	t1,a5
   105a8:	10f13023          	sd	a5,256(sp)
   105ac:	00090b13          	mv	s6,s2
   105b0:	e8c70793          	addi	a5,a4,-372 # 2be8c <__clzdi2+0xbc>
   105b4:	0002c737          	lui	a4,0x2c
   105b8:	02f13423          	sd	a5,40(sp)
   105bc:	09070793          	addi	a5,a4,144 # 2c090 <zeroes.0>
   105c0:	000b4703          	lbu	a4,0(s6)
   105c4:	10013823          	sd	zero,272(sp)
   105c8:	10012423          	sw	zero,264(sp)
   105cc:	02013c23          	sd	zero,56(sp)
   105d0:	06013423          	sd	zero,104(sp)
   105d4:	06013823          	sd	zero,112(sp)
   105d8:	06013c23          	sd	zero,120(sp)
   105dc:	08013023          	sd	zero,128(sp)
   105e0:	08013423          	sd	zero,136(sp)
   105e4:	00013823          	sd	zero,16(sp)
   105e8:	00f13423          	sd	a5,8(sp)
   105ec:	05013983          	ld	s3,80(sp)
   105f0:	00030413          	mv	s0,t1
   105f4:	24070063          	beqz	a4,10834 <_vfprintf_r+0x368>
   105f8:	000b0493          	mv	s1,s6
   105fc:	02500693          	li	a3,37
   10600:	2ed70a63          	beq	a4,a3,108f4 <_vfprintf_r+0x428>
   10604:	0014c703          	lbu	a4,1(s1)
   10608:	00148493          	addi	s1,s1,1
   1060c:	fe071ae3          	bnez	a4,10600 <_vfprintf_r+0x134>
   10610:	4164893b          	subw	s2,s1,s6
   10614:	22090063          	beqz	s2,10834 <_vfprintf_r+0x368>
   10618:	11013d83          	ld	s11,272(sp)
   1061c:	10812683          	lw	a3,264(sp)
   10620:	01643023          	sd	s6,0(s0)
   10624:	012d8733          	add	a4,s11,s2
   10628:	0016861b          	addiw	a2,a3,1
   1062c:	01243423          	sd	s2,8(s0)
   10630:	10e13823          	sd	a4,272(sp)
   10634:	10c12423          	sw	a2,264(sp)
   10638:	00700713          	li	a4,7
   1063c:	01040413          	addi	s0,s0,16
   10640:	2cc74263          	blt	a4,a2,10904 <_vfprintf_r+0x438>
   10644:	01013783          	ld	a5,16(sp)
   10648:	0004c703          	lbu	a4,0(s1)
   1064c:	012787bb          	addw	a5,a5,s2
   10650:	00f13823          	sd	a5,16(sp)
   10654:	1e070063          	beqz	a4,10834 <_vfprintf_r+0x368>
   10658:	fff00313          	li	t1,-1
   1065c:	0014ce03          	lbu	t3,1(s1)
   10660:	0c0107a3          	sb	zero,207(sp)
   10664:	00148493          	addi	s1,s1,1
   10668:	00000a13          	li	s4,0
   1066c:	00000913          	li	s2,0
   10670:	05a00b93          	li	s7,90
   10674:	00030a93          	mv	s5,t1
   10678:	00148493          	addi	s1,s1,1
   1067c:	000e0c9b          	sext.w	s9,t3
   10680:	fe0c879b          	addiw	a5,s9,-32
   10684:	0007871b          	sext.w	a4,a5
   10688:	04ebec63          	bltu	s7,a4,106e0 <_vfprintf_r+0x214>
   1068c:	02079713          	slli	a4,a5,0x20
   10690:	01e75793          	srli	a5,a4,0x1e
   10694:	02813703          	ld	a4,40(sp)
   10698:	00e787b3          	add	a5,a5,a4
   1069c:	0007a783          	lw	a5,0(a5)
   106a0:	00078067          	jr	a5
   106a4:	00000a13          	li	s4,0
   106a8:	00900693          	li	a3,9
   106ac:	0004c703          	lbu	a4,0(s1)
   106b0:	002a179b          	slliw	a5,s4,0x2
   106b4:	01478a3b          	addw	s4,a5,s4
   106b8:	fd0c8c9b          	addiw	s9,s9,-48
   106bc:	001a1a1b          	slliw	s4,s4,0x1
   106c0:	fd07079b          	addiw	a5,a4,-48
   106c4:	014c8a3b          	addw	s4,s9,s4
   106c8:	00148493          	addi	s1,s1,1
   106cc:	00070c9b          	sext.w	s9,a4
   106d0:	fcf6fee3          	bgeu	a3,a5,106ac <_vfprintf_r+0x1e0>
   106d4:	fe0c879b          	addiw	a5,s9,-32
   106d8:	0007871b          	sext.w	a4,a5
   106dc:	faebf8e3          	bgeu	s7,a4,1068c <_vfprintf_r+0x1c0>
   106e0:	140c8a63          	beqz	s9,10834 <_vfprintf_r+0x368>
   106e4:	11910c23          	sb	s9,280(sp)
   106e8:	0c0107a3          	sb	zero,207(sp)
   106ec:	00100c13          	li	s8,1
   106f0:	00100d13          	li	s10,1
   106f4:	11810b13          	addi	s6,sp,280
   106f8:	00013c23          	sd	zero,24(sp)
   106fc:	00000313          	li	t1,0
   10700:	04013423          	sd	zero,72(sp)
   10704:	04013023          	sd	zero,64(sp)
   10708:	02013823          	sd	zero,48(sp)
   1070c:	00297b93          	andi	s7,s2,2
   10710:	000b8463          	beqz	s7,10718 <_vfprintf_r+0x24c>
   10714:	002c0c1b          	addiw	s8,s8,2
   10718:	08497a93          	andi	s5,s2,132
   1071c:	000a9663          	bnez	s5,10728 <_vfprintf_r+0x25c>
   10720:	418a073b          	subw	a4,s4,s8
   10724:	34e046e3          	bgtz	a4,11270 <_vfprintf_r+0xda4>
   10728:	0cf14703          	lbu	a4,207(sp)
   1072c:	11013d83          	ld	s11,272(sp)
   10730:	02070c63          	beqz	a4,10768 <_vfprintf_r+0x29c>
   10734:	10812603          	lw	a2,264(sp)
   10738:	0cf10593          	addi	a1,sp,207
   1073c:	00b43023          	sd	a1,0(s0)
   10740:	0016061b          	addiw	a2,a2,1
   10744:	00100593          	li	a1,1
   10748:	001d8d93          	addi	s11,s11,1
   1074c:	00b43423          	sd	a1,8(s0)
   10750:	10c12423          	sw	a2,264(sp)
   10754:	0006059b          	sext.w	a1,a2
   10758:	11b13823          	sd	s11,272(sp)
   1075c:	00700613          	li	a2,7
   10760:	01040413          	addi	s0,s0,16
   10764:	2ab64463          	blt	a2,a1,10a0c <_vfprintf_r+0x540>
   10768:	020b8c63          	beqz	s7,107a0 <_vfprintf_r+0x2d4>
   1076c:	10812603          	lw	a2,264(sp)
   10770:	00200593          	li	a1,2
   10774:	002d8d93          	addi	s11,s11,2
   10778:	0016061b          	addiw	a2,a2,1
   1077c:	0d010793          	addi	a5,sp,208
   10780:	00b43423          	sd	a1,8(s0)
   10784:	00f43023          	sd	a5,0(s0)
   10788:	0006059b          	sext.w	a1,a2
   1078c:	10c12423          	sw	a2,264(sp)
   10790:	11b13823          	sd	s11,272(sp)
   10794:	00700613          	li	a2,7
   10798:	01040413          	addi	s0,s0,16
   1079c:	3eb64ae3          	blt	a2,a1,11390 <_vfprintf_r+0xec4>
   107a0:	08000613          	li	a2,128
   107a4:	0eca80e3          	beq	s5,a2,11084 <_vfprintf_r+0xbb8>
   107a8:	41a30bbb          	subw	s7,t1,s10
   107ac:	1d7040e3          	bgtz	s7,1116c <_vfprintf_r+0xca0>
   107b0:	10097613          	andi	a2,s2,256
   107b4:	70061863          	bnez	a2,10ec4 <_vfprintf_r+0x9f8>
   107b8:	10812603          	lw	a2,264(sp)
   107bc:	01bd0733          	add	a4,s10,s11
   107c0:	01643023          	sd	s6,0(s0)
   107c4:	0016069b          	addiw	a3,a2,1
   107c8:	01a43423          	sd	s10,8(s0)
   107cc:	10e13823          	sd	a4,272(sp)
   107d0:	10d12423          	sw	a3,264(sp)
   107d4:	00700793          	li	a5,7
   107d8:	32d7ce63          	blt	a5,a3,10b14 <_vfprintf_r+0x648>
   107dc:	01040413          	addi	s0,s0,16
   107e0:	00497913          	andi	s2,s2,4
   107e4:	00090663          	beqz	s2,107f0 <_vfprintf_r+0x324>
   107e8:	418a093b          	subw	s2,s4,s8
   107ec:	3d2046e3          	bgtz	s2,113b8 <_vfprintf_r+0xeec>
   107f0:	000a0793          	mv	a5,s4
   107f4:	018a5463          	bge	s4,s8,107fc <_vfprintf_r+0x330>
   107f8:	000c0793          	mv	a5,s8
   107fc:	01013683          	ld	a3,16(sp)
   10800:	00d787bb          	addw	a5,a5,a3
   10804:	00f13823          	sd	a5,16(sp)
   10808:	240710e3          	bnez	a4,11248 <_vfprintf_r+0xd7c>
   1080c:	01813783          	ld	a5,24(sp)
   10810:	10012423          	sw	zero,264(sp)
   10814:	00078863          	beqz	a5,10824 <_vfprintf_r+0x358>
   10818:	01813583          	ld	a1,24(sp)
   1081c:	00098513          	mv	a0,s3
   10820:	240060ef          	jal	ra,16a60 <_free_r>
   10824:	18010413          	addi	s0,sp,384
   10828:	00048b13          	mv	s6,s1
   1082c:	000b4703          	lbu	a4,0(s6)
   10830:	dc0714e3          	bnez	a4,105f8 <_vfprintf_r+0x12c>
   10834:	11013783          	ld	a5,272(sp)
   10838:	00078463          	beqz	a5,10840 <_vfprintf_r+0x374>
   1083c:	2190106f          	j	12254 <_vfprintf_r+0x1d88>
   10840:	00013783          	ld	a5,0(sp)
   10844:	0107d783          	lhu	a5,16(a5)
   10848:	0407f793          	andi	a5,a5,64
   1084c:	00078463          	beqz	a5,10854 <_vfprintf_r+0x388>
   10850:	7ed0106f          	j	1283c <_vfprintf_r+0x2370>
   10854:	26813083          	ld	ra,616(sp)
   10858:	26013403          	ld	s0,608(sp)
   1085c:	01013503          	ld	a0,16(sp)
   10860:	25813483          	ld	s1,600(sp)
   10864:	25013903          	ld	s2,592(sp)
   10868:	24813983          	ld	s3,584(sp)
   1086c:	24013a03          	ld	s4,576(sp)
   10870:	23813a83          	ld	s5,568(sp)
   10874:	23013b03          	ld	s6,560(sp)
   10878:	22813b83          	ld	s7,552(sp)
   1087c:	22013c03          	ld	s8,544(sp)
   10880:	21813c83          	ld	s9,536(sp)
   10884:	21013d03          	ld	s10,528(sp)
   10888:	20813d83          	ld	s11,520(sp)
   1088c:	27010113          	addi	sp,sp,624
   10890:	00008067          	ret
   10894:	01096913          	ori	s2,s2,16
   10898:	0004ce03          	lbu	t3,0(s1)
   1089c:	0009091b          	sext.w	s2,s2
   108a0:	dd9ff06f          	j	10678 <_vfprintf_r+0x1ac>
   108a4:	00013583          	ld	a1,0(sp)
   108a8:	05013503          	ld	a0,80(sp)
   108ac:	47c050ef          	jal	ra,15d28 <__swsetup_r>
   108b0:	00050463          	beqz	a0,108b8 <_vfprintf_r+0x3ec>
   108b4:	7890106f          	j	1283c <_vfprintf_r+0x2370>
   108b8:	00013783          	ld	a5,0(sp)
   108bc:	00a00693          	li	a3,10
   108c0:	01079703          	lh	a4,16(a5)
   108c4:	01a77713          	andi	a4,a4,26
   108c8:	ccd71ae3          	bne	a4,a3,1059c <_vfprintf_r+0xd0>
   108cc:	00013783          	ld	a5,0(sp)
   108d0:	01279703          	lh	a4,18(a5)
   108d4:	cc0744e3          	bltz	a4,1059c <_vfprintf_r+0xd0>
   108d8:	02013683          	ld	a3,32(sp)
   108dc:	05013503          	ld	a0,80(sp)
   108e0:	00090613          	mv	a2,s2
   108e4:	00078593          	mv	a1,a5
   108e8:	22c020ef          	jal	ra,12b14 <__sbprintf>
   108ec:	00a13823          	sd	a0,16(sp)
   108f0:	f65ff06f          	j	10854 <_vfprintf_r+0x388>
   108f4:	4164893b          	subw	s2,s1,s6
   108f8:	d20910e3          	bnez	s2,10618 <_vfprintf_r+0x14c>
   108fc:	0004c703          	lbu	a4,0(s1)
   10900:	d55ff06f          	j	10654 <_vfprintf_r+0x188>
   10904:	00013583          	ld	a1,0(sp)
   10908:	10010613          	addi	a2,sp,256
   1090c:	00098513          	mv	a0,s3
   10910:	088110ef          	jal	ra,21998 <__sprint_r>
   10914:	f20516e3          	bnez	a0,10840 <_vfprintf_r+0x374>
   10918:	18010413          	addi	s0,sp,384
   1091c:	d29ff06f          	j	10644 <_vfprintf_r+0x178>
   10920:	00897713          	andi	a4,s2,8
   10924:	000a8313          	mv	t1,s5
   10928:	6a071ce3          	bnez	a4,117e0 <_vfprintf_r+0x1314>
   1092c:	02013783          	ld	a5,32(sp)
   10930:	01513c23          	sd	s5,24(sp)
   10934:	0007b503          	ld	a0,0(a5)
   10938:	00878a93          	addi	s5,a5,8
   1093c:	03513023          	sd	s5,32(sp)
   10940:	79d1a0ef          	jal	ra,2b8dc <__extenddftf2>
   10944:	01813303          	ld	t1,24(sp)
   10948:	00050713          	mv	a4,a0
   1094c:	0f010513          	addi	a0,sp,240
   10950:	00613c23          	sd	t1,24(sp)
   10954:	0ee13823          	sd	a4,240(sp)
   10958:	0eb13c23          	sd	a1,248(sp)
   1095c:	1e4090ef          	jal	ra,19b40 <_ldcheck>
   10960:	0ca12c23          	sw	a0,216(sp)
   10964:	00200713          	li	a4,2
   10968:	01813303          	ld	t1,24(sp)
   1096c:	00e51463          	bne	a0,a4,10974 <_vfprintf_r+0x4a8>
   10970:	28c0106f          	j	11bfc <_vfprintf_r+0x1730>
   10974:	00100713          	li	a4,1
   10978:	00e51463          	bne	a0,a4,10980 <_vfprintf_r+0x4b4>
   1097c:	3c40106f          	j	11d40 <_vfprintf_r+0x1874>
   10980:	06100713          	li	a4,97
   10984:	00ec9463          	bne	s9,a4,1098c <_vfprintf_r+0x4c0>
   10988:	4c90106f          	j	12650 <_vfprintf_r+0x2184>
   1098c:	04100713          	li	a4,65
   10990:	00ec9463          	bne	s9,a4,10998 <_vfprintf_r+0x4cc>
   10994:	1010106f          	j	12294 <_vfprintf_r+0x1dc8>
   10998:	fff00713          	li	a4,-1
   1099c:	00e31463          	bne	t1,a4,109a4 <_vfprintf_r+0x4d8>
   109a0:	7f10106f          	j	12990 <_vfprintf_r+0x24c4>
   109a4:	fdfcf713          	andi	a4,s9,-33
   109a8:	04700693          	li	a3,71
   109ac:	00d71463          	bne	a4,a3,109b4 <_vfprintf_r+0x4e8>
   109b0:	7d10106f          	j	12980 <_vfprintf_r+0x24b4>
   109b4:	10096713          	ori	a4,s2,256
   109b8:	0f813c03          	ld	s8,248(sp)
   109bc:	0007079b          	sext.w	a5,a4
   109c0:	08f13823          	sd	a5,144(sp)
   109c4:	05213023          	sd	s2,64(sp)
   109c8:	0f013b83          	ld	s7,240(sp)
   109cc:	000c5463          	bgez	s8,109d4 <_vfprintf_r+0x508>
   109d0:	4190106f          	j	125e8 <_vfprintf_r+0x211c>
   109d4:	08013c23          	sd	zero,152(sp)
   109d8:	00013c23          	sd	zero,24(sp)
   109dc:	fbfc871b          	addiw	a4,s9,-65
   109e0:	0007061b          	sext.w	a2,a4
   109e4:	02500693          	li	a3,37
   109e8:	00c6f463          	bgeu	a3,a2,109f0 <_vfprintf_r+0x524>
   109ec:	5e80106f          	j	11fd4 <_vfprintf_r+0x1b08>
   109f0:	02071693          	slli	a3,a4,0x20
   109f4:	01e6d713          	srli	a4,a3,0x1e
   109f8:	0002c6b7          	lui	a3,0x2c
   109fc:	ff868693          	addi	a3,a3,-8 # 2bff8 <__clzdi2+0x228>
   10a00:	00d70733          	add	a4,a4,a3
   10a04:	00072703          	lw	a4,0(a4)
   10a08:	00070067          	jr	a4
   10a0c:	00013583          	ld	a1,0(sp)
   10a10:	10010613          	addi	a2,sp,256
   10a14:	00098513          	mv	a0,s3
   10a18:	08613823          	sd	t1,144(sp)
   10a1c:	77d100ef          	jal	ra,21998 <__sprint_r>
   10a20:	02051ee3          	bnez	a0,1125c <_vfprintf_r+0xd90>
   10a24:	11013d83          	ld	s11,272(sp)
   10a28:	09013303          	ld	t1,144(sp)
   10a2c:	18010413          	addi	s0,sp,384
   10a30:	d39ff06f          	j	10768 <_vfprintf_r+0x29c>
   10a34:	03813783          	ld	a5,56(sp)
   10a38:	00100693          	li	a3,1
   10a3c:	01040c93          	addi	s9,s0,16
   10a40:	3af6dae3          	bge	a3,a5,115f4 <_vfprintf_r+0x1128>
   10a44:	10812603          	lw	a2,264(sp)
   10a48:	00100693          	li	a3,1
   10a4c:	001d8713          	addi	a4,s11,1
   10a50:	0016061b          	addiw	a2,a2,1
   10a54:	00d43423          	sd	a3,8(s0)
   10a58:	10c12423          	sw	a2,264(sp)
   10a5c:	0006069b          	sext.w	a3,a2
   10a60:	01643023          	sd	s6,0(s0)
   10a64:	10e13823          	sd	a4,272(sp)
   10a68:	00700613          	li	a2,7
   10a6c:	76d64ae3          	blt	a2,a3,119e0 <_vfprintf_r+0x1514>
   10a70:	05813783          	ld	a5,88(sp)
   10a74:	0016841b          	addiw	s0,a3,1
   10a78:	10812423          	sw	s0,264(sp)
   10a7c:	00e78d33          	add	s10,a5,a4
   10a80:	06013703          	ld	a4,96(sp)
   10a84:	00fcb423          	sd	a5,8(s9)
   10a88:	11a13823          	sd	s10,272(sp)
   10a8c:	00ecb023          	sd	a4,0(s9)
   10a90:	00700713          	li	a4,7
   10a94:	010c8c93          	addi	s9,s9,16
   10a98:	768746e3          	blt	a4,s0,11a04 <_vfprintf_r+0x1538>
   10a9c:	0f013503          	ld	a0,240(sp)
   10aa0:	0f813583          	ld	a1,248(sp)
   10aa4:	00000613          	li	a2,0
   10aa8:	00000693          	li	a3,0
   10aac:	14d190ef          	jal	ra,2a3f8 <__eqtf2>
   10ab0:	03813783          	ld	a5,56(sp)
   10ab4:	fff78a9b          	addiw	s5,a5,-1
   10ab8:	380508e3          	beqz	a0,11648 <_vfprintf_r+0x117c>
   10abc:	001b0793          	addi	a5,s6,1
   10ac0:	0014041b          	addiw	s0,s0,1
   10ac4:	015d0d33          	add	s10,s10,s5
   10ac8:	00fcb023          	sd	a5,0(s9)
   10acc:	015cb423          	sd	s5,8(s9)
   10ad0:	11a13823          	sd	s10,272(sp)
   10ad4:	10812423          	sw	s0,264(sp)
   10ad8:	00700793          	li	a5,7
   10adc:	3487c4e3          	blt	a5,s0,11624 <_vfprintf_r+0x1158>
   10ae0:	010c8c93          	addi	s9,s9,16
   10ae4:	07013683          	ld	a3,112(sp)
   10ae8:	0014041b          	addiw	s0,s0,1
   10aec:	0e010793          	addi	a5,sp,224
   10af0:	01a68733          	add	a4,a3,s10
   10af4:	00fcb023          	sd	a5,0(s9)
   10af8:	00dcb423          	sd	a3,8(s9)
   10afc:	10812423          	sw	s0,264(sp)
   10b00:	0004069b          	sext.w	a3,s0
   10b04:	10e13823          	sd	a4,272(sp)
   10b08:	00700793          	li	a5,7
   10b0c:	010c8413          	addi	s0,s9,16
   10b10:	ccd7d8e3          	bge	a5,a3,107e0 <_vfprintf_r+0x314>
   10b14:	00013583          	ld	a1,0(sp)
   10b18:	10010613          	addi	a2,sp,256
   10b1c:	00098513          	mv	a0,s3
   10b20:	679100ef          	jal	ra,21998 <__sprint_r>
   10b24:	72051c63          	bnez	a0,1125c <_vfprintf_r+0xd90>
   10b28:	11013703          	ld	a4,272(sp)
   10b2c:	18010413          	addi	s0,sp,384
   10b30:	cb1ff06f          	j	107e0 <_vfprintf_r+0x314>
   10b34:	05013503          	ld	a0,80(sp)
   10b38:	2d1050ef          	jal	ra,16608 <__sinit>
   10b3c:	a09ff06f          	j	10544 <_vfprintf_r+0x78>
   10b40:	02013703          	ld	a4,32(sp)
   10b44:	0c0107a3          	sb	zero,207(sp)
   10b48:	00100c13          	li	s8,1
   10b4c:	00072783          	lw	a5,0(a4)
   10b50:	00870713          	addi	a4,a4,8
   10b54:	02e13023          	sd	a4,32(sp)
   10b58:	10f10c23          	sb	a5,280(sp)
   10b5c:	00100d13          	li	s10,1
   10b60:	11810b13          	addi	s6,sp,280
   10b64:	b95ff06f          	j	106f8 <_vfprintf_r+0x22c>
   10b68:	02013783          	ld	a5,32(sp)
   10b6c:	0c0107a3          	sb	zero,207(sp)
   10b70:	000a8313          	mv	t1,s5
   10b74:	0007bb03          	ld	s6,0(a5)
   10b78:	00878a93          	addi	s5,a5,8
   10b7c:	5a0b0ae3          	beqz	s6,11930 <_vfprintf_r+0x1464>
   10b80:	fff00713          	li	a4,-1
   10b84:	00e31463          	bne	t1,a4,10b8c <_vfprintf_r+0x6c0>
   10b88:	1300106f          	j	11cb8 <_vfprintf_r+0x17ec>
   10b8c:	00030613          	mv	a2,t1
   10b90:	00000593          	li	a1,0
   10b94:	000b0513          	mv	a0,s6
   10b98:	02613023          	sd	t1,32(sp)
   10b9c:	501090ef          	jal	ra,1a89c <memchr>
   10ba0:	00a13c23          	sd	a0,24(sp)
   10ba4:	02013303          	ld	t1,32(sp)
   10ba8:	00051463          	bnez	a0,10bb0 <_vfprintf_r+0x6e4>
   10bac:	3310106f          	j	126dc <_vfprintf_r+0x2210>
   10bb0:	01813783          	ld	a5,24(sp)
   10bb4:	41678d3b          	subw	s10,a5,s6
   10bb8:	0cf14703          	lbu	a4,207(sp)
   10bbc:	fffd4813          	not	a6,s10
   10bc0:	43f85813          	srai	a6,a6,0x3f
   10bc4:	03513023          	sd	s5,32(sp)
   10bc8:	00013c23          	sd	zero,24(sp)
   10bcc:	04013423          	sd	zero,72(sp)
   10bd0:	04013023          	sd	zero,64(sp)
   10bd4:	02013823          	sd	zero,48(sp)
   10bd8:	01a87c33          	and	s8,a6,s10
   10bdc:	00000313          	li	t1,0
   10be0:	b20706e3          	beqz	a4,1070c <_vfprintf_r+0x240>
   10be4:	001c0c1b          	addiw	s8,s8,1
   10be8:	b25ff06f          	j	1070c <_vfprintf_r+0x240>
   10bec:	02013783          	ld	a5,32(sp)
   10bf0:	0007aa03          	lw	s4,0(a5)
   10bf4:	00878793          	addi	a5,a5,8
   10bf8:	3a0a52e3          	bgez	s4,1179c <_vfprintf_r+0x12d0>
   10bfc:	41400a3b          	negw	s4,s4
   10c00:	02f13023          	sd	a5,32(sp)
   10c04:	00496913          	ori	s2,s2,4
   10c08:	0004ce03          	lbu	t3,0(s1)
   10c0c:	0009091b          	sext.w	s2,s2
   10c10:	a69ff06f          	j	10678 <_vfprintf_r+0x1ac>
   10c14:	02b00793          	li	a5,43
   10c18:	0004ce03          	lbu	t3,0(s1)
   10c1c:	0cf107a3          	sb	a5,207(sp)
   10c20:	a59ff06f          	j	10678 <_vfprintf_r+0x1ac>
   10c24:	08096913          	ori	s2,s2,128
   10c28:	0004ce03          	lbu	t3,0(s1)
   10c2c:	0009091b          	sext.w	s2,s2
   10c30:	a49ff06f          	j	10678 <_vfprintf_r+0x1ac>
   10c34:	0004cc83          	lbu	s9,0(s1)
   10c38:	02a00693          	li	a3,42
   10c3c:	00148793          	addi	a5,s1,1
   10c40:	00dc9463          	bne	s9,a3,10c48 <_vfprintf_r+0x77c>
   10c44:	6610106f          	j	12aa4 <_vfprintf_r+0x25d8>
   10c48:	fd0c871b          	addiw	a4,s9,-48
   10c4c:	00900613          	li	a2,9
   10c50:	00078493          	mv	s1,a5
   10c54:	00000a93          	li	s5,0
   10c58:	00900693          	li	a3,9
   10c5c:	a2e662e3          	bltu	a2,a4,10680 <_vfprintf_r+0x1b4>
   10c60:	0004cc83          	lbu	s9,0(s1)
   10c64:	002a979b          	slliw	a5,s5,0x2
   10c68:	0157833b          	addw	t1,a5,s5
   10c6c:	0013131b          	slliw	t1,t1,0x1
   10c70:	00e30abb          	addw	s5,t1,a4
   10c74:	fd0c871b          	addiw	a4,s9,-48
   10c78:	00148493          	addi	s1,s1,1
   10c7c:	fee6f2e3          	bgeu	a3,a4,10c60 <_vfprintf_r+0x794>
   10c80:	a01ff06f          	j	10680 <_vfprintf_r+0x1b4>
   10c84:	00098513          	mv	a0,s3
   10c88:	729080ef          	jal	ra,19bb0 <_localeconv_r>
   10c8c:	00853783          	ld	a5,8(a0)
   10c90:	00078513          	mv	a0,a5
   10c94:	08f13423          	sd	a5,136(sp)
   10c98:	7810b0ef          	jal	ra,1cc18 <strlen>
   10c9c:	00050793          	mv	a5,a0
   10ca0:	00098513          	mv	a0,s3
   10ca4:	00078c13          	mv	s8,a5
   10ca8:	08f13023          	sd	a5,128(sp)
   10cac:	705080ef          	jal	ra,19bb0 <_localeconv_r>
   10cb0:	01053703          	ld	a4,16(a0)
   10cb4:	0004ce03          	lbu	t3,0(s1)
   10cb8:	06e13c23          	sd	a4,120(sp)
   10cbc:	9a0c0ee3          	beqz	s8,10678 <_vfprintf_r+0x1ac>
   10cc0:	9a070ce3          	beqz	a4,10678 <_vfprintf_r+0x1ac>
   10cc4:	00074783          	lbu	a5,0(a4)
   10cc8:	9a0788e3          	beqz	a5,10678 <_vfprintf_r+0x1ac>
   10ccc:	40096913          	ori	s2,s2,1024
   10cd0:	0009091b          	sext.w	s2,s2
   10cd4:	9a5ff06f          	j	10678 <_vfprintf_r+0x1ac>
   10cd8:	00196913          	ori	s2,s2,1
   10cdc:	0004ce03          	lbu	t3,0(s1)
   10ce0:	0009091b          	sext.w	s2,s2
   10ce4:	995ff06f          	j	10678 <_vfprintf_r+0x1ac>
   10ce8:	0cf14783          	lbu	a5,207(sp)
   10cec:	0004ce03          	lbu	t3,0(s1)
   10cf0:	980794e3          	bnez	a5,10678 <_vfprintf_r+0x1ac>
   10cf4:	02000793          	li	a5,32
   10cf8:	0cf107a3          	sb	a5,207(sp)
   10cfc:	97dff06f          	j	10678 <_vfprintf_r+0x1ac>
   10d00:	01096d93          	ori	s11,s2,16
   10d04:	000a8313          	mv	t1,s5
   10d08:	000d8d9b          	sext.w	s11,s11
   10d0c:	02013683          	ld	a3,32(sp)
   10d10:	020df793          	andi	a5,s11,32
   10d14:	00868713          	addi	a4,a3,8
   10d18:	220788e3          	beqz	a5,11748 <_vfprintf_r+0x127c>
   10d1c:	0006bd03          	ld	s10,0(a3)
   10d20:	00100793          	li	a5,1
   10d24:	02e13023          	sd	a4,32(sp)
   10d28:	00000713          	li	a4,0
   10d2c:	0ce107a3          	sb	a4,207(sp)
   10d30:	fff00713          	li	a4,-1
   10d34:	2ae30463          	beq	t1,a4,10fdc <_vfprintf_r+0xb10>
   10d38:	f7fdf913          	andi	s2,s11,-129
   10d3c:	0009091b          	sext.w	s2,s2
   10d40:	280d1c63          	bnez	s10,10fd8 <_vfprintf_r+0xb0c>
   10d44:	2e031a63          	bnez	t1,11038 <_vfprintf_r+0xb6c>
   10d48:	220796e3          	bnez	a5,11774 <_vfprintf_r+0x12a8>
   10d4c:	001dfd13          	andi	s10,s11,1
   10d50:	17c10b13          	addi	s6,sp,380
   10d54:	240d1ae3          	bnez	s10,117a8 <_vfprintf_r+0x12dc>
   10d58:	0cf14703          	lbu	a4,207(sp)
   10d5c:	000d0813          	mv	a6,s10
   10d60:	006d5463          	bge	s10,t1,10d68 <_vfprintf_r+0x89c>
   10d64:	00030813          	mv	a6,t1
   10d68:	00013c23          	sd	zero,24(sp)
   10d6c:	04013423          	sd	zero,72(sp)
   10d70:	04013023          	sd	zero,64(sp)
   10d74:	02013823          	sd	zero,48(sp)
   10d78:	00080c1b          	sext.w	s8,a6
   10d7c:	e60714e3          	bnez	a4,10be4 <_vfprintf_r+0x718>
   10d80:	98dff06f          	j	1070c <_vfprintf_r+0x240>
   10d84:	00896913          	ori	s2,s2,8
   10d88:	0004ce03          	lbu	t3,0(s1)
   10d8c:	0009091b          	sext.w	s2,s2
   10d90:	8e9ff06f          	j	10678 <_vfprintf_r+0x1ac>
   10d94:	01096913          	ori	s2,s2,16
   10d98:	000a8313          	mv	t1,s5
   10d9c:	0009091b          	sext.w	s2,s2
   10da0:	02013683          	ld	a3,32(sp)
   10da4:	02097793          	andi	a5,s2,32
   10da8:	00868713          	addi	a4,a3,8
   10dac:	12078ce3          	beqz	a5,116e4 <_vfprintf_r+0x1218>
   10db0:	0006b783          	ld	a5,0(a3)
   10db4:	00078d13          	mv	s10,a5
   10db8:	1407cae3          	bltz	a5,1170c <_vfprintf_r+0x1240>
   10dbc:	fff00793          	li	a5,-1
   10dc0:	5af30463          	beq	t1,a5,11368 <_vfprintf_r+0xe9c>
   10dc4:	f7f97d93          	andi	s11,s2,-129
   10dc8:	02e13023          	sd	a4,32(sp)
   10dcc:	000d8d9b          	sext.w	s11,s11
   10dd0:	5a0d1063          	bnez	s10,11370 <_vfprintf_r+0xea4>
   10dd4:	5a031263          	bnez	t1,11378 <_vfprintf_r+0xeac>
   10dd8:	000d8913          	mv	s2,s11
   10ddc:	17c10b13          	addi	s6,sp,380
   10de0:	f79ff06f          	j	10d58 <_vfprintf_r+0x88c>
   10de4:	01096913          	ori	s2,s2,16
   10de8:	000a8313          	mv	t1,s5
   10dec:	0009091b          	sext.w	s2,s2
   10df0:	02013683          	ld	a3,32(sp)
   10df4:	02097793          	andi	a5,s2,32
   10df8:	00868713          	addi	a4,a3,8
   10dfc:	120784e3          	beqz	a5,11724 <_vfprintf_r+0x1258>
   10e00:	0006bd03          	ld	s10,0(a3)
   10e04:	bff97d93          	andi	s11,s2,-1025
   10e08:	000d8d9b          	sext.w	s11,s11
   10e0c:	02e13023          	sd	a4,32(sp)
   10e10:	00000793          	li	a5,0
   10e14:	f15ff06f          	j	10d28 <_vfprintf_r+0x85c>
   10e18:	02096913          	ori	s2,s2,32
   10e1c:	0004ce03          	lbu	t3,0(s1)
   10e20:	0009091b          	sext.w	s2,s2
   10e24:	855ff06f          	j	10678 <_vfprintf_r+0x1ac>
   10e28:	02013703          	ld	a4,32(sp)
   10e2c:	02097793          	andi	a5,s2,32
   10e30:	00073703          	ld	a4,0(a4)
   10e34:	180782e3          	beqz	a5,117b8 <_vfprintf_r+0x12ec>
   10e38:	01013783          	ld	a5,16(sp)
   10e3c:	00f73023          	sd	a5,0(a4)
   10e40:	02013783          	ld	a5,32(sp)
   10e44:	00048b13          	mv	s6,s1
   10e48:	00878793          	addi	a5,a5,8
   10e4c:	02f13023          	sd	a5,32(sp)
   10e50:	9ddff06f          	j	1082c <_vfprintf_r+0x360>
   10e54:	0004ce03          	lbu	t3,0(s1)
   10e58:	06c00793          	li	a5,108
   10e5c:	28fe02e3          	beq	t3,a5,118e0 <_vfprintf_r+0x1414>
   10e60:	01096913          	ori	s2,s2,16
   10e64:	0009091b          	sext.w	s2,s2
   10e68:	811ff06f          	j	10678 <_vfprintf_r+0x1ac>
   10e6c:	0004ce03          	lbu	t3,0(s1)
   10e70:	06800793          	li	a5,104
   10e74:	24fe0ce3          	beq	t3,a5,118cc <_vfprintf_r+0x1400>
   10e78:	04096913          	ori	s2,s2,64
   10e7c:	0009091b          	sext.w	s2,s2
   10e80:	ff8ff06f          	j	10678 <_vfprintf_r+0x1ac>
   10e84:	02013703          	ld	a4,32(sp)
   10e88:	ffff87b7          	lui	a5,0xffff8
   10e8c:	8307c793          	xori	a5,a5,-2000
   10e90:	0cf11823          	sh	a5,208(sp)
   10e94:	00870793          	addi	a5,a4,8
   10e98:	02f13023          	sd	a5,32(sp)
   10e9c:	0002c7b7          	lui	a5,0x2c
   10ea0:	e6878793          	addi	a5,a5,-408 # 2be68 <__clzdi2+0x98>
   10ea4:	00296d93          	ori	s11,s2,2
   10ea8:	06f13423          	sd	a5,104(sp)
   10eac:	00073d03          	ld	s10,0(a4)
   10eb0:	000a8313          	mv	t1,s5
   10eb4:	000d8d9b          	sext.w	s11,s11
   10eb8:	00200793          	li	a5,2
   10ebc:	07800c93          	li	s9,120
   10ec0:	e69ff06f          	j	10d28 <_vfprintf_r+0x85c>
   10ec4:	06500693          	li	a3,101
   10ec8:	b796d6e3          	bge	a3,s9,10a34 <_vfprintf_r+0x568>
   10ecc:	0f013503          	ld	a0,240(sp)
   10ed0:	0f813583          	ld	a1,248(sp)
   10ed4:	00000613          	li	a2,0
   10ed8:	00000693          	li	a3,0
   10edc:	51c190ef          	jal	ra,2a3f8 <__eqtf2>
   10ee0:	58051463          	bnez	a0,11468 <_vfprintf_r+0xf9c>
   10ee4:	10812783          	lw	a5,264(sp)
   10ee8:	0002c6b7          	lui	a3,0x2c
   10eec:	e8868693          	addi	a3,a3,-376 # 2be88 <__clzdi2+0xb8>
   10ef0:	0017879b          	addiw	a5,a5,1
   10ef4:	00d43023          	sd	a3,0(s0)
   10ef8:	001d8d93          	addi	s11,s11,1
   10efc:	00100693          	li	a3,1
   10f00:	00d43423          	sd	a3,8(s0)
   10f04:	10f12423          	sw	a5,264(sp)
   10f08:	0007869b          	sext.w	a3,a5
   10f0c:	11b13823          	sd	s11,272(sp)
   10f10:	00700793          	li	a5,7
   10f14:	01040413          	addi	s0,s0,16
   10f18:	48d7cee3          	blt	a5,a3,11bb4 <_vfprintf_r+0x16e8>
   10f1c:	0d812783          	lw	a5,216(sp)
   10f20:	03813703          	ld	a4,56(sp)
   10f24:	04e7dee3          	bge	a5,a4,11780 <_vfprintf_r+0x12b4>
   10f28:	05813683          	ld	a3,88(sp)
   10f2c:	10812783          	lw	a5,264(sp)
   10f30:	06013603          	ld	a2,96(sp)
   10f34:	01b68733          	add	a4,a3,s11
   10f38:	0017879b          	addiw	a5,a5,1
   10f3c:	00d43423          	sd	a3,8(s0)
   10f40:	00c43023          	sd	a2,0(s0)
   10f44:	0007869b          	sext.w	a3,a5
   10f48:	10f12423          	sw	a5,264(sp)
   10f4c:	10e13823          	sd	a4,272(sp)
   10f50:	00700793          	li	a5,7
   10f54:	01040413          	addi	s0,s0,16
   10f58:	1ad7cce3          	blt	a5,a3,11910 <_vfprintf_r+0x1444>
   10f5c:	03813783          	ld	a5,56(sp)
   10f60:	fff78c9b          	addiw	s9,a5,-1
   10f64:	87905ee3          	blez	s9,107e0 <_vfprintf_r+0x314>
   10f68:	0002cf37          	lui	t5,0x2c
   10f6c:	01000693          	li	a3,16
   10f70:	10812783          	lw	a5,264(sp)
   10f74:	090f0d93          	addi	s11,t5,144 # 2c090 <zeroes.0>
   10f78:	4596dee3          	bge	a3,s9,11bd4 <_vfprintf_r+0x1708>
   10f7c:	00013b03          	ld	s6,0(sp)
   10f80:	01000d13          	li	s10,16
   10f84:	00700a93          	li	s5,7
   10f88:	00c0006f          	j	10f94 <_vfprintf_r+0xac8>
   10f8c:	ff0c8c9b          	addiw	s9,s9,-16
   10f90:	459d52e3          	bge	s10,s9,11bd4 <_vfprintf_r+0x1708>
   10f94:	0017879b          	addiw	a5,a5,1
   10f98:	01070713          	addi	a4,a4,16
   10f9c:	01b43023          	sd	s11,0(s0)
   10fa0:	01a43423          	sd	s10,8(s0)
   10fa4:	10e13823          	sd	a4,272(sp)
   10fa8:	10f12423          	sw	a5,264(sp)
   10fac:	01040413          	addi	s0,s0,16
   10fb0:	fcfadee3          	bge	s5,a5,10f8c <_vfprintf_r+0xac0>
   10fb4:	10010613          	addi	a2,sp,256
   10fb8:	000b0593          	mv	a1,s6
   10fbc:	00098513          	mv	a0,s3
   10fc0:	1d9100ef          	jal	ra,21998 <__sprint_r>
   10fc4:	28051c63          	bnez	a0,1125c <_vfprintf_r+0xd90>
   10fc8:	11013703          	ld	a4,272(sp)
   10fcc:	10812783          	lw	a5,264(sp)
   10fd0:	18010413          	addi	s0,sp,384
   10fd4:	fb9ff06f          	j	10f8c <_vfprintf_r+0xac0>
   10fd8:	00090d93          	mv	s11,s2
   10fdc:	00100713          	li	a4,1
   10fe0:	38e78863          	beq	a5,a4,11370 <_vfprintf_r+0xea4>
   10fe4:	00200713          	li	a4,2
   10fe8:	06e78463          	beq	a5,a4,11050 <_vfprintf_r+0xb84>
   10fec:	17c10a93          	addi	s5,sp,380
   10ff0:	000a8b13          	mv	s6,s5
   10ff4:	007d7713          	andi	a4,s10,7
   10ff8:	03070713          	addi	a4,a4,48
   10ffc:	feeb0fa3          	sb	a4,-1(s6)
   11000:	003d5d13          	srli	s10,s10,0x3
   11004:	000b0613          	mv	a2,s6
   11008:	fffb0b13          	addi	s6,s6,-1
   1100c:	fe0d14e3          	bnez	s10,10ff4 <_vfprintf_r+0xb28>
   11010:	001df593          	andi	a1,s11,1
   11014:	06058263          	beqz	a1,11078 <_vfprintf_r+0xbac>
   11018:	03000593          	li	a1,48
   1101c:	04b70e63          	beq	a4,a1,11078 <_vfprintf_r+0xbac>
   11020:	ffe60613          	addi	a2,a2,-2
   11024:	febb0fa3          	sb	a1,-1(s6)
   11028:	40ca8d3b          	subw	s10,s5,a2
   1102c:	000d8913          	mv	s2,s11
   11030:	00060b13          	mv	s6,a2
   11034:	d25ff06f          	j	10d58 <_vfprintf_r+0x88c>
   11038:	00100713          	li	a4,1
   1103c:	00e79463          	bne	a5,a4,11044 <_vfprintf_r+0xb78>
   11040:	7040106f          	j	12744 <_vfprintf_r+0x2278>
   11044:	00200713          	li	a4,2
   11048:	00090d93          	mv	s11,s2
   1104c:	fae790e3          	bne	a5,a4,10fec <_vfprintf_r+0xb20>
   11050:	06813703          	ld	a4,104(sp)
   11054:	17c10a93          	addi	s5,sp,380
   11058:	000a8b13          	mv	s6,s5
   1105c:	00fd7793          	andi	a5,s10,15
   11060:	00f707b3          	add	a5,a4,a5
   11064:	0007c783          	lbu	a5,0(a5)
   11068:	004d5d13          	srli	s10,s10,0x4
   1106c:	fffb0b13          	addi	s6,s6,-1
   11070:	00fb0023          	sb	a5,0(s6)
   11074:	fe0d14e3          	bnez	s10,1105c <_vfprintf_r+0xb90>
   11078:	416a8d3b          	subw	s10,s5,s6
   1107c:	000d8913          	mv	s2,s11
   11080:	cd9ff06f          	j	10d58 <_vfprintf_r+0x88c>
   11084:	418a0abb          	subw	s5,s4,s8
   11088:	f3505063          	blez	s5,107a8 <_vfprintf_r+0x2dc>
   1108c:	0002cf37          	lui	t5,0x2c
   11090:	01000593          	li	a1,16
   11094:	000d8713          	mv	a4,s11
   11098:	10812603          	lw	a2,264(sp)
   1109c:	090f0d93          	addi	s11,t5,144 # 2c090 <zeroes.0>
   110a0:	0955de63          	bge	a1,s5,1113c <_vfprintf_r+0xc70>
   110a4:	08913823          	sd	s1,144(sp)
   110a8:	01000f93          	li	t6,16
   110ac:	000a8493          	mv	s1,s5
   110b0:	00700b93          	li	s7,7
   110b4:	000a0a93          	mv	s5,s4
   110b8:	00090a13          	mv	s4,s2
   110bc:	000d8913          	mv	s2,s11
   110c0:	000b0d93          	mv	s11,s6
   110c4:	00030b13          	mv	s6,t1
   110c8:	00c0006f          	j	110d4 <_vfprintf_r+0xc08>
   110cc:	ff04849b          	addiw	s1,s1,-16
   110d0:	049fd863          	bge	t6,s1,11120 <_vfprintf_r+0xc54>
   110d4:	0016061b          	addiw	a2,a2,1
   110d8:	01070713          	addi	a4,a4,16
   110dc:	01243023          	sd	s2,0(s0)
   110e0:	01f43423          	sd	t6,8(s0)
   110e4:	10e13823          	sd	a4,272(sp)
   110e8:	10c12423          	sw	a2,264(sp)
   110ec:	01040413          	addi	s0,s0,16
   110f0:	fccbdee3          	bge	s7,a2,110cc <_vfprintf_r+0xc00>
   110f4:	00013583          	ld	a1,0(sp)
   110f8:	10010613          	addi	a2,sp,256
   110fc:	00098513          	mv	a0,s3
   11100:	099100ef          	jal	ra,21998 <__sprint_r>
   11104:	14051c63          	bnez	a0,1125c <_vfprintf_r+0xd90>
   11108:	01000f93          	li	t6,16
   1110c:	ff04849b          	addiw	s1,s1,-16
   11110:	11013703          	ld	a4,272(sp)
   11114:	10812603          	lw	a2,264(sp)
   11118:	18010413          	addi	s0,sp,384
   1111c:	fa9fcce3          	blt	t6,s1,110d4 <_vfprintf_r+0xc08>
   11120:	000b0313          	mv	t1,s6
   11124:	000d8b13          	mv	s6,s11
   11128:	00090d93          	mv	s11,s2
   1112c:	000a0913          	mv	s2,s4
   11130:	000a8a13          	mv	s4,s5
   11134:	00048a93          	mv	s5,s1
   11138:	09013483          	ld	s1,144(sp)
   1113c:	0016059b          	addiw	a1,a2,1
   11140:	00ea8733          	add	a4,s5,a4
   11144:	01b43023          	sd	s11,0(s0)
   11148:	01543423          	sd	s5,8(s0)
   1114c:	10e13823          	sd	a4,272(sp)
   11150:	10b12423          	sw	a1,264(sp)
   11154:	00700613          	li	a2,7
   11158:	6eb64463          	blt	a2,a1,11840 <_vfprintf_r+0x1374>
   1115c:	41a30bbb          	subw	s7,t1,s10
   11160:	01040413          	addi	s0,s0,16
   11164:	00070d93          	mv	s11,a4
   11168:	e5705463          	blez	s7,107b0 <_vfprintf_r+0x2e4>
   1116c:	0002cf37          	lui	t5,0x2c
   11170:	01000593          	li	a1,16
   11174:	000d8713          	mv	a4,s11
   11178:	10812603          	lw	a2,264(sp)
   1117c:	090f0d93          	addi	s11,t5,144 # 2c090 <zeroes.0>
   11180:	0975de63          	bge	a1,s7,1121c <_vfprintf_r+0xd50>
   11184:	000b0793          	mv	a5,s6
   11188:	00813d83          	ld	s11,8(sp)
   1118c:	000a0b13          	mv	s6,s4
   11190:	01000893          	li	a7,16
   11194:	00090a13          	mv	s4,s2
   11198:	00700a93          	li	s5,7
   1119c:	00048913          	mv	s2,s1
   111a0:	000b8493          	mv	s1,s7
   111a4:	00078b93          	mv	s7,a5
   111a8:	00c0006f          	j	111b4 <_vfprintf_r+0xce8>
   111ac:	ff04849b          	addiw	s1,s1,-16
   111b0:	0498da63          	bge	a7,s1,11204 <_vfprintf_r+0xd38>
   111b4:	00813683          	ld	a3,8(sp)
   111b8:	0016061b          	addiw	a2,a2,1
   111bc:	01070713          	addi	a4,a4,16
   111c0:	00d43023          	sd	a3,0(s0)
   111c4:	01143423          	sd	a7,8(s0)
   111c8:	10e13823          	sd	a4,272(sp)
   111cc:	10c12423          	sw	a2,264(sp)
   111d0:	01040413          	addi	s0,s0,16
   111d4:	fccadce3          	bge	s5,a2,111ac <_vfprintf_r+0xce0>
   111d8:	00013583          	ld	a1,0(sp)
   111dc:	10010613          	addi	a2,sp,256
   111e0:	00098513          	mv	a0,s3
   111e4:	7b4100ef          	jal	ra,21998 <__sprint_r>
   111e8:	06051a63          	bnez	a0,1125c <_vfprintf_r+0xd90>
   111ec:	01000893          	li	a7,16
   111f0:	ff04849b          	addiw	s1,s1,-16
   111f4:	11013703          	ld	a4,272(sp)
   111f8:	10812603          	lw	a2,264(sp)
   111fc:	18010413          	addi	s0,sp,384
   11200:	fa98cae3          	blt	a7,s1,111b4 <_vfprintf_r+0xce8>
   11204:	000b8793          	mv	a5,s7
   11208:	00048b93          	mv	s7,s1
   1120c:	00090493          	mv	s1,s2
   11210:	000a0913          	mv	s2,s4
   11214:	000b0a13          	mv	s4,s6
   11218:	00078b13          	mv	s6,a5
   1121c:	0016059b          	addiw	a1,a2,1
   11220:	00eb8733          	add	a4,s7,a4
   11224:	01b43023          	sd	s11,0(s0)
   11228:	01743423          	sd	s7,8(s0)
   1122c:	10e13823          	sd	a4,272(sp)
   11230:	10b12423          	sw	a1,264(sp)
   11234:	00700613          	li	a2,7
   11238:	48b64663          	blt	a2,a1,116c4 <_vfprintf_r+0x11f8>
   1123c:	01040413          	addi	s0,s0,16
   11240:	00070d93          	mv	s11,a4
   11244:	d6cff06f          	j	107b0 <_vfprintf_r+0x2e4>
   11248:	00013583          	ld	a1,0(sp)
   1124c:	10010613          	addi	a2,sp,256
   11250:	00098513          	mv	a0,s3
   11254:	744100ef          	jal	ra,21998 <__sprint_r>
   11258:	da050a63          	beqz	a0,1080c <_vfprintf_r+0x340>
   1125c:	01813583          	ld	a1,24(sp)
   11260:	de058063          	beqz	a1,10840 <_vfprintf_r+0x374>
   11264:	05013503          	ld	a0,80(sp)
   11268:	7f8050ef          	jal	ra,16a60 <_free_r>
   1126c:	dd4ff06f          	j	10840 <_vfprintf_r+0x374>
   11270:	0002c8b7          	lui	a7,0x2c
   11274:	01000513          	li	a0,16
   11278:	11013583          	ld	a1,272(sp)
   1127c:	10812603          	lw	a2,264(sp)
   11280:	0a088d93          	addi	s11,a7,160 # 2c0a0 <blanks.1>
   11284:	08e55c63          	bge	a0,a4,1131c <_vfprintf_r+0xe50>
   11288:	08913823          	sd	s1,144(sp)
   1128c:	00040793          	mv	a5,s0
   11290:	000d8493          	mv	s1,s11
   11294:	01000f13          	li	t5,16
   11298:	000b0d93          	mv	s11,s6
   1129c:	00700393          	li	t2,7
   112a0:	00070413          	mv	s0,a4
   112a4:	00030b13          	mv	s6,t1
   112a8:	00c0006f          	j	112b4 <_vfprintf_r+0xde8>
   112ac:	ff04041b          	addiw	s0,s0,-16
   112b0:	048f5a63          	bge	t5,s0,11304 <_vfprintf_r+0xe38>
   112b4:	0016061b          	addiw	a2,a2,1
   112b8:	01058593          	addi	a1,a1,16
   112bc:	0097b023          	sd	s1,0(a5)
   112c0:	01e7b423          	sd	t5,8(a5)
   112c4:	10b13823          	sd	a1,272(sp)
   112c8:	10c12423          	sw	a2,264(sp)
   112cc:	01078793          	addi	a5,a5,16
   112d0:	fcc3dee3          	bge	t2,a2,112ac <_vfprintf_r+0xde0>
   112d4:	00013583          	ld	a1,0(sp)
   112d8:	10010613          	addi	a2,sp,256
   112dc:	00098513          	mv	a0,s3
   112e0:	6b8100ef          	jal	ra,21998 <__sprint_r>
   112e4:	f6051ce3          	bnez	a0,1125c <_vfprintf_r+0xd90>
   112e8:	01000f13          	li	t5,16
   112ec:	ff04041b          	addiw	s0,s0,-16
   112f0:	11013583          	ld	a1,272(sp)
   112f4:	10812603          	lw	a2,264(sp)
   112f8:	18010793          	addi	a5,sp,384
   112fc:	00700393          	li	t2,7
   11300:	fa8f4ae3          	blt	t5,s0,112b4 <_vfprintf_r+0xde8>
   11304:	000b0313          	mv	t1,s6
   11308:	000d8b13          	mv	s6,s11
   1130c:	00048d93          	mv	s11,s1
   11310:	09013483          	ld	s1,144(sp)
   11314:	00040713          	mv	a4,s0
   11318:	00078413          	mv	s0,a5
   1131c:	00b705b3          	add	a1,a4,a1
   11320:	0016061b          	addiw	a2,a2,1
   11324:	00e43423          	sd	a4,8(s0)
   11328:	01b43023          	sd	s11,0(s0)
   1132c:	10b13823          	sd	a1,272(sp)
   11330:	10c12423          	sw	a2,264(sp)
   11334:	0006059b          	sext.w	a1,a2
   11338:	00700713          	li	a4,7
   1133c:	01040413          	addi	s0,s0,16
   11340:	beb75463          	bge	a4,a1,10728 <_vfprintf_r+0x25c>
   11344:	00013583          	ld	a1,0(sp)
   11348:	10010613          	addi	a2,sp,256
   1134c:	00098513          	mv	a0,s3
   11350:	08613823          	sd	t1,144(sp)
   11354:	644100ef          	jal	ra,21998 <__sprint_r>
   11358:	f00512e3          	bnez	a0,1125c <_vfprintf_r+0xd90>
   1135c:	09013303          	ld	t1,144(sp)
   11360:	18010413          	addi	s0,sp,384
   11364:	bc4ff06f          	j	10728 <_vfprintf_r+0x25c>
   11368:	00090d93          	mv	s11,s2
   1136c:	02e13023          	sd	a4,32(sp)
   11370:	00900793          	li	a5,9
   11374:	6ba7ea63          	bltu	a5,s10,11a28 <_vfprintf_r+0x155c>
   11378:	030d0d1b          	addiw	s10,s10,48
   1137c:	17a10da3          	sb	s10,379(sp)
   11380:	000d8913          	mv	s2,s11
   11384:	00100d13          	li	s10,1
   11388:	17b10b13          	addi	s6,sp,379
   1138c:	9cdff06f          	j	10d58 <_vfprintf_r+0x88c>
   11390:	00013583          	ld	a1,0(sp)
   11394:	10010613          	addi	a2,sp,256
   11398:	00098513          	mv	a0,s3
   1139c:	08613823          	sd	t1,144(sp)
   113a0:	5f8100ef          	jal	ra,21998 <__sprint_r>
   113a4:	ea051ce3          	bnez	a0,1125c <_vfprintf_r+0xd90>
   113a8:	11013d83          	ld	s11,272(sp)
   113ac:	09013303          	ld	t1,144(sp)
   113b0:	18010413          	addi	s0,sp,384
   113b4:	becff06f          	j	107a0 <_vfprintf_r+0x2d4>
   113b8:	0002c8b7          	lui	a7,0x2c
   113bc:	01000693          	li	a3,16
   113c0:	10812783          	lw	a5,264(sp)
   113c4:	0a088d93          	addi	s11,a7,160 # 2c0a0 <blanks.1>
   113c8:	0726d263          	bge	a3,s2,1142c <_vfprintf_r+0xf60>
   113cc:	00013a83          	ld	s5,0(sp)
   113d0:	01000c93          	li	s9,16
   113d4:	00700d13          	li	s10,7
   113d8:	00c0006f          	j	113e4 <_vfprintf_r+0xf18>
   113dc:	ff09091b          	addiw	s2,s2,-16
   113e0:	052cd663          	bge	s9,s2,1142c <_vfprintf_r+0xf60>
   113e4:	0017879b          	addiw	a5,a5,1
   113e8:	01070713          	addi	a4,a4,16
   113ec:	01b43023          	sd	s11,0(s0)
   113f0:	01943423          	sd	s9,8(s0)
   113f4:	10e13823          	sd	a4,272(sp)
   113f8:	10f12423          	sw	a5,264(sp)
   113fc:	01040413          	addi	s0,s0,16
   11400:	fcfd5ee3          	bge	s10,a5,113dc <_vfprintf_r+0xf10>
   11404:	10010613          	addi	a2,sp,256
   11408:	000a8593          	mv	a1,s5
   1140c:	00098513          	mv	a0,s3
   11410:	588100ef          	jal	ra,21998 <__sprint_r>
   11414:	e40514e3          	bnez	a0,1125c <_vfprintf_r+0xd90>
   11418:	ff09091b          	addiw	s2,s2,-16
   1141c:	11013703          	ld	a4,272(sp)
   11420:	10812783          	lw	a5,264(sp)
   11424:	18010413          	addi	s0,sp,384
   11428:	fb2ccee3          	blt	s9,s2,113e4 <_vfprintf_r+0xf18>
   1142c:	0017869b          	addiw	a3,a5,1
   11430:	01270733          	add	a4,a4,s2
   11434:	01b43023          	sd	s11,0(s0)
   11438:	01243423          	sd	s2,8(s0)
   1143c:	10e13823          	sd	a4,272(sp)
   11440:	10d12423          	sw	a3,264(sp)
   11444:	00700793          	li	a5,7
   11448:	bad7d463          	bge	a5,a3,107f0 <_vfprintf_r+0x324>
   1144c:	00013583          	ld	a1,0(sp)
   11450:	10010613          	addi	a2,sp,256
   11454:	00098513          	mv	a0,s3
   11458:	540100ef          	jal	ra,21998 <__sprint_r>
   1145c:	e00510e3          	bnez	a0,1125c <_vfprintf_r+0xd90>
   11460:	11013703          	ld	a4,272(sp)
   11464:	b8cff06f          	j	107f0 <_vfprintf_r+0x324>
   11468:	0d812603          	lw	a2,216(sp)
   1146c:	6ac05463          	blez	a2,11b14 <_vfprintf_r+0x1648>
   11470:	03813783          	ld	a5,56(sp)
   11474:	03013703          	ld	a4,48(sp)
   11478:	00fb0ab3          	add	s5,s6,a5
   1147c:	00070693          	mv	a3,a4
   11480:	3ae7c863          	blt	a5,a4,11830 <_vfprintf_r+0x1364>
   11484:	00068c9b          	sext.w	s9,a3
   11488:	03905663          	blez	s9,114b4 <_vfprintf_r+0xfe8>
   1148c:	10812603          	lw	a2,264(sp)
   11490:	019d8db3          	add	s11,s11,s9
   11494:	01643023          	sd	s6,0(s0)
   11498:	0016059b          	addiw	a1,a2,1
   1149c:	01943423          	sd	s9,8(s0)
   114a0:	11b13823          	sd	s11,272(sp)
   114a4:	10b12423          	sw	a1,264(sp)
   114a8:	00700613          	li	a2,7
   114ac:	01040413          	addi	s0,s0,16
   114b0:	50b646e3          	blt	a2,a1,121bc <_vfprintf_r+0x1cf0>
   114b4:	fffcc613          	not	a2,s9
   114b8:	03013783          	ld	a5,48(sp)
   114bc:	43f65613          	srai	a2,a2,0x3f
   114c0:	00ccf6b3          	and	a3,s9,a2
   114c4:	40d78cbb          	subw	s9,a5,a3
   114c8:	49904663          	bgtz	s9,11954 <_vfprintf_r+0x1488>
   114cc:	03013783          	ld	a5,48(sp)
   114d0:	40097693          	andi	a3,s2,1024
   114d4:	00fb0b33          	add	s6,s6,a5
   114d8:	0a069ae3          	bnez	a3,11d8c <_vfprintf_r+0x18c0>
   114dc:	0d812683          	lw	a3,216(sp)
   114e0:	03813783          	ld	a5,56(sp)
   114e4:	00f6c663          	blt	a3,a5,114f0 <_vfprintf_r+0x1024>
   114e8:	00197613          	andi	a2,s2,1
   114ec:	4e060ce3          	beqz	a2,121e4 <_vfprintf_r+0x1d18>
   114f0:	10812603          	lw	a2,264(sp)
   114f4:	05813783          	ld	a5,88(sp)
   114f8:	06013583          	ld	a1,96(sp)
   114fc:	01040413          	addi	s0,s0,16
   11500:	01b78733          	add	a4,a5,s11
   11504:	feb43823          	sd	a1,-16(s0)
   11508:	0016059b          	addiw	a1,a2,1
   1150c:	fef43c23          	sd	a5,-8(s0)
   11510:	10e13823          	sd	a4,272(sp)
   11514:	10b12423          	sw	a1,264(sp)
   11518:	00700613          	li	a2,7
   1151c:	00b65463          	bge	a2,a1,11524 <_vfprintf_r+0x1058>
   11520:	1380106f          	j	12658 <_vfprintf_r+0x218c>
   11524:	03813783          	ld	a5,56(sp)
   11528:	416a8cb3          	sub	s9,s5,s6
   1152c:	000c859b          	sext.w	a1,s9
   11530:	40d7863b          	subw	a2,a5,a3
   11534:	00b65463          	bge	a2,a1,1153c <_vfprintf_r+0x1070>
   11538:	00060c93          	mv	s9,a2
   1153c:	000c8c9b          	sext.w	s9,s9
   11540:	03905863          	blez	s9,11570 <_vfprintf_r+0x10a4>
   11544:	10812683          	lw	a3,264(sp)
   11548:	01970733          	add	a4,a4,s9
   1154c:	01643023          	sd	s6,0(s0)
   11550:	0016869b          	addiw	a3,a3,1
   11554:	01943423          	sd	s9,8(s0)
   11558:	10e13823          	sd	a4,272(sp)
   1155c:	10d12423          	sw	a3,264(sp)
   11560:	00700793          	li	a5,7
   11564:	01040413          	addi	s0,s0,16
   11568:	00d7d463          	bge	a5,a3,11570 <_vfprintf_r+0x10a4>
   1156c:	19c0106f          	j	12708 <_vfprintf_r+0x223c>
   11570:	fffcc793          	not	a5,s9
   11574:	43f7d793          	srai	a5,a5,0x3f
   11578:	00fcfcb3          	and	s9,s9,a5
   1157c:	41960cbb          	subw	s9,a2,s9
   11580:	a7905063          	blez	s9,107e0 <_vfprintf_r+0x314>
   11584:	0002cf37          	lui	t5,0x2c
   11588:	01000693          	li	a3,16
   1158c:	10812783          	lw	a5,264(sp)
   11590:	090f0d93          	addi	s11,t5,144 # 2c090 <zeroes.0>
   11594:	6596d063          	bge	a3,s9,11bd4 <_vfprintf_r+0x1708>
   11598:	00013b03          	ld	s6,0(sp)
   1159c:	01000d13          	li	s10,16
   115a0:	00700a93          	li	s5,7
   115a4:	00c0006f          	j	115b0 <_vfprintf_r+0x10e4>
   115a8:	ff0c8c9b          	addiw	s9,s9,-16
   115ac:	639d5463          	bge	s10,s9,11bd4 <_vfprintf_r+0x1708>
   115b0:	0017879b          	addiw	a5,a5,1
   115b4:	01070713          	addi	a4,a4,16
   115b8:	01b43023          	sd	s11,0(s0)
   115bc:	01a43423          	sd	s10,8(s0)
   115c0:	10e13823          	sd	a4,272(sp)
   115c4:	10f12423          	sw	a5,264(sp)
   115c8:	01040413          	addi	s0,s0,16
   115cc:	fcfadee3          	bge	s5,a5,115a8 <_vfprintf_r+0x10dc>
   115d0:	10010613          	addi	a2,sp,256
   115d4:	000b0593          	mv	a1,s6
   115d8:	00098513          	mv	a0,s3
   115dc:	3bc100ef          	jal	ra,21998 <__sprint_r>
   115e0:	c6051ee3          	bnez	a0,1125c <_vfprintf_r+0xd90>
   115e4:	11013703          	ld	a4,272(sp)
   115e8:	10812783          	lw	a5,264(sp)
   115ec:	18010413          	addi	s0,sp,384
   115f0:	fb9ff06f          	j	115a8 <_vfprintf_r+0x10dc>
   115f4:	00197613          	andi	a2,s2,1
   115f8:	c4061663          	bnez	a2,10a44 <_vfprintf_r+0x578>
   115fc:	10812603          	lw	a2,264(sp)
   11600:	001d8d13          	addi	s10,s11,1
   11604:	01643023          	sd	s6,0(s0)
   11608:	0016079b          	addiw	a5,a2,1
   1160c:	00d43423          	sd	a3,8(s0)
   11610:	10f12423          	sw	a5,264(sp)
   11614:	0007841b          	sext.w	s0,a5
   11618:	11a13823          	sd	s10,272(sp)
   1161c:	00700793          	li	a5,7
   11620:	cc87d263          	bge	a5,s0,10ae4 <_vfprintf_r+0x618>
   11624:	00013583          	ld	a1,0(sp)
   11628:	10010613          	addi	a2,sp,256
   1162c:	00098513          	mv	a0,s3
   11630:	368100ef          	jal	ra,21998 <__sprint_r>
   11634:	c20514e3          	bnez	a0,1125c <_vfprintf_r+0xd90>
   11638:	11013d03          	ld	s10,272(sp)
   1163c:	10812403          	lw	s0,264(sp)
   11640:	18010c93          	addi	s9,sp,384
   11644:	ca0ff06f          	j	10ae4 <_vfprintf_r+0x618>
   11648:	03813703          	ld	a4,56(sp)
   1164c:	00100793          	li	a5,1
   11650:	c8e7da63          	bge	a5,a4,10ae4 <_vfprintf_r+0x618>
   11654:	0002cf37          	lui	t5,0x2c
   11658:	01100793          	li	a5,17
   1165c:	090f0d93          	addi	s11,t5,144 # 2c090 <zeroes.0>
   11660:	66e7d463          	bge	a5,a4,11cc8 <_vfprintf_r+0x17fc>
   11664:	00013b83          	ld	s7,0(sp)
   11668:	01000713          	li	a4,16
   1166c:	00700b13          	li	s6,7
   11670:	00c0006f          	j	1167c <_vfprintf_r+0x11b0>
   11674:	ff0a8a9b          	addiw	s5,s5,-16
   11678:	65575863          	bge	a4,s5,11cc8 <_vfprintf_r+0x17fc>
   1167c:	0014041b          	addiw	s0,s0,1
   11680:	010d0d13          	addi	s10,s10,16
   11684:	01bcb023          	sd	s11,0(s9)
   11688:	00ecb423          	sd	a4,8(s9)
   1168c:	11a13823          	sd	s10,272(sp)
   11690:	10812423          	sw	s0,264(sp)
   11694:	010c8c93          	addi	s9,s9,16
   11698:	fc8b5ee3          	bge	s6,s0,11674 <_vfprintf_r+0x11a8>
   1169c:	10010613          	addi	a2,sp,256
   116a0:	000b8593          	mv	a1,s7
   116a4:	00098513          	mv	a0,s3
   116a8:	2f0100ef          	jal	ra,21998 <__sprint_r>
   116ac:	ba0518e3          	bnez	a0,1125c <_vfprintf_r+0xd90>
   116b0:	11013d03          	ld	s10,272(sp)
   116b4:	10812403          	lw	s0,264(sp)
   116b8:	18010c93          	addi	s9,sp,384
   116bc:	01000713          	li	a4,16
   116c0:	fb5ff06f          	j	11674 <_vfprintf_r+0x11a8>
   116c4:	00013583          	ld	a1,0(sp)
   116c8:	10010613          	addi	a2,sp,256
   116cc:	00098513          	mv	a0,s3
   116d0:	2c8100ef          	jal	ra,21998 <__sprint_r>
   116d4:	b80514e3          	bnez	a0,1125c <_vfprintf_r+0xd90>
   116d8:	11013d83          	ld	s11,272(sp)
   116dc:	18010413          	addi	s0,sp,384
   116e0:	8d0ff06f          	j	107b0 <_vfprintf_r+0x2e4>
   116e4:	01097793          	andi	a5,s2,16
   116e8:	12079c63          	bnez	a5,11820 <_vfprintf_r+0x1354>
   116ec:	02013683          	ld	a3,32(sp)
   116f0:	04097793          	andi	a5,s2,64
   116f4:	0006ad03          	lw	s10,0(a3)
   116f8:	5e078c63          	beqz	a5,11cf0 <_vfprintf_r+0x1824>
   116fc:	010d1d1b          	slliw	s10,s10,0x10
   11700:	410d5d1b          	sraiw	s10,s10,0x10
   11704:	000d0793          	mv	a5,s10
   11708:	ea07da63          	bgez	a5,10dbc <_vfprintf_r+0x8f0>
   1170c:	02e13023          	sd	a4,32(sp)
   11710:	41a00d33          	neg	s10,s10
   11714:	00090d93          	mv	s11,s2
   11718:	02d00713          	li	a4,45
   1171c:	00100793          	li	a5,1
   11720:	e0cff06f          	j	10d2c <_vfprintf_r+0x860>
   11724:	01097793          	andi	a5,s2,16
   11728:	0e079663          	bnez	a5,11814 <_vfprintf_r+0x1348>
   1172c:	02013683          	ld	a3,32(sp)
   11730:	04097793          	andi	a5,s2,64
   11734:	0006ad03          	lw	s10,0(a3)
   11738:	5e078c63          	beqz	a5,11d30 <_vfprintf_r+0x1864>
   1173c:	030d1d13          	slli	s10,s10,0x30
   11740:	030d5d13          	srli	s10,s10,0x30
   11744:	ec0ff06f          	j	10e04 <_vfprintf_r+0x938>
   11748:	010df793          	andi	a5,s11,16
   1174c:	0a079a63          	bnez	a5,11800 <_vfprintf_r+0x1334>
   11750:	02013683          	ld	a3,32(sp)
   11754:	040df793          	andi	a5,s11,64
   11758:	0006ad03          	lw	s10,0(a3)
   1175c:	5a078e63          	beqz	a5,11d18 <_vfprintf_r+0x184c>
   11760:	030d1d13          	slli	s10,s10,0x30
   11764:	030d5d13          	srli	s10,s10,0x30
   11768:	02e13023          	sd	a4,32(sp)
   1176c:	00100793          	li	a5,1
   11770:	db8ff06f          	j	10d28 <_vfprintf_r+0x85c>
   11774:	00000d13          	li	s10,0
   11778:	17c10b13          	addi	s6,sp,380
   1177c:	ddcff06f          	j	10d58 <_vfprintf_r+0x88c>
   11780:	00197793          	andi	a5,s2,1
   11784:	000d8713          	mv	a4,s11
   11788:	00079463          	bnez	a5,11790 <_vfprintf_r+0x12c4>
   1178c:	854ff06f          	j	107e0 <_vfprintf_r+0x314>
   11790:	f98ff06f          	j	10f28 <_vfprintf_r+0xa5c>
   11794:	000a8313          	mv	t1,s5
   11798:	e08ff06f          	j	10da0 <_vfprintf_r+0x8d4>
   1179c:	0004ce03          	lbu	t3,0(s1)
   117a0:	02f13023          	sd	a5,32(sp)
   117a4:	ed5fe06f          	j	10678 <_vfprintf_r+0x1ac>
   117a8:	03000793          	li	a5,48
   117ac:	16f10da3          	sb	a5,379(sp)
   117b0:	17b10b13          	addi	s6,sp,379
   117b4:	da4ff06f          	j	10d58 <_vfprintf_r+0x88c>
   117b8:	01097793          	andi	a5,s2,16
   117bc:	e6079e63          	bnez	a5,10e38 <_vfprintf_r+0x96c>
   117c0:	04097793          	andi	a5,s2,64
   117c4:	240796e3          	bnez	a5,12210 <_vfprintf_r+0x1d44>
   117c8:	20097913          	andi	s2,s2,512
   117cc:	01013783          	ld	a5,16(sp)
   117d0:	00091463          	bnez	s2,117d8 <_vfprintf_r+0x130c>
   117d4:	1d40106f          	j	129a8 <_vfprintf_r+0x24dc>
   117d8:	00f70023          	sb	a5,0(a4)
   117dc:	e64ff06f          	j	10e40 <_vfprintf_r+0x974>
   117e0:	02013783          	ld	a5,32(sp)
   117e4:	00f78a93          	addi	s5,a5,15
   117e8:	ff0afa93          	andi	s5,s5,-16
   117ec:	010a8793          	addi	a5,s5,16
   117f0:	000ab703          	ld	a4,0(s5)
   117f4:	008ab583          	ld	a1,8(s5)
   117f8:	02f13023          	sd	a5,32(sp)
   117fc:	950ff06f          	j	1094c <_vfprintf_r+0x480>
   11800:	02013783          	ld	a5,32(sp)
   11804:	02e13023          	sd	a4,32(sp)
   11808:	0007bd03          	ld	s10,0(a5)
   1180c:	00100793          	li	a5,1
   11810:	d18ff06f          	j	10d28 <_vfprintf_r+0x85c>
   11814:	02013783          	ld	a5,32(sp)
   11818:	0007bd03          	ld	s10,0(a5)
   1181c:	de8ff06f          	j	10e04 <_vfprintf_r+0x938>
   11820:	02013783          	ld	a5,32(sp)
   11824:	0007b783          	ld	a5,0(a5)
   11828:	00078d13          	mv	s10,a5
   1182c:	d8cff06f          	j	10db8 <_vfprintf_r+0x8ec>
   11830:	00078693          	mv	a3,a5
   11834:	00068c9b          	sext.w	s9,a3
   11838:	c5904ae3          	bgtz	s9,1148c <_vfprintf_r+0xfc0>
   1183c:	c79ff06f          	j	114b4 <_vfprintf_r+0xfe8>
   11840:	00013583          	ld	a1,0(sp)
   11844:	10010613          	addi	a2,sp,256
   11848:	00098513          	mv	a0,s3
   1184c:	08613823          	sd	t1,144(sp)
   11850:	148100ef          	jal	ra,21998 <__sprint_r>
   11854:	a00514e3          	bnez	a0,1125c <_vfprintf_r+0xd90>
   11858:	11013d83          	ld	s11,272(sp)
   1185c:	09013303          	ld	t1,144(sp)
   11860:	18010413          	addi	s0,sp,384
   11864:	f45fe06f          	j	107a8 <_vfprintf_r+0x2dc>
   11868:	0002c7b7          	lui	a5,0x2c
   1186c:	e5078793          	addi	a5,a5,-432 # 2be50 <__clzdi2+0x80>
   11870:	000a8313          	mv	t1,s5
   11874:	06f13423          	sd	a5,104(sp)
   11878:	02013683          	ld	a3,32(sp)
   1187c:	02097793          	andi	a5,s2,32
   11880:	00868713          	addi	a4,a3,8
   11884:	14078463          	beqz	a5,119cc <_vfprintf_r+0x1500>
   11888:	0006bd03          	ld	s10,0(a3)
   1188c:	00197793          	andi	a5,s2,1
   11890:	00078e63          	beqz	a5,118ac <_vfprintf_r+0x13e0>
   11894:	000d0c63          	beqz	s10,118ac <_vfprintf_r+0x13e0>
   11898:	00296913          	ori	s2,s2,2
   1189c:	03000793          	li	a5,48
   118a0:	0cf10823          	sb	a5,208(sp)
   118a4:	0d9108a3          	sb	s9,209(sp)
   118a8:	0009091b          	sext.w	s2,s2
   118ac:	bff97d93          	andi	s11,s2,-1025
   118b0:	000d8d9b          	sext.w	s11,s11
   118b4:	02e13023          	sd	a4,32(sp)
   118b8:	00200793          	li	a5,2
   118bc:	c6cff06f          	j	10d28 <_vfprintf_r+0x85c>
   118c0:	000a8313          	mv	t1,s5
   118c4:	00090d93          	mv	s11,s2
   118c8:	c44ff06f          	j	10d0c <_vfprintf_r+0x840>
   118cc:	20096913          	ori	s2,s2,512
   118d0:	0014ce03          	lbu	t3,1(s1)
   118d4:	0009091b          	sext.w	s2,s2
   118d8:	00148493          	addi	s1,s1,1
   118dc:	d9dfe06f          	j	10678 <_vfprintf_r+0x1ac>
   118e0:	02096913          	ori	s2,s2,32
   118e4:	0014ce03          	lbu	t3,1(s1)
   118e8:	0009091b          	sext.w	s2,s2
   118ec:	00148493          	addi	s1,s1,1
   118f0:	d89fe06f          	j	10678 <_vfprintf_r+0x1ac>
   118f4:	000a8313          	mv	t1,s5
   118f8:	cf8ff06f          	j	10df0 <_vfprintf_r+0x924>
   118fc:	0002c7b7          	lui	a5,0x2c
   11900:	e6878793          	addi	a5,a5,-408 # 2be68 <__clzdi2+0x98>
   11904:	000a8313          	mv	t1,s5
   11908:	06f13423          	sd	a5,104(sp)
   1190c:	f6dff06f          	j	11878 <_vfprintf_r+0x13ac>
   11910:	00013583          	ld	a1,0(sp)
   11914:	10010613          	addi	a2,sp,256
   11918:	00098513          	mv	a0,s3
   1191c:	07c100ef          	jal	ra,21998 <__sprint_r>
   11920:	92051ee3          	bnez	a0,1125c <_vfprintf_r+0xd90>
   11924:	11013703          	ld	a4,272(sp)
   11928:	18010413          	addi	s0,sp,384
   1192c:	e30ff06f          	j	10f5c <_vfprintf_r+0xa90>
   11930:	00600793          	li	a5,6
   11934:	00030693          	mv	a3,t1
   11938:	0a67e2e3          	bltu	a5,t1,121dc <_vfprintf_r+0x1d10>
   1193c:	00068d1b          	sext.w	s10,a3
   11940:	0002c7b7          	lui	a5,0x2c
   11944:	000d0c13          	mv	s8,s10
   11948:	03513023          	sd	s5,32(sp)
   1194c:	e8078b13          	addi	s6,a5,-384 # 2be80 <__clzdi2+0xb0>
   11950:	da9fe06f          	j	106f8 <_vfprintf_r+0x22c>
   11954:	0002cf37          	lui	t5,0x2c
   11958:	01000593          	li	a1,16
   1195c:	000d8713          	mv	a4,s11
   11960:	10812603          	lw	a2,264(sp)
   11964:	090f0d93          	addi	s11,t5,144 # 2c090 <zeroes.0>
   11968:	3f95dc63          	bge	a1,s9,11d60 <_vfprintf_r+0x1894>
   1196c:	00013b83          	ld	s7,0(sp)
   11970:	01000893          	li	a7,16
   11974:	00700d13          	li	s10,7
   11978:	00c0006f          	j	11984 <_vfprintf_r+0x14b8>
   1197c:	ff0c8c9b          	addiw	s9,s9,-16
   11980:	3f98d063          	bge	a7,s9,11d60 <_vfprintf_r+0x1894>
   11984:	0016061b          	addiw	a2,a2,1
   11988:	01070713          	addi	a4,a4,16
   1198c:	01b43023          	sd	s11,0(s0)
   11990:	01143423          	sd	a7,8(s0)
   11994:	10e13823          	sd	a4,272(sp)
   11998:	10c12423          	sw	a2,264(sp)
   1199c:	01040413          	addi	s0,s0,16
   119a0:	fccd5ee3          	bge	s10,a2,1197c <_vfprintf_r+0x14b0>
   119a4:	10010613          	addi	a2,sp,256
   119a8:	000b8593          	mv	a1,s7
   119ac:	00098513          	mv	a0,s3
   119b0:	7e90f0ef          	jal	ra,21998 <__sprint_r>
   119b4:	8a0514e3          	bnez	a0,1125c <_vfprintf_r+0xd90>
   119b8:	11013703          	ld	a4,272(sp)
   119bc:	10812603          	lw	a2,264(sp)
   119c0:	18010413          	addi	s0,sp,384
   119c4:	01000893          	li	a7,16
   119c8:	fb5ff06f          	j	1197c <_vfprintf_r+0x14b0>
   119cc:	01097793          	andi	a5,s2,16
   119d0:	1c078463          	beqz	a5,11b98 <_vfprintf_r+0x16cc>
   119d4:	02013783          	ld	a5,32(sp)
   119d8:	0007bd03          	ld	s10,0(a5)
   119dc:	eb1ff06f          	j	1188c <_vfprintf_r+0x13c0>
   119e0:	00013583          	ld	a1,0(sp)
   119e4:	10010613          	addi	a2,sp,256
   119e8:	00098513          	mv	a0,s3
   119ec:	7ad0f0ef          	jal	ra,21998 <__sprint_r>
   119f0:	860516e3          	bnez	a0,1125c <_vfprintf_r+0xd90>
   119f4:	11013703          	ld	a4,272(sp)
   119f8:	10812683          	lw	a3,264(sp)
   119fc:	18010c93          	addi	s9,sp,384
   11a00:	870ff06f          	j	10a70 <_vfprintf_r+0x5a4>
   11a04:	00013583          	ld	a1,0(sp)
   11a08:	10010613          	addi	a2,sp,256
   11a0c:	00098513          	mv	a0,s3
   11a10:	7890f0ef          	jal	ra,21998 <__sprint_r>
   11a14:	840514e3          	bnez	a0,1125c <_vfprintf_r+0xd90>
   11a18:	11013d03          	ld	s10,272(sp)
   11a1c:	10812403          	lw	s0,264(sp)
   11a20:	18010c93          	addi	s9,sp,384
   11a24:	878ff06f          	j	10a9c <_vfprintf_r+0x5d0>
   11a28:	17c10a93          	addi	s5,sp,380
   11a2c:	00913c23          	sd	s1,24(sp)
   11a30:	07813483          	ld	s1,120(sp)
   11a34:	400df913          	andi	s2,s11,1024
   11a38:	000a8b13          	mv	s6,s5
   11a3c:	00000793          	li	a5,0
   11a40:	04813023          	sd	s0,64(sp)
   11a44:	00098a93          	mv	s5,s3
   11a48:	00090413          	mv	s0,s2
   11a4c:	00900b93          	li	s7,9
   11a50:	0ff00c13          	li	s8,255
   11a54:	02613823          	sd	t1,48(sp)
   11a58:	00078913          	mv	s2,a5
   11a5c:	000b0993          	mv	s3,s6
   11a60:	00a00593          	li	a1,10
   11a64:	000d0513          	mv	a0,s10
   11a68:	2f81a0ef          	jal	ra,2bd60 <__umoddi3>
   11a6c:	0305051b          	addiw	a0,a0,48
   11a70:	fea98fa3          	sb	a0,-1(s3)
   11a74:	0019091b          	addiw	s2,s2,1
   11a78:	fff98993          	addi	s3,s3,-1
   11a7c:	00040663          	beqz	s0,11a88 <_vfprintf_r+0x15bc>
   11a80:	0004c703          	lbu	a4,0(s1)
   11a84:	04e90663          	beq	s2,a4,11ad0 <_vfprintf_r+0x1604>
   11a88:	00a00593          	li	a1,10
   11a8c:	000d0513          	mv	a0,s10
   11a90:	2881a0ef          	jal	ra,2bd18 <__hidden___udivdi3>
   11a94:	01abf663          	bgeu	s7,s10,11aa0 <_vfprintf_r+0x15d4>
   11a98:	00050d13          	mv	s10,a0
   11a9c:	fc5ff06f          	j	11a60 <_vfprintf_r+0x1594>
   11aa0:	000b0793          	mv	a5,s6
   11aa4:	00098b13          	mv	s6,s3
   11aa8:	000a8993          	mv	s3,s5
   11aac:	00078a93          	mv	s5,a5
   11ab0:	03213c23          	sd	s2,56(sp)
   11ab4:	06913c23          	sd	s1,120(sp)
   11ab8:	03013303          	ld	t1,48(sp)
   11abc:	01813483          	ld	s1,24(sp)
   11ac0:	04013403          	ld	s0,64(sp)
   11ac4:	416a8d3b          	subw	s10,s5,s6
   11ac8:	000d8913          	mv	s2,s11
   11acc:	a8cff06f          	j	10d58 <_vfprintf_r+0x88c>
   11ad0:	fb870ce3          	beq	a4,s8,11a88 <_vfprintf_r+0x15bc>
   11ad4:	fdabf6e3          	bgeu	s7,s10,11aa0 <_vfprintf_r+0x15d4>
   11ad8:	08013783          	ld	a5,128(sp)
   11adc:	08813583          	ld	a1,136(sp)
   11ae0:	00000913          	li	s2,0
   11ae4:	40f989b3          	sub	s3,s3,a5
   11ae8:	00078613          	mv	a2,a5
   11aec:	00098513          	mv	a0,s3
   11af0:	1f00b0ef          	jal	ra,1cce0 <strncpy>
   11af4:	0014c703          	lbu	a4,1(s1)
   11af8:	000d0513          	mv	a0,s10
   11afc:	00a00593          	li	a1,10
   11b00:	00e03733          	snez	a4,a4
   11b04:	00e484b3          	add	s1,s1,a4
   11b08:	2101a0ef          	jal	ra,2bd18 <__hidden___udivdi3>
   11b0c:	00050d13          	mv	s10,a0
   11b10:	f51ff06f          	j	11a60 <_vfprintf_r+0x1594>
   11b14:	10812683          	lw	a3,264(sp)
   11b18:	0002c5b7          	lui	a1,0x2c
   11b1c:	e8858593          	addi	a1,a1,-376 # 2be88 <__clzdi2+0xb8>
   11b20:	0016869b          	addiw	a3,a3,1
   11b24:	00b43023          	sd	a1,0(s0)
   11b28:	001d8713          	addi	a4,s11,1
   11b2c:	00100593          	li	a1,1
   11b30:	00b43423          	sd	a1,8(s0)
   11b34:	10d12423          	sw	a3,264(sp)
   11b38:	0006859b          	sext.w	a1,a3
   11b3c:	10e13823          	sd	a4,272(sp)
   11b40:	00700693          	li	a3,7
   11b44:	01040413          	addi	s0,s0,16
   11b48:	44b6ce63          	blt	a3,a1,11fa4 <_vfprintf_r+0x1ad8>
   11b4c:	10061663          	bnez	a2,11c58 <_vfprintf_r+0x178c>
   11b50:	03813783          	ld	a5,56(sp)
   11b54:	00197693          	andi	a3,s2,1
   11b58:	00d7e6b3          	or	a3,a5,a3
   11b5c:	00069463          	bnez	a3,11b64 <_vfprintf_r+0x1698>
   11b60:	c81fe06f          	j	107e0 <_vfprintf_r+0x314>
   11b64:	10812603          	lw	a2,264(sp)
   11b68:	05813783          	ld	a5,88(sp)
   11b6c:	06013683          	ld	a3,96(sp)
   11b70:	00e78733          	add	a4,a5,a4
   11b74:	00d43023          	sd	a3,0(s0)
   11b78:	0016069b          	addiw	a3,a2,1
   11b7c:	00f43423          	sd	a5,8(s0)
   11b80:	10e13823          	sd	a4,272(sp)
   11b84:	10d12423          	sw	a3,264(sp)
   11b88:	00700613          	li	a2,7
   11b8c:	6cd64e63          	blt	a2,a3,12268 <_vfprintf_r+0x1d9c>
   11b90:	01040413          	addi	s0,s0,16
   11b94:	0f80006f          	j	11c8c <_vfprintf_r+0x17c0>
   11b98:	02013683          	ld	a3,32(sp)
   11b9c:	04097793          	andi	a5,s2,64
   11ba0:	0006ad03          	lw	s10,0(a3)
   11ba4:	16078263          	beqz	a5,11d08 <_vfprintf_r+0x183c>
   11ba8:	030d1d13          	slli	s10,s10,0x30
   11bac:	030d5d13          	srli	s10,s10,0x30
   11bb0:	cddff06f          	j	1188c <_vfprintf_r+0x13c0>
   11bb4:	00013583          	ld	a1,0(sp)
   11bb8:	10010613          	addi	a2,sp,256
   11bbc:	00098513          	mv	a0,s3
   11bc0:	5d90f0ef          	jal	ra,21998 <__sprint_r>
   11bc4:	e8051c63          	bnez	a0,1125c <_vfprintf_r+0xd90>
   11bc8:	11013d83          	ld	s11,272(sp)
   11bcc:	18010413          	addi	s0,sp,384
   11bd0:	b4cff06f          	j	10f1c <_vfprintf_r+0xa50>
   11bd4:	0017869b          	addiw	a3,a5,1
   11bd8:	01b43023          	sd	s11,0(s0)
   11bdc:	01943423          	sd	s9,8(s0)
   11be0:	01970733          	add	a4,a4,s9
   11be4:	10e13823          	sd	a4,272(sp)
   11be8:	10d12423          	sw	a3,264(sp)
   11bec:	00700793          	li	a5,7
   11bf0:	00d7c463          	blt	a5,a3,11bf8 <_vfprintf_r+0x172c>
   11bf4:	be9fe06f          	j	107dc <_vfprintf_r+0x310>
   11bf8:	f1dfe06f          	j	10b14 <_vfprintf_r+0x648>
   11bfc:	0f013503          	ld	a0,240(sp)
   11c00:	0f813583          	ld	a1,248(sp)
   11c04:	00000613          	li	a2,0
   11c08:	00000693          	li	a3,0
   11c0c:	19d180ef          	jal	ra,2a5a8 <__letf2>
   11c10:	260548e3          	bltz	a0,12680 <_vfprintf_r+0x21b4>
   11c14:	0cf14703          	lbu	a4,207(sp)
   11c18:	04700793          	li	a5,71
   11c1c:	3b97d663          	bge	a5,s9,11fc8 <_vfprintf_r+0x1afc>
   11c20:	0002c7b7          	lui	a5,0x2c
   11c24:	e3878b13          	addi	s6,a5,-456 # 2be38 <__clzdi2+0x68>
   11c28:	f7f97913          	andi	s2,s2,-129
   11c2c:	00013c23          	sd	zero,24(sp)
   11c30:	04013423          	sd	zero,72(sp)
   11c34:	04013023          	sd	zero,64(sp)
   11c38:	02013823          	sd	zero,48(sp)
   11c3c:	0009091b          	sext.w	s2,s2
   11c40:	00300c13          	li	s8,3
   11c44:	00300d13          	li	s10,3
   11c48:	00000313          	li	t1,0
   11c4c:	00070463          	beqz	a4,11c54 <_vfprintf_r+0x1788>
   11c50:	f95fe06f          	j	10be4 <_vfprintf_r+0x718>
   11c54:	ab9fe06f          	j	1070c <_vfprintf_r+0x240>
   11c58:	10812583          	lw	a1,264(sp)
   11c5c:	05813783          	ld	a5,88(sp)
   11c60:	06013683          	ld	a3,96(sp)
   11c64:	01040413          	addi	s0,s0,16
   11c68:	00e78733          	add	a4,a5,a4
   11c6c:	fed43823          	sd	a3,-16(s0)
   11c70:	0015869b          	addiw	a3,a1,1
   11c74:	fef43c23          	sd	a5,-8(s0)
   11c78:	10e13823          	sd	a4,272(sp)
   11c7c:	10d12423          	sw	a3,264(sp)
   11c80:	00700593          	li	a1,7
   11c84:	5ed5c263          	blt	a1,a3,12268 <_vfprintf_r+0x1d9c>
   11c88:	2c0642e3          	bltz	a2,1274c <_vfprintf_r+0x2280>
   11c8c:	03813783          	ld	a5,56(sp)
   11c90:	0016861b          	addiw	a2,a3,1
   11c94:	01643023          	sd	s6,0(s0)
   11c98:	00e78733          	add	a4,a5,a4
   11c9c:	00f43423          	sd	a5,8(s0)
   11ca0:	10e13823          	sd	a4,272(sp)
   11ca4:	10c12423          	sw	a2,264(sp)
   11ca8:	00700793          	li	a5,7
   11cac:	00c7c463          	blt	a5,a2,11cb4 <_vfprintf_r+0x17e8>
   11cb0:	b2dfe06f          	j	107dc <_vfprintf_r+0x310>
   11cb4:	e61fe06f          	j	10b14 <_vfprintf_r+0x648>
   11cb8:	000b0513          	mv	a0,s6
   11cbc:	75d0a0ef          	jal	ra,1cc18 <strlen>
   11cc0:	00050d1b          	sext.w	s10,a0
   11cc4:	ef5fe06f          	j	10bb8 <_vfprintf_r+0x6ec>
   11cc8:	0014041b          	addiw	s0,s0,1
   11ccc:	015d0d33          	add	s10,s10,s5
   11cd0:	01bcb023          	sd	s11,0(s9)
   11cd4:	015cb423          	sd	s5,8(s9)
   11cd8:	11a13823          	sd	s10,272(sp)
   11cdc:	10812423          	sw	s0,264(sp)
   11ce0:	00700793          	li	a5,7
   11ce4:	0087c463          	blt	a5,s0,11cec <_vfprintf_r+0x1820>
   11ce8:	df9fe06f          	j	10ae0 <_vfprintf_r+0x614>
   11cec:	939ff06f          	j	11624 <_vfprintf_r+0x1158>
   11cf0:	20097793          	andi	a5,s2,512
   11cf4:	52078a63          	beqz	a5,12228 <_vfprintf_r+0x1d5c>
   11cf8:	018d1d1b          	slliw	s10,s10,0x18
   11cfc:	418d5d1b          	sraiw	s10,s10,0x18
   11d00:	000d0793          	mv	a5,s10
   11d04:	8b4ff06f          	j	10db8 <_vfprintf_r+0x8ec>
   11d08:	20097793          	andi	a5,s2,512
   11d0c:	50078863          	beqz	a5,1221c <_vfprintf_r+0x1d50>
   11d10:	0ffd7d13          	zext.b	s10,s10
   11d14:	b79ff06f          	j	1188c <_vfprintf_r+0x13c0>
   11d18:	200df793          	andi	a5,s11,512
   11d1c:	50078a63          	beqz	a5,12230 <_vfprintf_r+0x1d64>
   11d20:	0ffd7d13          	zext.b	s10,s10
   11d24:	02e13023          	sd	a4,32(sp)
   11d28:	00100793          	li	a5,1
   11d2c:	ffdfe06f          	j	10d28 <_vfprintf_r+0x85c>
   11d30:	20097793          	andi	a5,s2,512
   11d34:	4c078863          	beqz	a5,12204 <_vfprintf_r+0x1d38>
   11d38:	0ffd7d13          	zext.b	s10,s10
   11d3c:	8c8ff06f          	j	10e04 <_vfprintf_r+0x938>
   11d40:	0f813783          	ld	a5,248(sp)
   11d44:	5007c063          	bltz	a5,12244 <_vfprintf_r+0x1d78>
   11d48:	0cf14703          	lbu	a4,207(sp)
   11d4c:	04700793          	li	a5,71
   11d50:	1f97d4e3          	bge	a5,s9,12738 <_vfprintf_r+0x226c>
   11d54:	0002c7b7          	lui	a5,0x2c
   11d58:	e4878b13          	addi	s6,a5,-440 # 2be48 <__clzdi2+0x78>
   11d5c:	ecdff06f          	j	11c28 <_vfprintf_r+0x175c>
   11d60:	0016059b          	addiw	a1,a2,1
   11d64:	00ec8733          	add	a4,s9,a4
   11d68:	01b43023          	sd	s11,0(s0)
   11d6c:	01943423          	sd	s9,8(s0)
   11d70:	10e13823          	sd	a4,272(sp)
   11d74:	10b12423          	sw	a1,264(sp)
   11d78:	00700693          	li	a3,7
   11d7c:	72b6c863          	blt	a3,a1,124ac <_vfprintf_r+0x1fe0>
   11d80:	01040413          	addi	s0,s0,16
   11d84:	00070d93          	mv	s11,a4
   11d88:	f44ff06f          	j	114cc <_vfprintf_r+0x1000>
   11d8c:	04013c83          	ld	s9,64(sp)
   11d90:	0002ce37          	lui	t3,0x2c
   11d94:	08913823          	sd	s1,144(sp)
   11d98:	09213c23          	sd	s2,152(sp)
   11d9c:	0b413023          	sd	s4,160(sp)
   11da0:	05813023          	sd	s8,64(sp)
   11da4:	000b0a13          	mv	s4,s6
   11da8:	07813903          	ld	s2,120(sp)
   11dac:	08813483          	ld	s1,136(sp)
   11db0:	08013b03          	ld	s6,128(sp)
   11db4:	04813c03          	ld	s8,72(sp)
   11db8:	00013b83          	ld	s7,0(sp)
   11dbc:	00700313          	li	t1,7
   11dc0:	01000893          	li	a7,16
   11dc4:	090e0d13          	addi	s10,t3,144 # 2c090 <zeroes.0>
   11dc8:	000d8713          	mv	a4,s11
   11dcc:	080c8c63          	beqz	s9,11e64 <_vfprintf_r+0x1998>
   11dd0:	160c0863          	beqz	s8,11f40 <_vfprintf_r+0x1a74>
   11dd4:	fffc0c1b          	addiw	s8,s8,-1
   11dd8:	10812783          	lw	a5,264(sp)
   11ddc:	01670733          	add	a4,a4,s6
   11de0:	00943023          	sd	s1,0(s0)
   11de4:	0017869b          	addiw	a3,a5,1
   11de8:	01643423          	sd	s6,8(s0)
   11dec:	10e13823          	sd	a4,272(sp)
   11df0:	10d12423          	sw	a3,264(sp)
   11df4:	01040413          	addi	s0,s0,16
   11df8:	14d34a63          	blt	t1,a3,11f4c <_vfprintf_r+0x1a80>
   11dfc:	00094683          	lbu	a3,0(s2)
   11e00:	414a8db3          	sub	s11,s5,s4
   11e04:	000d879b          	sext.w	a5,s11
   11e08:	0006861b          	sext.w	a2,a3
   11e0c:	00f6d463          	bge	a3,a5,11e14 <_vfprintf_r+0x1948>
   11e10:	00060d93          	mv	s11,a2
   11e14:	000d8d9b          	sext.w	s11,s11
   11e18:	03b05863          	blez	s11,11e48 <_vfprintf_r+0x197c>
   11e1c:	10812783          	lw	a5,264(sp)
   11e20:	01b70733          	add	a4,a4,s11
   11e24:	01443023          	sd	s4,0(s0)
   11e28:	0017869b          	addiw	a3,a5,1
   11e2c:	01b43423          	sd	s11,8(s0)
   11e30:	10e13823          	sd	a4,272(sp)
   11e34:	10d12423          	sw	a3,264(sp)
   11e38:	12d34e63          	blt	t1,a3,11f74 <_vfprintf_r+0x1aa8>
   11e3c:	00094683          	lbu	a3,0(s2)
   11e40:	01040413          	addi	s0,s0,16
   11e44:	0006861b          	sext.w	a2,a3
   11e48:	fffdc793          	not	a5,s11
   11e4c:	43f7d793          	srai	a5,a5,0x3f
   11e50:	00fdf7b3          	and	a5,s11,a5
   11e54:	40f60dbb          	subw	s11,a2,a5
   11e58:	03b04c63          	bgtz	s11,11e90 <_vfprintf_r+0x19c4>
   11e5c:	00da0a33          	add	s4,s4,a3
   11e60:	f60c98e3          	bnez	s9,11dd0 <_vfprintf_r+0x1904>
   11e64:	f60c18e3          	bnez	s8,11dd4 <_vfprintf_r+0x1908>
   11e68:	07213c23          	sd	s2,120(sp)
   11e6c:	000a0b13          	mv	s6,s4
   11e70:	09013483          	ld	s1,144(sp)
   11e74:	09813903          	ld	s2,152(sp)
   11e78:	0a013a03          	ld	s4,160(sp)
   11e7c:	04013c03          	ld	s8,64(sp)
   11e80:	00070d93          	mv	s11,a4
   11e84:	e56afc63          	bgeu	s5,s6,114dc <_vfprintf_r+0x1010>
   11e88:	000a8b13          	mv	s6,s5
   11e8c:	e50ff06f          	j	114dc <_vfprintf_r+0x1010>
   11e90:	0002c637          	lui	a2,0x2c
   11e94:	10812783          	lw	a5,264(sp)
   11e98:	09060613          	addi	a2,a2,144 # 2c090 <zeroes.0>
   11e9c:	07b8dc63          	bge	a7,s11,11f14 <_vfprintf_r+0x1a48>
   11ea0:	02913823          	sd	s1,48(sp)
   11ea4:	000d8493          	mv	s1,s11
   11ea8:	000d0d93          	mv	s11,s10
   11eac:	00c0006f          	j	11eb8 <_vfprintf_r+0x19ec>
   11eb0:	ff04849b          	addiw	s1,s1,-16
   11eb4:	0498da63          	bge	a7,s1,11f08 <_vfprintf_r+0x1a3c>
   11eb8:	0017879b          	addiw	a5,a5,1
   11ebc:	01070713          	addi	a4,a4,16
   11ec0:	01a43023          	sd	s10,0(s0)
   11ec4:	01143423          	sd	a7,8(s0)
   11ec8:	10e13823          	sd	a4,272(sp)
   11ecc:	10f12423          	sw	a5,264(sp)
   11ed0:	01040413          	addi	s0,s0,16
   11ed4:	fcf35ee3          	bge	t1,a5,11eb0 <_vfprintf_r+0x19e4>
   11ed8:	10010613          	addi	a2,sp,256
   11edc:	000b8593          	mv	a1,s7
   11ee0:	00098513          	mv	a0,s3
   11ee4:	2b50f0ef          	jal	ra,21998 <__sprint_r>
   11ee8:	b6051a63          	bnez	a0,1125c <_vfprintf_r+0xd90>
   11eec:	01000893          	li	a7,16
   11ef0:	ff04849b          	addiw	s1,s1,-16
   11ef4:	11013703          	ld	a4,272(sp)
   11ef8:	10812783          	lw	a5,264(sp)
   11efc:	18010413          	addi	s0,sp,384
   11f00:	00700313          	li	t1,7
   11f04:	fa98cae3          	blt	a7,s1,11eb8 <_vfprintf_r+0x19ec>
   11f08:	000d8613          	mv	a2,s11
   11f0c:	00048d93          	mv	s11,s1
   11f10:	03013483          	ld	s1,48(sp)
   11f14:	0017869b          	addiw	a3,a5,1
   11f18:	00ed8733          	add	a4,s11,a4
   11f1c:	00c43023          	sd	a2,0(s0)
   11f20:	01b43423          	sd	s11,8(s0)
   11f24:	10e13823          	sd	a4,272(sp)
   11f28:	10d12423          	sw	a3,264(sp)
   11f2c:	6ed34863          	blt	t1,a3,1261c <_vfprintf_r+0x2150>
   11f30:	00094683          	lbu	a3,0(s2)
   11f34:	01040413          	addi	s0,s0,16
   11f38:	00da0a33          	add	s4,s4,a3
   11f3c:	f25ff06f          	j	11e60 <_vfprintf_r+0x1994>
   11f40:	fff90913          	addi	s2,s2,-1
   11f44:	fffc8c9b          	addiw	s9,s9,-1
   11f48:	e91ff06f          	j	11dd8 <_vfprintf_r+0x190c>
   11f4c:	10010613          	addi	a2,sp,256
   11f50:	000b8593          	mv	a1,s7
   11f54:	00098513          	mv	a0,s3
   11f58:	2410f0ef          	jal	ra,21998 <__sprint_r>
   11f5c:	b0051063          	bnez	a0,1125c <_vfprintf_r+0xd90>
   11f60:	11013703          	ld	a4,272(sp)
   11f64:	18010413          	addi	s0,sp,384
   11f68:	01000893          	li	a7,16
   11f6c:	00700313          	li	t1,7
   11f70:	e8dff06f          	j	11dfc <_vfprintf_r+0x1930>
   11f74:	10010613          	addi	a2,sp,256
   11f78:	000b8593          	mv	a1,s7
   11f7c:	00098513          	mv	a0,s3
   11f80:	2190f0ef          	jal	ra,21998 <__sprint_r>
   11f84:	ac051c63          	bnez	a0,1125c <_vfprintf_r+0xd90>
   11f88:	00094683          	lbu	a3,0(s2)
   11f8c:	11013703          	ld	a4,272(sp)
   11f90:	18010413          	addi	s0,sp,384
   11f94:	0006861b          	sext.w	a2,a3
   11f98:	01000893          	li	a7,16
   11f9c:	00700313          	li	t1,7
   11fa0:	ea9ff06f          	j	11e48 <_vfprintf_r+0x197c>
   11fa4:	00013583          	ld	a1,0(sp)
   11fa8:	10010613          	addi	a2,sp,256
   11fac:	00098513          	mv	a0,s3
   11fb0:	1e90f0ef          	jal	ra,21998 <__sprint_r>
   11fb4:	aa051463          	bnez	a0,1125c <_vfprintf_r+0xd90>
   11fb8:	0d812603          	lw	a2,216(sp)
   11fbc:	11013703          	ld	a4,272(sp)
   11fc0:	18010413          	addi	s0,sp,384
   11fc4:	b89ff06f          	j	11b4c <_vfprintf_r+0x1680>
   11fc8:	0002c7b7          	lui	a5,0x2c
   11fcc:	e3078b13          	addi	s6,a5,-464 # 2be30 <__clzdi2+0x60>
   11fd0:	c59ff06f          	j	11c28 <_vfprintf_r+0x175c>
   11fd4:	00030913          	mv	s2,t1
   11fd8:	00200693          	li	a3,2
   11fdc:	00090713          	mv	a4,s2
   11fe0:	0e810893          	addi	a7,sp,232
   11fe4:	0dc10813          	addi	a6,sp,220
   11fe8:	0d810793          	addi	a5,sp,216
   11fec:	000b8593          	mv	a1,s7
   11ff0:	000c0613          	mv	a2,s8
   11ff4:	00098513          	mv	a0,s3
   11ff8:	02613823          	sd	t1,48(sp)
   11ffc:	081060ef          	jal	ra,1887c <_ldtoa_r>
   12000:	06700713          	li	a4,103
   12004:	03013303          	ld	t1,48(sp)
   12008:	00050b13          	mv	s6,a0
   1200c:	5eec8c63          	beq	s9,a4,12604 <_vfprintf_r+0x2138>
   12010:	04700713          	li	a4,71
   12014:	5eec8863          	beq	s9,a4,12604 <_vfprintf_r+0x2138>
   12018:	fdfcfa93          	andi	s5,s9,-33
   1201c:	04600713          	li	a4,70
   12020:	01250d33          	add	s10,a0,s2
   12024:	66ea8663          	beq	s5,a4,12690 <_vfprintf_r+0x21c4>
   12028:	000c0593          	mv	a1,s8
   1202c:	00000613          	li	a2,0
   12030:	00000693          	li	a3,0
   12034:	000b8513          	mv	a0,s7
   12038:	02613823          	sd	t1,48(sp)
   1203c:	3bc180ef          	jal	ra,2a3f8 <__eqtf2>
   12040:	03013303          	ld	t1,48(sp)
   12044:	000d0c13          	mv	s8,s10
   12048:	02050263          	beqz	a0,1206c <_vfprintf_r+0x1ba0>
   1204c:	0e813c03          	ld	s8,232(sp)
   12050:	01ac7e63          	bgeu	s8,s10,1206c <_vfprintf_r+0x1ba0>
   12054:	03000693          	li	a3,48
   12058:	001c0793          	addi	a5,s8,1
   1205c:	0ef13423          	sd	a5,232(sp)
   12060:	00dc0023          	sb	a3,0(s8)
   12064:	0e813c03          	ld	s8,232(sp)
   12068:	ffac68e3          	bltu	s8,s10,12058 <_vfprintf_r+0x1b8c>
   1206c:	416c07bb          	subw	a5,s8,s6
   12070:	02f13c23          	sd	a5,56(sp)
   12074:	0d812703          	lw	a4,216(sp)
   12078:	04700693          	li	a3,71
   1207c:	02e13823          	sd	a4,48(sp)
   12080:	4cda8c63          	beq	s5,a3,12558 <_vfprintf_r+0x208c>
   12084:	04600693          	li	a3,70
   12088:	72da8a63          	beq	s5,a3,127bc <_vfprintf_r+0x22f0>
   1208c:	fff70d1b          	addiw	s10,a4,-1
   12090:	0da12c23          	sw	s10,216(sp)
   12094:	06100693          	li	a3,97
   12098:	1cdc80e3          	beq	s9,a3,12a58 <_vfprintf_r+0x258c>
   1209c:	04100613          	li	a2,65
   120a0:	05000693          	li	a3,80
   120a4:	4ccc9863          	bne	s9,a2,12574 <_vfprintf_r+0x20a8>
   120a8:	00100613          	li	a2,1
   120ac:	0ed10023          	sb	a3,224(sp)
   120b0:	02b00693          	li	a3,43
   120b4:	000d5863          	bgez	s10,120c4 <_vfprintf_r+0x1bf8>
   120b8:	00100d13          	li	s10,1
   120bc:	40ed0d3b          	subw	s10,s10,a4
   120c0:	02d00693          	li	a3,45
   120c4:	0ed100a3          	sb	a3,225(sp)
   120c8:	00900713          	li	a4,9
   120cc:	77a75e63          	bge	a4,s10,12848 <_vfprintf_r+0x237c>
   120d0:	0ef10913          	addi	s2,sp,239
   120d4:	00090a93          	mv	s5,s2
   120d8:	06300b93          	li	s7,99
   120dc:	00a00593          	li	a1,10
   120e0:	000d0513          	mv	a0,s10
   120e4:	4b1190ef          	jal	ra,2bd94 <__moddi3>
   120e8:	0305079b          	addiw	a5,a0,48
   120ec:	fefa8fa3          	sb	a5,-1(s5)
   120f0:	000d0513          	mv	a0,s10
   120f4:	00a00593          	li	a1,10
   120f8:	000d0c13          	mv	s8,s10
   120fc:	415190ef          	jal	ra,2bd10 <__divdi3>
   12100:	000a8d93          	mv	s11,s5
   12104:	00050d1b          	sext.w	s10,a0
   12108:	fffa8a93          	addi	s5,s5,-1
   1210c:	fd8bc8e3          	blt	s7,s8,120dc <_vfprintf_r+0x1c10>
   12110:	030d0d1b          	addiw	s10,s10,48
   12114:	ffed8713          	addi	a4,s11,-2
   12118:	ffaa8fa3          	sb	s10,-1(s5)
   1211c:	1b277ae3          	bgeu	a4,s2,12ad0 <_vfprintf_r+0x2604>
   12120:	0e210693          	addi	a3,sp,226
   12124:	00074783          	lbu	a5,0(a4)
   12128:	00170713          	addi	a4,a4,1
   1212c:	00168693          	addi	a3,a3,1
   12130:	fef68fa3          	sb	a5,-1(a3)
   12134:	ff2718e3          	bne	a4,s2,12124 <_vfprintf_r+0x1c58>
   12138:	0f110713          	addi	a4,sp,241
   1213c:	0e210793          	addi	a5,sp,226
   12140:	41b70733          	sub	a4,a4,s11
   12144:	00e78733          	add	a4,a5,a4
   12148:	0e010693          	addi	a3,sp,224
   1214c:	40d707bb          	subw	a5,a4,a3
   12150:	06f13823          	sd	a5,112(sp)
   12154:	07013703          	ld	a4,112(sp)
   12158:	03813783          	ld	a5,56(sp)
   1215c:	00100613          	li	a2,1
   12160:	00e78d3b          	addw	s10,a5,a4
   12164:	000d0713          	mv	a4,s10
   12168:	02f658e3          	bge	a2,a5,12998 <_vfprintf_r+0x24cc>
   1216c:	05813783          	ld	a5,88(sp)
   12170:	00f70d3b          	addw	s10,a4,a5
   12174:	04013783          	ld	a5,64(sp)
   12178:	fffd4813          	not	a6,s10
   1217c:	43f85813          	srai	a6,a6,0x3f
   12180:	bff7f913          	andi	s2,a5,-1025
   12184:	0009091b          	sext.w	s2,s2
   12188:	010d7833          	and	a6,s10,a6
   1218c:	10096913          	ori	s2,s2,256
   12190:	00080c1b          	sext.w	s8,a6
   12194:	04013423          	sd	zero,72(sp)
   12198:	04013023          	sd	zero,64(sp)
   1219c:	02013823          	sd	zero,48(sp)
   121a0:	09813783          	ld	a5,152(sp)
   121a4:	3c078e63          	beqz	a5,12580 <_vfprintf_r+0x20b4>
   121a8:	02d00713          	li	a4,45
   121ac:	0ce107a3          	sb	a4,207(sp)
   121b0:	00000313          	li	t1,0
   121b4:	001c0c1b          	addiw	s8,s8,1
   121b8:	d54fe06f          	j	1070c <_vfprintf_r+0x240>
   121bc:	00013583          	ld	a1,0(sp)
   121c0:	10010613          	addi	a2,sp,256
   121c4:	00098513          	mv	a0,s3
   121c8:	7d00f0ef          	jal	ra,21998 <__sprint_r>
   121cc:	88051863          	bnez	a0,1125c <_vfprintf_r+0xd90>
   121d0:	11013d83          	ld	s11,272(sp)
   121d4:	18010413          	addi	s0,sp,384
   121d8:	adcff06f          	j	114b4 <_vfprintf_r+0xfe8>
   121dc:	00600693          	li	a3,6
   121e0:	f5cff06f          	j	1193c <_vfprintf_r+0x1470>
   121e4:	416a8cb3          	sub	s9,s5,s6
   121e8:	40d7863b          	subw	a2,a5,a3
   121ec:	000c879b          	sext.w	a5,s9
   121f0:	000d8713          	mv	a4,s11
   121f4:	00f65463          	bge	a2,a5,121fc <_vfprintf_r+0x1d30>
   121f8:	00060c93          	mv	s9,a2
   121fc:	000c8c9b          	sext.w	s9,s9
   12200:	b70ff06f          	j	11570 <_vfprintf_r+0x10a4>
   12204:	020d1d13          	slli	s10,s10,0x20
   12208:	020d5d13          	srli	s10,s10,0x20
   1220c:	bf9fe06f          	j	10e04 <_vfprintf_r+0x938>
   12210:	01013783          	ld	a5,16(sp)
   12214:	00f71023          	sh	a5,0(a4)
   12218:	c29fe06f          	j	10e40 <_vfprintf_r+0x974>
   1221c:	020d1d13          	slli	s10,s10,0x20
   12220:	020d5d13          	srli	s10,s10,0x20
   12224:	e68ff06f          	j	1188c <_vfprintf_r+0x13c0>
   12228:	000d0793          	mv	a5,s10
   1222c:	b8dfe06f          	j	10db8 <_vfprintf_r+0x8ec>
   12230:	020d1d13          	slli	s10,s10,0x20
   12234:	020d5d13          	srli	s10,s10,0x20
   12238:	02e13023          	sd	a4,32(sp)
   1223c:	00100793          	li	a5,1
   12240:	ae9fe06f          	j	10d28 <_vfprintf_r+0x85c>
   12244:	02d00793          	li	a5,45
   12248:	0cf107a3          	sb	a5,207(sp)
   1224c:	02d00713          	li	a4,45
   12250:	afdff06f          	j	11d4c <_vfprintf_r+0x1880>
   12254:	00013583          	ld	a1,0(sp)
   12258:	05013503          	ld	a0,80(sp)
   1225c:	10010613          	addi	a2,sp,256
   12260:	7380f0ef          	jal	ra,21998 <__sprint_r>
   12264:	ddcfe06f          	j	10840 <_vfprintf_r+0x374>
   12268:	00013583          	ld	a1,0(sp)
   1226c:	10010613          	addi	a2,sp,256
   12270:	00098513          	mv	a0,s3
   12274:	7240f0ef          	jal	ra,21998 <__sprint_r>
   12278:	00050463          	beqz	a0,12280 <_vfprintf_r+0x1db4>
   1227c:	fe1fe06f          	j	1125c <_vfprintf_r+0xd90>
   12280:	0d812603          	lw	a2,216(sp)
   12284:	11013703          	ld	a4,272(sp)
   12288:	10812683          	lw	a3,264(sp)
   1228c:	18010413          	addi	s0,sp,384
   12290:	9f9ff06f          	j	11c88 <_vfprintf_r+0x17bc>
   12294:	05800713          	li	a4,88
   12298:	00296793          	ori	a5,s2,2
   1229c:	03000693          	li	a3,48
   122a0:	0007879b          	sext.w	a5,a5
   122a4:	0ce108a3          	sb	a4,209(sp)
   122a8:	0cd10823          	sb	a3,208(sp)
   122ac:	06300713          	li	a4,99
   122b0:	04f13023          	sd	a5,64(sp)
   122b4:	00013c23          	sd	zero,24(sp)
   122b8:	11810b13          	addi	s6,sp,280
   122bc:	64674c63          	blt	a4,t1,12914 <_vfprintf_r+0x2448>
   122c0:	10296913          	ori	s2,s2,258
   122c4:	0f813c03          	ld	s8,248(sp)
   122c8:	0009079b          	sext.w	a5,s2
   122cc:	08f13823          	sd	a5,144(sp)
   122d0:	08013c23          	sd	zero,152(sp)
   122d4:	0f013b83          	ld	s7,240(sp)
   122d8:	300c4a63          	bltz	s8,125ec <_vfprintf_r+0x2120>
   122dc:	06100713          	li	a4,97
   122e0:	00ec8463          	beq	s9,a4,122e8 <_vfprintf_r+0x1e1c>
   122e4:	ef8fe06f          	j	109dc <_vfprintf_r+0x510>
   122e8:	000c0593          	mv	a1,s8
   122ec:	000b8513          	mv	a0,s7
   122f0:	02613823          	sd	t1,48(sp)
   122f4:	7f8190ef          	jal	ra,2baec <__trunctfdf2>
   122f8:	0d810593          	addi	a1,sp,216
   122fc:	3fc0a0ef          	jal	ra,1c6f8 <frexp>
   12300:	5dc190ef          	jal	ra,2b8dc <__extenddftf2>
   12304:	0002c737          	lui	a4,0x2c
   12308:	0b873683          	ld	a3,184(a4) # 2c0b8 <blanks.1+0x18>
   1230c:	00000613          	li	a2,0
   12310:	3a4180ef          	jal	ra,2a6b4 <__multf3>
   12314:	00000613          	li	a2,0
   12318:	00000693          	li	a3,0
   1231c:	00050d93          	mv	s11,a0
   12320:	00058913          	mv	s2,a1
   12324:	0d4180ef          	jal	ra,2a3f8 <__eqtf2>
   12328:	03013303          	ld	t1,48(sp)
   1232c:	00051663          	bnez	a0,12338 <_vfprintf_r+0x1e6c>
   12330:	00100713          	li	a4,1
   12334:	0ce12c23          	sw	a4,216(sp)
   12338:	0002c737          	lui	a4,0x2c
   1233c:	e6870793          	addi	a5,a4,-408 # 2be68 <__clzdi2+0x98>
   12340:	02f13c23          	sd	a5,56(sp)
   12344:	0002c6b7          	lui	a3,0x2c
   12348:	0c86b783          	ld	a5,200(a3) # 2c0c8 <blanks.1+0x28>
   1234c:	02031713          	slli	a4,t1,0x20
   12350:	02075713          	srli	a4,a4,0x20
   12354:	00170713          	addi	a4,a4,1
   12358:	02f13823          	sd	a5,48(sp)
   1235c:	0003061b          	sext.w	a2,t1
   12360:	00eb07b3          	add	a5,s6,a4
   12364:	04913423          	sd	s1,72(sp)
   12368:	0b413023          	sd	s4,160(sp)
   1236c:	0a813823          	sd	s0,176(sp)
   12370:	03813483          	ld	s1,56(sp)
   12374:	0ac13c23          	sd	a2,184(sp)
   12378:	0a613423          	sd	t1,168(sp)
   1237c:	00078413          	mv	s0,a5
   12380:	000b0a13          	mv	s4,s6
   12384:	00098b93          	mv	s7,s3
   12388:	000b0d13          	mv	s10,s6
   1238c:	0140006f          	j	123a0 <_vfprintf_r+0x1ed4>
   12390:	00000613          	li	a2,0
   12394:	00000693          	li	a3,0
   12398:	060180ef          	jal	ra,2a3f8 <__eqtf2>
   1239c:	5a050663          	beqz	a0,12948 <_vfprintf_r+0x247c>
   123a0:	03013683          	ld	a3,48(sp)
   123a4:	00000613          	li	a2,0
   123a8:	000d8513          	mv	a0,s11
   123ac:	00090593          	mv	a1,s2
   123b0:	304180ef          	jal	ra,2a6b4 <__multf3>
   123b4:	00058913          	mv	s2,a1
   123b8:	00050993          	mv	s3,a0
   123bc:	2f8190ef          	jal	ra,2b6b4 <__fixtfsi>
   123c0:	00050c1b          	sext.w	s8,a0
   123c4:	000c0513          	mv	a0,s8
   123c8:	354190ef          	jal	ra,2b71c <__floatsitf>
   123cc:	00058693          	mv	a3,a1
   123d0:	00050613          	mv	a2,a0
   123d4:	00090593          	mv	a1,s2
   123d8:	00098513          	mv	a0,s3
   123dc:	225180ef          	jal	ra,2ae00 <__subtf3>
   123e0:	01848733          	add	a4,s1,s8
   123e4:	00074683          	lbu	a3,0(a4)
   123e8:	000a0993          	mv	s3,s4
   123ec:	001a0a13          	addi	s4,s4,1
   123f0:	feda0fa3          	sb	a3,-1(s4)
   123f4:	00050a93          	mv	s5,a0
   123f8:	00058b13          	mv	s6,a1
   123fc:	00050d93          	mv	s11,a0
   12400:	00058913          	mv	s2,a1
   12404:	f94416e3          	bne	s0,s4,12390 <_vfprintf_r+0x1ec4>
   12408:	000a0a93          	mv	s5,s4
   1240c:	04813483          	ld	s1,72(sp)
   12410:	0a813303          	ld	t1,168(sp)
   12414:	0b013403          	ld	s0,176(sp)
   12418:	0a013a03          	ld	s4,160(sp)
   1241c:	03313823          	sd	s3,48(sp)
   12420:	000d0b13          	mv	s6,s10
   12424:	000b8993          	mv	s3,s7
   12428:	00050d13          	mv	s10,a0
   1242c:	00058b93          	mv	s7,a1
   12430:	fff00d93          	li	s11,-1
   12434:	0002c6b7          	lui	a3,0x2c
   12438:	0d86b903          	ld	s2,216(a3) # 2c0d8 <blanks.1+0x38>
   1243c:	00000613          	li	a2,0
   12440:	000d0513          	mv	a0,s10
   12444:	00090693          	mv	a3,s2
   12448:	000b8593          	mv	a1,s7
   1244c:	04613423          	sd	t1,72(sp)
   12450:	04c180ef          	jal	ra,2a49c <__getf2>
   12454:	04813303          	ld	t1,72(sp)
   12458:	46a04463          	bgtz	a0,128c0 <_vfprintf_r+0x23f4>
   1245c:	00000613          	li	a2,0
   12460:	00090693          	mv	a3,s2
   12464:	000d0513          	mv	a0,s10
   12468:	000b8593          	mv	a1,s7
   1246c:	78d170ef          	jal	ra,2a3f8 <__eqtf2>
   12470:	04813303          	ld	t1,72(sp)
   12474:	00051663          	bnez	a0,12480 <_vfprintf_r+0x1fb4>
   12478:	001c7c13          	andi	s8,s8,1
   1247c:	440c1263          	bnez	s8,128c0 <_vfprintf_r+0x23f4>
   12480:	001d8c1b          	addiw	s8,s11,1
   12484:	018a8c33          	add	s8,s5,s8
   12488:	03000693          	li	a3,48
   1248c:	480dc063          	bltz	s11,1290c <_vfprintf_r+0x2440>
   12490:	001a8a93          	addi	s5,s5,1
   12494:	feda8fa3          	sb	a3,-1(s5)
   12498:	ff5c1ce3          	bne	s8,s5,12490 <_vfprintf_r+0x1fc4>
   1249c:	416c07bb          	subw	a5,s8,s6
   124a0:	02f13c23          	sd	a5,56(sp)
   124a4:	fdfcfa93          	andi	s5,s9,-33
   124a8:	bcdff06f          	j	12074 <_vfprintf_r+0x1ba8>
   124ac:	00013583          	ld	a1,0(sp)
   124b0:	10010613          	addi	a2,sp,256
   124b4:	00098513          	mv	a0,s3
   124b8:	4e00f0ef          	jal	ra,21998 <__sprint_r>
   124bc:	00050463          	beqz	a0,124c4 <_vfprintf_r+0x1ff8>
   124c0:	d9dfe06f          	j	1125c <_vfprintf_r+0xd90>
   124c4:	11013d83          	ld	s11,272(sp)
   124c8:	18010413          	addi	s0,sp,384
   124cc:	800ff06f          	j	114cc <_vfprintf_r+0x1000>
   124d0:	0013091b          	addiw	s2,t1,1
   124d4:	00200693          	li	a3,2
   124d8:	b05ff06f          	j	11fdc <_vfprintf_r+0x1b10>
   124dc:	00030913          	mv	s2,t1
   124e0:	00300693          	li	a3,3
   124e4:	af9ff06f          	j	11fdc <_vfprintf_r+0x1b10>
   124e8:	000c0593          	mv	a1,s8
   124ec:	000b8513          	mv	a0,s7
   124f0:	02613823          	sd	t1,48(sp)
   124f4:	5f8190ef          	jal	ra,2baec <__trunctfdf2>
   124f8:	0d810593          	addi	a1,sp,216
   124fc:	1fc0a0ef          	jal	ra,1c6f8 <frexp>
   12500:	3dc190ef          	jal	ra,2b8dc <__extenddftf2>
   12504:	0002c737          	lui	a4,0x2c
   12508:	0b873683          	ld	a3,184(a4) # 2c0b8 <blanks.1+0x18>
   1250c:	00000613          	li	a2,0
   12510:	1a4180ef          	jal	ra,2a6b4 <__multf3>
   12514:	00000613          	li	a2,0
   12518:	00000693          	li	a3,0
   1251c:	00050d93          	mv	s11,a0
   12520:	00058913          	mv	s2,a1
   12524:	6d5170ef          	jal	ra,2a3f8 <__eqtf2>
   12528:	03013303          	ld	t1,48(sp)
   1252c:	00051663          	bnez	a0,12538 <_vfprintf_r+0x206c>
   12530:	00100713          	li	a4,1
   12534:	0ce12c23          	sw	a4,216(sp)
   12538:	0002c737          	lui	a4,0x2c
   1253c:	e5070793          	addi	a5,a4,-432 # 2be50 <__clzdi2+0x80>
   12540:	02f13c23          	sd	a5,56(sp)
   12544:	e01ff06f          	j	12344 <_vfprintf_r+0x1e78>
   12548:	0e813c03          	ld	s8,232(sp)
   1254c:	0d812703          	lw	a4,216(sp)
   12550:	416c07bb          	subw	a5,s8,s6
   12554:	02f13c23          	sd	a5,56(sp)
   12558:	ffd00693          	li	a3,-3
   1255c:	02e13823          	sd	a4,48(sp)
   12560:	00d74463          	blt	a4,a3,12568 <_vfprintf_r+0x209c>
   12564:	02e35863          	bge	t1,a4,12594 <_vfprintf_r+0x20c8>
   12568:	fff70d1b          	addiw	s10,a4,-1
   1256c:	ffec8c9b          	addiw	s9,s9,-2
   12570:	0da12c23          	sw	s10,216(sp)
   12574:	0ffcf693          	zext.b	a3,s9
   12578:	00000613          	li	a2,0
   1257c:	b31ff06f          	j	120ac <_vfprintf_r+0x1be0>
   12580:	0cf14703          	lbu	a4,207(sp)
   12584:	00000313          	li	t1,0
   12588:	00070463          	beqz	a4,12590 <_vfprintf_r+0x20c4>
   1258c:	e58fe06f          	j	10be4 <_vfprintf_r+0x718>
   12590:	97cfe06f          	j	1070c <_vfprintf_r+0x240>
   12594:	03813783          	ld	a5,56(sp)
   12598:	26f74463          	blt	a4,a5,12800 <_vfprintf_r+0x2334>
   1259c:	04013783          	ld	a5,64(sp)
   125a0:	00070d13          	mv	s10,a4
   125a4:	0017f613          	andi	a2,a5,1
   125a8:	00060663          	beqz	a2,125b4 <_vfprintf_r+0x20e8>
   125ac:	05813783          	ld	a5,88(sp)
   125b0:	00e78d3b          	addw	s10,a5,a4
   125b4:	04013783          	ld	a5,64(sp)
   125b8:	4007f613          	andi	a2,a5,1024
   125bc:	00060463          	beqz	a2,125c4 <_vfprintf_r+0x20f8>
   125c0:	3ee04863          	bgtz	a4,129b0 <_vfprintf_r+0x24e4>
   125c4:	fffd4813          	not	a6,s10
   125c8:	43f85813          	srai	a6,a6,0x3f
   125cc:	09013903          	ld	s2,144(sp)
   125d0:	010d7833          	and	a6,s10,a6
   125d4:	00080c1b          	sext.w	s8,a6
   125d8:	06700c93          	li	s9,103
   125dc:	04013423          	sd	zero,72(sp)
   125e0:	04013023          	sd	zero,64(sp)
   125e4:	bbdff06f          	j	121a0 <_vfprintf_r+0x1cd4>
   125e8:	00013c23          	sd	zero,24(sp)
   125ec:	fff00713          	li	a4,-1
   125f0:	03f71713          	slli	a4,a4,0x3f
   125f4:	02d00793          	li	a5,45
   125f8:	00ec4c33          	xor	s8,s8,a4
   125fc:	08f13c23          	sd	a5,152(sp)
   12600:	cddff06f          	j	122dc <_vfprintf_r+0x1e10>
   12604:	04013783          	ld	a5,64(sp)
   12608:	0017f713          	andi	a4,a5,1
   1260c:	f2070ee3          	beqz	a4,12548 <_vfprintf_r+0x207c>
   12610:	012b0d33          	add	s10,s6,s2
   12614:	04700a93          	li	s5,71
   12618:	a11ff06f          	j	12028 <_vfprintf_r+0x1b5c>
   1261c:	10010613          	addi	a2,sp,256
   12620:	000b8593          	mv	a1,s7
   12624:	00098513          	mv	a0,s3
   12628:	3700f0ef          	jal	ra,21998 <__sprint_r>
   1262c:	00050463          	beqz	a0,12634 <_vfprintf_r+0x2168>
   12630:	c2dfe06f          	j	1125c <_vfprintf_r+0xd90>
   12634:	00094683          	lbu	a3,0(s2)
   12638:	11013703          	ld	a4,272(sp)
   1263c:	18010413          	addi	s0,sp,384
   12640:	01000893          	li	a7,16
   12644:	00700313          	li	t1,7
   12648:	00da0a33          	add	s4,s4,a3
   1264c:	815ff06f          	j	11e60 <_vfprintf_r+0x1994>
   12650:	07800713          	li	a4,120
   12654:	c45ff06f          	j	12298 <_vfprintf_r+0x1dcc>
   12658:	00013583          	ld	a1,0(sp)
   1265c:	10010613          	addi	a2,sp,256
   12660:	00098513          	mv	a0,s3
   12664:	3340f0ef          	jal	ra,21998 <__sprint_r>
   12668:	00050463          	beqz	a0,12670 <_vfprintf_r+0x21a4>
   1266c:	bf1fe06f          	j	1125c <_vfprintf_r+0xd90>
   12670:	0d812683          	lw	a3,216(sp)
   12674:	11013703          	ld	a4,272(sp)
   12678:	18010413          	addi	s0,sp,384
   1267c:	ea9fe06f          	j	11524 <_vfprintf_r+0x1058>
   12680:	02d00793          	li	a5,45
   12684:	0cf107a3          	sb	a5,207(sp)
   12688:	02d00713          	li	a4,45
   1268c:	d8cff06f          	j	11c18 <_vfprintf_r+0x174c>
   12690:	00054683          	lbu	a3,0(a0)
   12694:	03000713          	li	a4,48
   12698:	00e68863          	beq	a3,a4,126a8 <_vfprintf_r+0x21dc>
   1269c:	0d812683          	lw	a3,216(sp)
   126a0:	00dd0d33          	add	s10,s10,a3
   126a4:	985ff06f          	j	12028 <_vfprintf_r+0x1b5c>
   126a8:	00000613          	li	a2,0
   126ac:	00000693          	li	a3,0
   126b0:	000b8513          	mv	a0,s7
   126b4:	000c0593          	mv	a1,s8
   126b8:	02613823          	sd	t1,48(sp)
   126bc:	53d170ef          	jal	ra,2a3f8 <__eqtf2>
   126c0:	03013303          	ld	t1,48(sp)
   126c4:	fc050ce3          	beqz	a0,1269c <_vfprintf_r+0x21d0>
   126c8:	00100713          	li	a4,1
   126cc:	412706bb          	subw	a3,a4,s2
   126d0:	0cd12c23          	sw	a3,216(sp)
   126d4:	00dd0d33          	add	s10,s10,a3
   126d8:	951ff06f          	j	12028 <_vfprintf_r+0x1b5c>
   126dc:	0cf14703          	lbu	a4,207(sp)
   126e0:	03513023          	sd	s5,32(sp)
   126e4:	04013423          	sd	zero,72(sp)
   126e8:	04013023          	sd	zero,64(sp)
   126ec:	02013823          	sd	zero,48(sp)
   126f0:	00030c13          	mv	s8,t1
   126f4:	00030d13          	mv	s10,t1
   126f8:	00000313          	li	t1,0
   126fc:	00070463          	beqz	a4,12704 <_vfprintf_r+0x2238>
   12700:	ce4fe06f          	j	10be4 <_vfprintf_r+0x718>
   12704:	808fe06f          	j	1070c <_vfprintf_r+0x240>
   12708:	00013583          	ld	a1,0(sp)
   1270c:	10010613          	addi	a2,sp,256
   12710:	00098513          	mv	a0,s3
   12714:	2840f0ef          	jal	ra,21998 <__sprint_r>
   12718:	00050463          	beqz	a0,12720 <_vfprintf_r+0x2254>
   1271c:	b41fe06f          	j	1125c <_vfprintf_r+0xd90>
   12720:	0d812603          	lw	a2,216(sp)
   12724:	03813783          	ld	a5,56(sp)
   12728:	11013703          	ld	a4,272(sp)
   1272c:	18010413          	addi	s0,sp,384
   12730:	40c7863b          	subw	a2,a5,a2
   12734:	e3dfe06f          	j	11570 <_vfprintf_r+0x10a4>
   12738:	0002c7b7          	lui	a5,0x2c
   1273c:	e4078b13          	addi	s6,a5,-448 # 2be40 <__clzdi2+0x70>
   12740:	ce8ff06f          	j	11c28 <_vfprintf_r+0x175c>
   12744:	00090d93          	mv	s11,s2
   12748:	c31fe06f          	j	11378 <_vfprintf_r+0xeac>
   1274c:	0002cf37          	lui	t5,0x2c
   12750:	ff000593          	li	a1,-16
   12754:	40c00cbb          	negw	s9,a2
   12758:	090f0d93          	addi	s11,t5,144 # 2c090 <zeroes.0>
   1275c:	01000d13          	li	s10,16
   12760:	00700a93          	li	s5,7
   12764:	00b64863          	blt	a2,a1,12774 <_vfprintf_r+0x22a8>
   12768:	1100006f          	j	12878 <_vfprintf_r+0x23ac>
   1276c:	ff0c8c9b          	addiw	s9,s9,-16
   12770:	119d5463          	bge	s10,s9,12878 <_vfprintf_r+0x23ac>
   12774:	0016869b          	addiw	a3,a3,1
   12778:	01070713          	addi	a4,a4,16
   1277c:	01b43023          	sd	s11,0(s0)
   12780:	01a43423          	sd	s10,8(s0)
   12784:	10e13823          	sd	a4,272(sp)
   12788:	10d12423          	sw	a3,264(sp)
   1278c:	01040413          	addi	s0,s0,16
   12790:	fcdadee3          	bge	s5,a3,1276c <_vfprintf_r+0x22a0>
   12794:	00013583          	ld	a1,0(sp)
   12798:	10010613          	addi	a2,sp,256
   1279c:	00098513          	mv	a0,s3
   127a0:	1f80f0ef          	jal	ra,21998 <__sprint_r>
   127a4:	00050463          	beqz	a0,127ac <_vfprintf_r+0x22e0>
   127a8:	ab5fe06f          	j	1125c <_vfprintf_r+0xd90>
   127ac:	11013703          	ld	a4,272(sp)
   127b0:	10812683          	lw	a3,264(sp)
   127b4:	18010413          	addi	s0,sp,384
   127b8:	fb5ff06f          	j	1276c <_vfprintf_r+0x22a0>
   127bc:	04013783          	ld	a5,64(sp)
   127c0:	0017f713          	andi	a4,a5,1
   127c4:	03013783          	ld	a5,48(sp)
   127c8:	00e36733          	or	a4,t1,a4
   127cc:	28f05a63          	blez	a5,12a60 <_vfprintf_r+0x2594>
   127d0:	26071a63          	bnez	a4,12a44 <_vfprintf_r+0x2578>
   127d4:	03013d03          	ld	s10,48(sp)
   127d8:	06600c93          	li	s9,102
   127dc:	04013783          	ld	a5,64(sp)
   127e0:	4007f713          	andi	a4,a5,1024
   127e4:	1c071863          	bnez	a4,129b4 <_vfprintf_r+0x24e8>
   127e8:	fffd4813          	not	a6,s10
   127ec:	43f85813          	srai	a6,a6,0x3f
   127f0:	010d7833          	and	a6,s10,a6
   127f4:	09013903          	ld	s2,144(sp)
   127f8:	00080c1b          	sext.w	s8,a6
   127fc:	de1ff06f          	j	125dc <_vfprintf_r+0x2110>
   12800:	05813783          	ld	a5,88(sp)
   12804:	03813703          	ld	a4,56(sp)
   12808:	06700c93          	li	s9,103
   1280c:	00e78d3b          	addw	s10,a5,a4
   12810:	03013783          	ld	a5,48(sp)
   12814:	fcf044e3          	bgtz	a5,127dc <_vfprintf_r+0x2310>
   12818:	40fd073b          	subw	a4,s10,a5
   1281c:	0017071b          	addiw	a4,a4,1
   12820:	00070d1b          	sext.w	s10,a4
   12824:	fffd4613          	not	a2,s10
   12828:	43f65613          	srai	a2,a2,0x3f
   1282c:	00c77733          	and	a4,a4,a2
   12830:	09013903          	ld	s2,144(sp)
   12834:	00070c1b          	sext.w	s8,a4
   12838:	da5ff06f          	j	125dc <_vfprintf_r+0x2110>
   1283c:	fff00793          	li	a5,-1
   12840:	00f13823          	sd	a5,16(sp)
   12844:	810fe06f          	j	10854 <_vfprintf_r+0x388>
   12848:	0e210713          	addi	a4,sp,226
   1284c:	00061863          	bnez	a2,1285c <_vfprintf_r+0x2390>
   12850:	03000713          	li	a4,48
   12854:	0ee10123          	sb	a4,226(sp)
   12858:	0e310713          	addi	a4,sp,227
   1285c:	20010793          	addi	a5,sp,512
   12860:	40f706b3          	sub	a3,a4,a5
   12864:	030d0d1b          	addiw	s10,s10,48
   12868:	1216879b          	addiw	a5,a3,289
   1286c:	01a70023          	sb	s10,0(a4)
   12870:	06f13823          	sd	a5,112(sp)
   12874:	8e1ff06f          	j	12154 <_vfprintf_r+0x1c88>
   12878:	0016869b          	addiw	a3,a3,1
   1287c:	01970733          	add	a4,a4,s9
   12880:	01b43023          	sd	s11,0(s0)
   12884:	01943423          	sd	s9,8(s0)
   12888:	10e13823          	sd	a4,272(sp)
   1288c:	10d12423          	sw	a3,264(sp)
   12890:	00700613          	li	a2,7
   12894:	aed65e63          	bge	a2,a3,11b90 <_vfprintf_r+0x16c4>
   12898:	00013583          	ld	a1,0(sp)
   1289c:	10010613          	addi	a2,sp,256
   128a0:	00098513          	mv	a0,s3
   128a4:	0f40f0ef          	jal	ra,21998 <__sprint_r>
   128a8:	00050463          	beqz	a0,128b0 <_vfprintf_r+0x23e4>
   128ac:	9b1fe06f          	j	1125c <_vfprintf_r+0xd90>
   128b0:	11013703          	ld	a4,272(sp)
   128b4:	10812683          	lw	a3,264(sp)
   128b8:	18010413          	addi	s0,sp,384
   128bc:	bd0ff06f          	j	11c8c <_vfprintf_r+0x17c0>
   128c0:	03013783          	ld	a5,48(sp)
   128c4:	000a8693          	mv	a3,s5
   128c8:	0ef13423          	sd	a5,232(sp)
   128cc:	03813783          	ld	a5,56(sp)
   128d0:	fffac603          	lbu	a2,-1(s5)
   128d4:	00f7c583          	lbu	a1,15(a5)
   128d8:	02c59063          	bne	a1,a2,128f8 <_vfprintf_r+0x242c>
   128dc:	03000513          	li	a0,48
   128e0:	fea68fa3          	sb	a0,-1(a3)
   128e4:	0e813683          	ld	a3,232(sp)
   128e8:	fff68793          	addi	a5,a3,-1
   128ec:	0ef13423          	sd	a5,232(sp)
   128f0:	fff6c603          	lbu	a2,-1(a3)
   128f4:	fec586e3          	beq	a1,a2,128e0 <_vfprintf_r+0x2414>
   128f8:	0016059b          	addiw	a1,a2,1
   128fc:	03900513          	li	a0,57
   12900:	0ff5f593          	zext.b	a1,a1
   12904:	02a60a63          	beq	a2,a0,12938 <_vfprintf_r+0x246c>
   12908:	feb68fa3          	sb	a1,-1(a3)
   1290c:	000a8c13          	mv	s8,s5
   12910:	b8dff06f          	j	1249c <_vfprintf_r+0x1fd0>
   12914:	0013059b          	addiw	a1,t1,1
   12918:	00098513          	mv	a0,s3
   1291c:	00613c23          	sd	t1,24(sp)
   12920:	620070ef          	jal	ra,19f40 <_malloc_r>
   12924:	01813303          	ld	t1,24(sp)
   12928:	00050b13          	mv	s6,a0
   1292c:	1a050e63          	beqz	a0,12ae8 <_vfprintf_r+0x261c>
   12930:	00a13c23          	sd	a0,24(sp)
   12934:	98dff06f          	j	122c0 <_vfprintf_r+0x1df4>
   12938:	03813783          	ld	a5,56(sp)
   1293c:	00a7c583          	lbu	a1,10(a5)
   12940:	feb68fa3          	sb	a1,-1(a3)
   12944:	fc9ff06f          	j	1290c <_vfprintf_r+0x2440>
   12948:	0b813603          	ld	a2,184(sp)
   1294c:	03313823          	sd	s3,48(sp)
   12950:	000b8993          	mv	s3,s7
   12954:	000b0b93          	mv	s7,s6
   12958:	000d0b13          	mv	s6,s10
   1295c:	00cb063b          	addw	a2,s6,a2
   12960:	000a8d13          	mv	s10,s5
   12964:	000a0a93          	mv	s5,s4
   12968:	04813483          	ld	s1,72(sp)
   1296c:	0a813303          	ld	t1,168(sp)
   12970:	0b013403          	ld	s0,176(sp)
   12974:	0a013a03          	ld	s4,160(sp)
   12978:	41560dbb          	subw	s11,a2,s5
   1297c:	ab9ff06f          	j	12434 <_vfprintf_r+0x1f68>
   12980:	00030463          	beqz	t1,12988 <_vfprintf_r+0x24bc>
   12984:	830fe06f          	j	109b4 <_vfprintf_r+0x4e8>
   12988:	00100313          	li	t1,1
   1298c:	828fe06f          	j	109b4 <_vfprintf_r+0x4e8>
   12990:	00600313          	li	t1,6
   12994:	820fe06f          	j	109b4 <_vfprintf_r+0x4e8>
   12998:	04013783          	ld	a5,64(sp)
   1299c:	0017f613          	andi	a2,a5,1
   129a0:	fc060a63          	beqz	a2,12174 <_vfprintf_r+0x1ca8>
   129a4:	fc8ff06f          	j	1216c <_vfprintf_r+0x1ca0>
   129a8:	00f72023          	sw	a5,0(a4)
   129ac:	c94fe06f          	j	10e40 <_vfprintf_r+0x974>
   129b0:	06700c93          	li	s9,103
   129b4:	07813683          	ld	a3,120(sp)
   129b8:	0ff00613          	li	a2,255
   129bc:	0006c703          	lbu	a4,0(a3)
   129c0:	10c70e63          	beq	a4,a2,12adc <_vfprintf_r+0x2610>
   129c4:	03013783          	ld	a5,48(sp)
   129c8:	00000813          	li	a6,0
   129cc:	00000513          	li	a0,0
   129d0:	0ff00593          	li	a1,255
   129d4:	0007061b          	sext.w	a2,a4
   129d8:	00f75e63          	bge	a4,a5,129f4 <_vfprintf_r+0x2528>
   129dc:	0016c703          	lbu	a4,1(a3)
   129e0:	40c787bb          	subw	a5,a5,a2
   129e4:	04070a63          	beqz	a4,12a38 <_vfprintf_r+0x256c>
   129e8:	0015051b          	addiw	a0,a0,1
   129ec:	00168693          	addi	a3,a3,1
   129f0:	feb712e3          	bne	a4,a1,129d4 <_vfprintf_r+0x2508>
   129f4:	02f13823          	sd	a5,48(sp)
   129f8:	06d13c23          	sd	a3,120(sp)
   129fc:	04a13023          	sd	a0,64(sp)
   12a00:	05013423          	sd	a6,72(sp)
   12a04:	04013703          	ld	a4,64(sp)
   12a08:	04813783          	ld	a5,72(sp)
   12a0c:	08013583          	ld	a1,128(sp)
   12a10:	00e7853b          	addw	a0,a5,a4
   12a14:	298190ef          	jal	ra,2bcac <__muldi3>
   12a18:	01a5073b          	addw	a4,a0,s10
   12a1c:	00070d1b          	sext.w	s10,a4
   12a20:	fffd4613          	not	a2,s10
   12a24:	43f65613          	srai	a2,a2,0x3f
   12a28:	00c77733          	and	a4,a4,a2
   12a2c:	09013903          	ld	s2,144(sp)
   12a30:	00070c1b          	sext.w	s8,a4
   12a34:	f6cff06f          	j	121a0 <_vfprintf_r+0x1cd4>
   12a38:	0006c703          	lbu	a4,0(a3)
   12a3c:	0018081b          	addiw	a6,a6,1
   12a40:	fb1ff06f          	j	129f0 <_vfprintf_r+0x2524>
   12a44:	05813703          	ld	a4,88(sp)
   12a48:	06600c93          	li	s9,102
   12a4c:	00f706bb          	addw	a3,a4,a5
   12a50:	00668d3b          	addw	s10,a3,t1
   12a54:	d89ff06f          	j	127dc <_vfprintf_r+0x2310>
   12a58:	07000693          	li	a3,112
   12a5c:	e4cff06f          	j	120a8 <_vfprintf_r+0x1bdc>
   12a60:	00071c63          	bnez	a4,12a78 <_vfprintf_r+0x25ac>
   12a64:	09013903          	ld	s2,144(sp)
   12a68:	00100c13          	li	s8,1
   12a6c:	06600c93          	li	s9,102
   12a70:	00100d13          	li	s10,1
   12a74:	b69ff06f          	j	125dc <_vfprintf_r+0x2110>
   12a78:	05813783          	ld	a5,88(sp)
   12a7c:	09013903          	ld	s2,144(sp)
   12a80:	06600c93          	li	s9,102
   12a84:	0017871b          	addiw	a4,a5,1
   12a88:	0067073b          	addw	a4,a4,t1
   12a8c:	00070d1b          	sext.w	s10,a4
   12a90:	fffd4613          	not	a2,s10
   12a94:	43f65613          	srai	a2,a2,0x3f
   12a98:	00c77733          	and	a4,a4,a2
   12a9c:	00070c1b          	sext.w	s8,a4
   12aa0:	b3dff06f          	j	125dc <_vfprintf_r+0x2110>
   12aa4:	02013683          	ld	a3,32(sp)
   12aa8:	0006a703          	lw	a4,0(a3)
   12aac:	00868693          	addi	a3,a3,8
   12ab0:	00070313          	mv	t1,a4
   12ab4:	00075463          	bgez	a4,12abc <_vfprintf_r+0x25f0>
   12ab8:	fff00313          	li	t1,-1
   12abc:	0014ce03          	lbu	t3,1(s1)
   12ac0:	00030a9b          	sext.w	s5,t1
   12ac4:	02d13023          	sd	a3,32(sp)
   12ac8:	00078493          	mv	s1,a5
   12acc:	badfd06f          	j	10678 <_vfprintf_r+0x1ac>
   12ad0:	00200793          	li	a5,2
   12ad4:	06f13823          	sd	a5,112(sp)
   12ad8:	e7cff06f          	j	12154 <_vfprintf_r+0x1c88>
   12adc:	04013423          	sd	zero,72(sp)
   12ae0:	04013023          	sd	zero,64(sp)
   12ae4:	f21ff06f          	j	12a04 <_vfprintf_r+0x2538>
   12ae8:	00013703          	ld	a4,0(sp)
   12aec:	01075783          	lhu	a5,16(a4)
   12af0:	0407e793          	ori	a5,a5,64
   12af4:	00f71823          	sh	a5,16(a4)
   12af8:	d49fd06f          	j	10840 <_vfprintf_r+0x374>

0000000000012afc <vfprintf>:
   12afc:	00050793          	mv	a5,a0
   12b00:	7501b503          	ld	a0,1872(gp) # 2f780 <_impure_ptr>
   12b04:	00060693          	mv	a3,a2
   12b08:	00058613          	mv	a2,a1
   12b0c:	00078593          	mv	a1,a5
   12b10:	9bdfd06f          	j	104cc <_vfprintf_r>

0000000000012b14 <__sbprintf>:
   12b14:	01059783          	lh	a5,16(a1)
   12b18:	0125d703          	lhu	a4,18(a1)
   12b1c:	0ac5a303          	lw	t1,172(a1)
   12b20:	ffd7f793          	andi	a5,a5,-3
   12b24:	0107979b          	slliw	a5,a5,0x10
   12b28:	0305b883          	ld	a7,48(a1)
   12b2c:	0405b803          	ld	a6,64(a1)
   12b30:	0107171b          	slliw	a4,a4,0x10
   12b34:	0107d79b          	srliw	a5,a5,0x10
   12b38:	b3010113          	addi	sp,sp,-1232
   12b3c:	00e7e7b3          	or	a5,a5,a4
   12b40:	4c813023          	sd	s0,1216(sp)
   12b44:	40000713          	li	a4,1024
   12b48:	00f12823          	sw	a5,16(sp)
   12b4c:	00058413          	mv	s0,a1
   12b50:	0b010793          	addi	a5,sp,176
   12b54:	00010593          	mv	a1,sp
   12b58:	4a913c23          	sd	s1,1208(sp)
   12b5c:	4b213823          	sd	s2,1200(sp)
   12b60:	4c113423          	sd	ra,1224(sp)
   12b64:	00050913          	mv	s2,a0
   12b68:	0a612623          	sw	t1,172(sp)
   12b6c:	03113823          	sd	a7,48(sp)
   12b70:	05013023          	sd	a6,64(sp)
   12b74:	00f13023          	sd	a5,0(sp)
   12b78:	00f13c23          	sd	a5,24(sp)
   12b7c:	00e12623          	sw	a4,12(sp)
   12b80:	02e12023          	sw	a4,32(sp)
   12b84:	02012423          	sw	zero,40(sp)
   12b88:	945fd0ef          	jal	ra,104cc <_vfprintf_r>
   12b8c:	00050493          	mv	s1,a0
   12b90:	02055c63          	bgez	a0,12bc8 <__sbprintf+0xb4>
   12b94:	01015783          	lhu	a5,16(sp)
   12b98:	0407f793          	andi	a5,a5,64
   12b9c:	00078863          	beqz	a5,12bac <__sbprintf+0x98>
   12ba0:	01045783          	lhu	a5,16(s0)
   12ba4:	0407e793          	ori	a5,a5,64
   12ba8:	00f41823          	sh	a5,16(s0)
   12bac:	4c813083          	ld	ra,1224(sp)
   12bb0:	4c013403          	ld	s0,1216(sp)
   12bb4:	4b013903          	ld	s2,1200(sp)
   12bb8:	00048513          	mv	a0,s1
   12bbc:	4b813483          	ld	s1,1208(sp)
   12bc0:	4d010113          	addi	sp,sp,1232
   12bc4:	00008067          	ret
   12bc8:	00010593          	mv	a1,sp
   12bcc:	00090513          	mv	a0,s2
   12bd0:	60c030ef          	jal	ra,161dc <_fflush_r>
   12bd4:	fc0500e3          	beqz	a0,12b94 <__sbprintf+0x80>
   12bd8:	fff00493          	li	s1,-1
   12bdc:	fb9ff06f          	j	12b94 <__sbprintf+0x80>

0000000000012be0 <__svfscanf_r>:
   12be0:	a8010113          	addi	sp,sp,-1408
   12be4:	56813823          	sd	s0,1392(sp)
   12be8:	51b13c23          	sd	s11,1304(sp)
   12bec:	56113c23          	sd	ra,1400(sp)
   12bf0:	56913423          	sd	s1,1384(sp)
   12bf4:	57213023          	sd	s2,1376(sp)
   12bf8:	55313c23          	sd	s3,1368(sp)
   12bfc:	55413823          	sd	s4,1360(sp)
   12c00:	55513423          	sd	s5,1352(sp)
   12c04:	55613023          	sd	s6,1344(sp)
   12c08:	53713c23          	sd	s7,1336(sp)
   12c0c:	53813823          	sd	s8,1328(sp)
   12c10:	53913423          	sd	s9,1320(sp)
   12c14:	53a13023          	sd	s10,1312(sp)
   12c18:	58010413          	addi	s0,sp,1408
   12c1c:	01059703          	lh	a4,16(a1)
   12c20:	fffff7b7          	lui	a5,0xfffff
   12c24:	af878793          	addi	a5,a5,-1288 # ffffffffffffeaf8 <__BSS_END__+0xfffffffffffcf2c8>
   12c28:	008787b3          	add	a5,a5,s0
   12c2c:	fffff2b7          	lui	t0,0xfffff
   12c30:	00068393          	mv	t2,a3
   12c34:	00a7b023          	sd	a0,0(a5)
   12c38:	03271693          	slli	a3,a4,0x32
   12c3c:	00510133          	add	sp,sp,t0
   12c40:	00058d93          	mv	s11,a1
   12c44:	0206c263          	bltz	a3,12c68 <__svfscanf_r+0x88>
   12c48:	0ac5a683          	lw	a3,172(a1)
   12c4c:	000025b7          	lui	a1,0x2
   12c50:	00b76733          	or	a4,a4,a1
   12c54:	ffffe5b7          	lui	a1,0xffffe
   12c58:	fff58593          	addi	a1,a1,-1 # ffffffffffffdfff <__BSS_END__+0xfffffffffffce7cf>
   12c5c:	00b6f6b3          	and	a3,a3,a1
   12c60:	00ed9823          	sh	a4,16(s11)
   12c64:	0adda623          	sw	a3,172(s11)
   12c68:	fffff6b7          	lui	a3,0xfffff
   12c6c:	f9068793          	addi	a5,a3,-112 # ffffffffffffef90 <__BSS_END__+0xfffffffffffcf760>
   12c70:	af068693          	addi	a3,a3,-1296
   12c74:	008787b3          	add	a5,a5,s0
   12c78:	008686b3          	add	a3,a3,s0
   12c7c:	00f6b023          	sd	a5,0(a3)
   12c80:	fffff7b7          	lui	a5,0xfffff
   12c84:	af078793          	addi	a5,a5,-1296 # ffffffffffffeaf0 <__BSS_END__+0xfffffffffffcf2c0>
   12c88:	00064703          	lbu	a4,0(a2)
   12c8c:	008787b3          	add	a5,a5,s0
   12c90:	0007b783          	ld	a5,0(a5)
   12c94:	0007069b          	sext.w	a3,a4
   12c98:	00160993          	addi	s3,a2,1
   12c9c:	b6d7ae23          	sw	a3,-1156(a5)
   12ca0:	fffff7b7          	lui	a5,0xfffff
   12ca4:	00069463          	bnez	a3,12cac <__svfscanf_r+0xcc>
   12ca8:	2c10206f          	j	15768 <__svfscanf_r+0x2b88>
   12cac:	ab078793          	addi	a5,a5,-1360 # ffffffffffffeab0 <__BSS_END__+0xfffffffffffcf280>
   12cb0:	008787b3          	add	a5,a5,s0
   12cb4:	0007b023          	sd	zero,0(a5)
   12cb8:	fffff7b7          	lui	a5,0xfffff
   12cbc:	ae878793          	addi	a5,a5,-1304 # ffffffffffffeae8 <__BSS_END__+0xfffffffffffcf2b8>
   12cc0:	008787b3          	add	a5,a5,s0
   12cc4:	0007b023          	sd	zero,0(a5)
   12cc8:	fffff7b7          	lui	a5,0xfffff
   12ccc:	ab878793          	addi	a5,a5,-1352 # ffffffffffffeab8 <__BSS_END__+0xfffffffffffcf288>
   12cd0:	008787b3          	add	a5,a5,s0
   12cd4:	0007b023          	sd	zero,0(a5)
   12cd8:	fffff7b7          	lui	a5,0xfffff
   12cdc:	ae078793          	addi	a5,a5,-1312 # ffffffffffffeae0 <__BSS_END__+0xfffffffffffcf2b0>
   12ce0:	008787b3          	add	a5,a5,s0
   12ce4:	0002c637          	lui	a2,0x2c
   12ce8:	0007b023          	sd	zero,0(a5)
   12cec:	0e860793          	addi	a5,a2,232 # 2c0e8 <blanks.1+0x48>
   12cf0:	fffff637          	lui	a2,0xfffff
   12cf4:	ad860613          	addi	a2,a2,-1320 # ffffffffffffead8 <__BSS_END__+0xfffffffffffcf2a8>
   12cf8:	00860633          	add	a2,a2,s0
   12cfc:	00f63023          	sd	a5,0(a2)
   12d00:	fffff7b7          	lui	a5,0xfffff
   12d04:	ad078793          	addi	a5,a5,-1328 # ffffffffffffead0 <__BSS_END__+0xfffffffffffcf2a0>
   12d08:	00000c13          	li	s8,0
   12d0c:	0002c937          	lui	s2,0x2c
   12d10:	008787b3          	add	a5,a5,s0
   12d14:	000d8d13          	mv	s10,s11
   12d18:	00000493          	li	s1,0
   12d1c:	4e190913          	addi	s2,s2,1249 # 2c4e1 <_ctype_+0x1>
   12d20:	000c0d93          	mv	s11,s8
   12d24:	0077b023          	sd	t2,0(a5)
   12d28:	00e90733          	add	a4,s2,a4
   12d2c:	00074703          	lbu	a4,0(a4)
   12d30:	00877713          	andi	a4,a4,8
   12d34:	0c071e63          	bnez	a4,12e10 <__svfscanf_r+0x230>
   12d38:	02500793          	li	a5,37
   12d3c:	04f69463          	bne	a3,a5,12d84 <__svfscanf_r+0x1a4>
   12d40:	0009c683          	lbu	a3,0(s3)
   12d44:	00000b13          	li	s6,0
   12d48:	00000a13          	li	s4,0
   12d4c:	fdb6879b          	addiw	a5,a3,-37
   12d50:	0ff7f793          	zext.b	a5,a5
   12d54:	05500713          	li	a4,85
   12d58:	00198893          	addi	a7,s3,1
   12d5c:	16f76263          	bltu	a4,a5,12ec0 <__svfscanf_r+0x2e0>
   12d60:	fffff737          	lui	a4,0xfffff
   12d64:	ad870713          	addi	a4,a4,-1320 # ffffffffffffead8 <__BSS_END__+0xfffffffffffcf2a8>
   12d68:	00870733          	add	a4,a4,s0
   12d6c:	00073703          	ld	a4,0(a4)
   12d70:	00279793          	slli	a5,a5,0x2
   12d74:	00e787b3          	add	a5,a5,a4
   12d78:	0007a783          	lw	a5,0(a5)
   12d7c:	00078067          	jr	a5
   12d80:	00088993          	mv	s3,a7
   12d84:	008d2703          	lw	a4,8(s10)
   12d88:	1ae05e63          	blez	a4,12f44 <__svfscanf_r+0x364>
   12d8c:	000d3703          	ld	a4,0(s10)
   12d90:	fff9c683          	lbu	a3,-1(s3)
   12d94:	00074603          	lbu	a2,0(a4)
   12d98:	18d60663          	beq	a2,a3,12f24 <__svfscanf_r+0x344>
   12d9c:	fffff7b7          	lui	a5,0xfffff
   12da0:	ae878793          	addi	a5,a5,-1304 # ffffffffffffeae8 <__BSS_END__+0xfffffffffffcf2b8>
   12da4:	008787b3          	add	a5,a5,s0
   12da8:	0007b783          	ld	a5,0(a5)
   12dac:	16079063          	bnez	a5,12f0c <__svfscanf_r+0x32c>
   12db0:	fffff7b7          	lui	a5,0xfffff
   12db4:	ae078793          	addi	a5,a5,-1312 # ffffffffffffeae0 <__BSS_END__+0xfffffffffffcf2b0>
   12db8:	fffff2b7          	lui	t0,0xfffff
   12dbc:	008787b3          	add	a5,a5,s0
   12dc0:	a8028293          	addi	t0,t0,-1408 # ffffffffffffea80 <__BSS_END__+0xfffffffffffcf250>
   12dc4:	0007b503          	ld	a0,0(a5)
   12dc8:	00540133          	add	sp,s0,t0
   12dcc:	000012b7          	lui	t0,0x1
   12dd0:	00510133          	add	sp,sp,t0
   12dd4:	57813083          	ld	ra,1400(sp)
   12dd8:	57013403          	ld	s0,1392(sp)
   12ddc:	56813483          	ld	s1,1384(sp)
   12de0:	56013903          	ld	s2,1376(sp)
   12de4:	55813983          	ld	s3,1368(sp)
   12de8:	55013a03          	ld	s4,1360(sp)
   12dec:	54813a83          	ld	s5,1352(sp)
   12df0:	54013b03          	ld	s6,1344(sp)
   12df4:	53813b83          	ld	s7,1336(sp)
   12df8:	53013c03          	ld	s8,1328(sp)
   12dfc:	52813c83          	ld	s9,1320(sp)
   12e00:	52013d03          	ld	s10,1312(sp)
   12e04:	51813d83          	ld	s11,1304(sp)
   12e08:	58010113          	addi	sp,sp,1408
   12e0c:	00008067          	ret
   12e10:	fffff7b7          	lui	a5,0xfffff
   12e14:	008d2603          	lw	a2,8(s10)
   12e18:	af878793          	addi	a5,a5,-1288 # ffffffffffffeaf8 <__BSS_END__+0xfffffffffffcf2c8>
   12e1c:	008787b3          	add	a5,a5,s0
   12e20:	0007ba03          	ld	s4,0(a5)
   12e24:	02c05c63          	blez	a2,12e5c <__svfscanf_r+0x27c>
   12e28:	000d3783          	ld	a5,0(s10)
   12e2c:	0007c703          	lbu	a4,0(a5)
   12e30:	00e90733          	add	a4,s2,a4
   12e34:	00074703          	lbu	a4,0(a4)
   12e38:	00877713          	andi	a4,a4,8
   12e3c:	02070863          	beqz	a4,12e6c <__svfscanf_r+0x28c>
   12e40:	008d2703          	lw	a4,8(s10)
   12e44:	00178793          	addi	a5,a5,1
   12e48:	00fd3023          	sd	a5,0(s10)
   12e4c:	fff7061b          	addiw	a2,a4,-1
   12e50:	00cd2423          	sw	a2,8(s10)
   12e54:	001d8d9b          	addiw	s11,s11,1
   12e58:	fcc048e3          	bgtz	a2,12e28 <__svfscanf_r+0x248>
   12e5c:	000d0593          	mv	a1,s10
   12e60:	000a0513          	mv	a0,s4
   12e64:	574090ef          	jal	ra,1c3d8 <__srefill_r>
   12e68:	fc0500e3          	beqz	a0,12e28 <__svfscanf_r+0x248>
   12e6c:	00098893          	mv	a7,s3
   12e70:	fffff7b7          	lui	a5,0xfffff
   12e74:	af078793          	addi	a5,a5,-1296 # ffffffffffffeaf0 <__BSS_END__+0xfffffffffffcf2c0>
   12e78:	0008c703          	lbu	a4,0(a7)
   12e7c:	008787b3          	add	a5,a5,s0
   12e80:	0007b783          	ld	a5,0(a5)
   12e84:	0007069b          	sext.w	a3,a4
   12e88:	00188993          	addi	s3,a7,1
   12e8c:	b6d7ae23          	sw	a3,-1156(a5)
   12e90:	e8069ce3          	bnez	a3,12d28 <__svfscanf_r+0x148>
   12e94:	f09ff06f          	j	12d9c <__svfscanf_r+0x1bc>
   12e98:	00fb7793          	andi	a5,s6,15
   12e9c:	f00790e3          	bnez	a5,12d9c <__svfscanf_r+0x1bc>
   12ea0:	0019c683          	lbu	a3,1(s3)
   12ea4:	fdb6879b          	addiw	a5,a3,-37
   12ea8:	00088993          	mv	s3,a7
   12eac:	0ff7f793          	zext.b	a5,a5
   12eb0:	05500713          	li	a4,85
   12eb4:	001b6b13          	ori	s6,s6,1
   12eb8:	00198893          	addi	a7,s3,1
   12ebc:	eaf772e3          	bgeu	a4,a5,12d60 <__svfscanf_r+0x180>
   12ec0:	fffff7b7          	lui	a5,0xfffff
   12ec4:	ae878793          	addi	a5,a5,-1304 # ffffffffffffeae8 <__BSS_END__+0xfffffffffffcf2b8>
   12ec8:	008787b3          	add	a5,a5,s0
   12ecc:	0007b783          	ld	a5,0(a5)
   12ed0:	ee0780e3          	beqz	a5,12db0 <__svfscanf_r+0x1d0>
   12ed4:	0007b983          	ld	s3,0(a5)
   12ed8:	ec098ce3          	beqz	s3,12db0 <__svfscanf_r+0x1d0>
   12edc:	00098513          	mv	a0,s3
   12ee0:	054070ef          	jal	ra,19f34 <free>
   12ee4:	ecdff06f          	j	12db0 <__svfscanf_r+0x1d0>
   12ee8:	fffff7b7          	lui	a5,0xfffff
   12eec:	ae078793          	addi	a5,a5,-1312 # ffffffffffffeae0 <__BSS_END__+0xfffffffffffcf2b0>
   12ef0:	008787b3          	add	a5,a5,s0
   12ef4:	0007b783          	ld	a5,0(a5)
   12ef8:	000d0d93          	mv	s11,s10
   12efc:	08078e63          	beqz	a5,12f98 <__svfscanf_r+0x3b8>
   12f00:	010dd783          	lhu	a5,16(s11)
   12f04:	0407f793          	andi	a5,a5,64
   12f08:	08079863          	bnez	a5,12f98 <__svfscanf_r+0x3b8>
   12f0c:	fffff7b7          	lui	a5,0xfffff
   12f10:	ae878793          	addi	a5,a5,-1304 # ffffffffffffeae8 <__BSS_END__+0xfffffffffffcf2b8>
   12f14:	008787b3          	add	a5,a5,s0
   12f18:	0007b783          	ld	a5,0(a5)
   12f1c:	0007b983          	ld	s3,0(a5)
   12f20:	fb9ff06f          	j	12ed8 <__svfscanf_r+0x2f8>
   12f24:	008d2683          	lw	a3,8(s10)
   12f28:	00170713          	addi	a4,a4,1
   12f2c:	00ed3023          	sd	a4,0(s10)
   12f30:	fff6871b          	addiw	a4,a3,-1
   12f34:	00ed2423          	sw	a4,8(s10)
   12f38:	001d8d9b          	addiw	s11,s11,1
   12f3c:	00098893          	mv	a7,s3
   12f40:	f31ff06f          	j	12e70 <__svfscanf_r+0x290>
   12f44:	fffff7b7          	lui	a5,0xfffff
   12f48:	af878793          	addi	a5,a5,-1288 # ffffffffffffeaf8 <__BSS_END__+0xfffffffffffcf2c8>
   12f4c:	008787b3          	add	a5,a5,s0
   12f50:	0007b503          	ld	a0,0(a5)
   12f54:	000d0593          	mv	a1,s10
   12f58:	480090ef          	jal	ra,1c3d8 <__srefill_r>
   12f5c:	e20508e3          	beqz	a0,12d8c <__svfscanf_r+0x1ac>
   12f60:	fffff7b7          	lui	a5,0xfffff
   12f64:	ae078793          	addi	a5,a5,-1312 # ffffffffffffeae0 <__BSS_END__+0xfffffffffffcf2b0>
   12f68:	008787b3          	add	a5,a5,s0
   12f6c:	0007b783          	ld	a5,0(a5)
   12f70:	00078863          	beqz	a5,12f80 <__svfscanf_r+0x3a0>
   12f74:	010d5783          	lhu	a5,16(s10)
   12f78:	0407f793          	andi	a5,a5,64
   12f7c:	e20780e3          	beqz	a5,12d9c <__svfscanf_r+0x1bc>
   12f80:	fffff7b7          	lui	a5,0xfffff
   12f84:	ae878793          	addi	a5,a5,-1304 # ffffffffffffeae8 <__BSS_END__+0xfffffffffffcf2b8>
   12f88:	008787b3          	add	a5,a5,s0
   12f8c:	0007b783          	ld	a5,0(a5)
   12f90:	00079463          	bnez	a5,12f98 <__svfscanf_r+0x3b8>
   12f94:	4190206f          	j	15bac <__svfscanf_r+0x2fcc>
   12f98:	fffff7b7          	lui	a5,0xfffff
   12f9c:	ae878793          	addi	a5,a5,-1304 # ffffffffffffeae8 <__BSS_END__+0xfffffffffffcf2b8>
   12fa0:	008787b3          	add	a5,a5,s0
   12fa4:	0007b703          	ld	a4,0(a5)
   12fa8:	00a75783          	lhu	a5,10(a4)
   12fac:	00073983          	ld	s3,0(a4)
   12fb0:	02078c63          	beqz	a5,12fe8 <__svfscanf_r+0x408>
   12fb4:	fff7891b          	addiw	s2,a5,-1
   12fb8:	02091793          	slli	a5,s2,0x20
   12fbc:	01d7d913          	srli	s2,a5,0x1d
   12fc0:	00898793          	addi	a5,s3,8
   12fc4:	00098493          	mv	s1,s3
   12fc8:	00f90933          	add	s2,s2,a5
   12fcc:	0004b783          	ld	a5,0(s1)
   12fd0:	00848493          	addi	s1,s1,8
   12fd4:	0007b503          	ld	a0,0(a5)
   12fd8:	75d060ef          	jal	ra,19f34 <free>
   12fdc:	ff84b783          	ld	a5,-8(s1)
   12fe0:	0007b023          	sd	zero,0(a5)
   12fe4:	ff2494e3          	bne	s1,s2,12fcc <__svfscanf_r+0x3ec>
   12fe8:	fffff737          	lui	a4,0xfffff
   12fec:	ae070713          	addi	a4,a4,-1312 # ffffffffffffeae0 <__BSS_END__+0xfffffffffffcf2b0>
   12ff0:	fff00793          	li	a5,-1
   12ff4:	00870733          	add	a4,a4,s0
   12ff8:	00f73023          	sd	a5,0(a4)
   12ffc:	eddff06f          	j	12ed8 <__svfscanf_r+0x2f8>
   13000:	08fb7793          	andi	a5,s6,143
   13004:	d8079ce3          	bnez	a5,12d9c <__svfscanf_r+0x1bc>
   13008:	002a1793          	slli	a5,s4,0x2
   1300c:	01478a33          	add	s4,a5,s4
   13010:	001a1a13          	slli	s4,s4,0x1
   13014:	00da0a33          	add	s4,s4,a3
   13018:	fd0a0a13          	addi	s4,s4,-48
   1301c:	0019c683          	lbu	a3,1(s3)
   13020:	00088993          	mv	s3,a7
   13024:	d29ff06f          	j	12d4c <__svfscanf_r+0x16c>
   13028:	00400993          	li	s3,4
   1302c:	008d2703          	lw	a4,8(s10)
   13030:	38e05e63          	blez	a4,133cc <__svfscanf_r+0x7ec>
   13034:	040b7713          	andi	a4,s6,64
   13038:	3c070c63          	beqz	a4,13410 <__svfscanf_r+0x830>
   1303c:	00300713          	li	a4,3
   13040:	46e98263          	beq	s3,a4,134a4 <__svfscanf_r+0x8c4>
   13044:	00400713          	li	a4,4
   13048:	60e98ce3          	beq	s3,a4,13e60 <__svfscanf_r+0x1280>
   1304c:	00100713          	li	a4,1
   13050:	1ce988e3          	beq	s3,a4,13a20 <__svfscanf_r+0xe40>
   13054:	00200713          	li	a4,2
   13058:	6ae99063          	bne	s3,a4,136f8 <__svfscanf_r+0xb18>
   1305c:	000a1463          	bnez	s4,13064 <__svfscanf_r+0x484>
   13060:	fff00a13          	li	s4,-1
   13064:	001b7993          	andi	s3,s6,1
   13068:	010b7b93          	andi	s7,s6,16
   1306c:	00099463          	bnez	s3,13074 <__svfscanf_r+0x494>
   13070:	0850106f          	j	148f4 <__svfscanf_r+0x1d14>
   13074:	000b8463          	beqz	s7,1307c <__svfscanf_r+0x49c>
   13078:	3e40206f          	j	1545c <__svfscanf_r+0x287c>
   1307c:	fffff7b7          	lui	a5,0xfffff
   13080:	ad078793          	addi	a5,a5,-1328 # ffffffffffffead0 <__BSS_END__+0xfffffffffffcf2a0>
   13084:	008787b3          	add	a5,a5,s0
   13088:	0007b783          	ld	a5,0(a5)
   1308c:	fffff737          	lui	a4,0xfffff
   13090:	ad070713          	addi	a4,a4,-1328 # ffffffffffffead0 <__BSS_END__+0xfffffffffffcf2a0>
   13094:	0007bc03          	ld	s8,0(a5)
   13098:	00870733          	add	a4,a4,s0
   1309c:	00878793          	addi	a5,a5,8
   130a0:	080b7313          	andi	t1,s6,128
   130a4:	00f73023          	sd	a5,0(a4)
   130a8:	00031463          	bnez	t1,130b0 <__svfscanf_r+0x4d0>
   130ac:	6140206f          	j	156c0 <__svfscanf_r+0x2ae0>
   130b0:	fffff7b7          	lui	a5,0xfffff
   130b4:	ac878793          	addi	a5,a5,-1336 # ffffffffffffeac8 <__BSS_END__+0xfffffffffffcf298>
   130b8:	008787b3          	add	a5,a5,s0
   130bc:	0117b023          	sd	a7,0(a5)
   130c0:	cc0c0ee3          	beqz	s8,12d9c <__svfscanf_r+0x1bc>
   130c4:	08000513          	li	a0,128
   130c8:	661060ef          	jal	ra,19f28 <malloc>
   130cc:	fffff7b7          	lui	a5,0xfffff
   130d0:	ac878793          	addi	a5,a5,-1336 # ffffffffffffeac8 <__BSS_END__+0xfffffffffffcf298>
   130d4:	008787b3          	add	a5,a5,s0
   130d8:	0007b883          	ld	a7,0(a5)
   130dc:	00050993          	mv	s3,a0
   130e0:	ea0500e3          	beqz	a0,12f80 <__svfscanf_r+0x3a0>
   130e4:	fffff7b7          	lui	a5,0xfffff
   130e8:	ae878793          	addi	a5,a5,-1304 # ffffffffffffeae8 <__BSS_END__+0xfffffffffffcf2b8>
   130ec:	008787b3          	add	a5,a5,s0
   130f0:	0007b783          	ld	a5,0(a5)
   130f4:	00ac3023          	sd	a0,0(s8)
   130f8:	0087d703          	lhu	a4,8(a5)
   130fc:	00a7db03          	lhu	s6,10(a5)
   13100:	0007061b          	sext.w	a2,a4
   13104:	00eb6463          	bltu	s6,a4,1310c <__svfscanf_r+0x52c>
   13108:	4a50106f          	j	14dac <__svfscanf_r+0x21cc>
   1310c:	0007b503          	ld	a0,0(a5)
   13110:	fffff7b7          	lui	a5,0xfffff
   13114:	ae878793          	addi	a5,a5,-1304 # ffffffffffffeae8 <__BSS_END__+0xfffffffffffcf2b8>
   13118:	008787b3          	add	a5,a5,s0
   1311c:	0007b783          	ld	a5,0(a5)
   13120:	003b1713          	slli	a4,s6,0x3
   13124:	00e50533          	add	a0,a0,a4
   13128:	001b0b1b          	addiw	s6,s6,1
   1312c:	01679523          	sh	s6,10(a5)
   13130:	01853023          	sd	s8,0(a0)
   13134:	00098593          	mv	a1,s3
   13138:	02000793          	li	a5,32
   1313c:	000d3703          	ld	a4,0(s10)
   13140:	00074703          	lbu	a4,0(a4)
   13144:	00e90733          	add	a4,s2,a4
   13148:	00074703          	lbu	a4,0(a4)
   1314c:	00877713          	andi	a4,a4,8
   13150:	1e071063          	bnez	a4,13330 <__svfscanf_r+0x750>
   13154:	fffff737          	lui	a4,0xfffff
   13158:	aa070713          	addi	a4,a4,-1376 # ffffffffffffeaa0 <__BSS_END__+0xfffffffffffcf270>
   1315c:	00870733          	add	a4,a4,s0
   13160:	01173023          	sd	a7,0(a4)
   13164:	fffff737          	lui	a4,0xfffff
   13168:	ac870713          	addi	a4,a4,-1336 # ffffffffffffeac8 <__BSS_END__+0xfffffffffffcf298>
   1316c:	00870733          	add	a4,a4,s0
   13170:	01873023          	sd	s8,0(a4)
   13174:	00000c93          	li	s9,0
   13178:	000b8c13          	mv	s8,s7
   1317c:	00058b13          	mv	s6,a1
   13180:	00078b93          	mv	s7,a5
   13184:	2b9060ef          	jal	ra,19c3c <__locale_mb_cur_max>
   13188:	dd950ce3          	beq	a0,s9,12f60 <__svfscanf_r+0x380>
   1318c:	fffff637          	lui	a2,0xfffff
   13190:	008d2683          	lw	a3,8(s10)
   13194:	f9060793          	addi	a5,a2,-112 # ffffffffffffef90 <__BSS_END__+0xfffffffffffcf760>
   13198:	ac060613          	addi	a2,a2,-1344
   1319c:	000d3703          	ld	a4,0(s10)
   131a0:	00860633          	add	a2,a2,s0
   131a4:	008787b3          	add	a5,a5,s0
   131a8:	00f63023          	sd	a5,0(a2)
   131ac:	00063783          	ld	a5,0(a2)
   131b0:	fff6869b          	addiw	a3,a3,-1
   131b4:	00074583          	lbu	a1,0(a4)
   131b8:	fffff537          	lui	a0,0xfffff
   131bc:	00dd2423          	sw	a3,8(s10)
   131c0:	fffff6b7          	lui	a3,0xfffff
   131c4:	a9850513          	addi	a0,a0,-1384 # ffffffffffffea98 <__BSS_END__+0xfffffffffffcf268>
   131c8:	aa868693          	addi	a3,a3,-1368 # ffffffffffffeaa8 <__BSS_END__+0xfffffffffffcf278>
   131cc:	01978633          	add	a2,a5,s9
   131d0:	00170713          	addi	a4,a4,1
   131d4:	001c879b          	addiw	a5,s9,1
   131d8:	00850533          	add	a0,a0,s0
   131dc:	008686b3          	add	a3,a3,s0
   131e0:	00ed3023          	sd	a4,0(s10)
   131e4:	00f52023          	sw	a5,0(a0)
   131e8:	c8b60823          	sb	a1,-880(a2)
   131ec:	00300713          	li	a4,3
   131f0:	00f6b023          	sd	a5,0(a3)
   131f4:	02e49063          	bne	s1,a4,13214 <__svfscanf_r+0x634>
   131f8:	fffff7b7          	lui	a5,0xfffff
   131fc:	ac078793          	addi	a5,a5,-1344 # ffffffffffffeac0 <__BSS_END__+0xfffffffffffcf290>
   13200:	008787b3          	add	a5,a5,s0
   13204:	0007b783          	ld	a5,0(a5)
   13208:	b887a703          	lw	a4,-1144(a5)
   1320c:	00400793          	li	a5,4
   13210:	00f70e63          	beq	a4,a5,1322c <__svfscanf_r+0x64c>
   13214:	fffff537          	lui	a0,0xfffff
   13218:	b1850793          	addi	a5,a0,-1256 # ffffffffffffeb18 <__BSS_END__+0xfffffffffffcf2e8>
   1321c:	00800613          	li	a2,8
   13220:	00000593          	li	a1,0
   13224:	00878533          	add	a0,a5,s0
   13228:	8b0fd0ef          	jal	ra,102d8 <memset>
   1322c:	fffffab7          	lui	s5,0xfffff
   13230:	b18a8793          	addi	a5,s5,-1256 # ffffffffffffeb18 <__BSS_END__+0xfffffffffffcf2e8>
   13234:	00878733          	add	a4,a5,s0
   13238:	fffff7b7          	lui	a5,0xfffff
   1323c:	aa878793          	addi	a5,a5,-1368 # ffffffffffffeaa8 <__BSS_END__+0xfffffffffffcf278>
   13240:	008787b3          	add	a5,a5,s0
   13244:	0007b683          	ld	a3,0(a5)
   13248:	c20a8793          	addi	a5,s5,-992
   1324c:	00878633          	add	a2,a5,s0
   13250:	fffff7b7          	lui	a5,0xfffff
   13254:	af878793          	addi	a5,a5,-1288 # ffffffffffffeaf8 <__BSS_END__+0xfffffffffffcf2c8>
   13258:	008787b3          	add	a5,a5,s0
   1325c:	0007b503          	ld	a0,0(a5)
   13260:	00098593          	mv	a1,s3
   13264:	4b8070ef          	jal	ra,1a71c <_mbrtowc_r>
   13268:	fff00713          	li	a4,-1
   1326c:	00050493          	mv	s1,a0
   13270:	cee508e3          	beq	a0,a4,12f60 <__svfscanf_r+0x380>
   13274:	00050463          	beqz	a0,1327c <__svfscanf_r+0x69c>
   13278:	3580206f          	j	155d0 <__svfscanf_r+0x29f0>
   1327c:	0009a023          	sw	zero,0(s3)
   13280:	491030ef          	jal	ra,16f10 <iswspace>
   13284:	00050463          	beqz	a0,1328c <__svfscanf_r+0x6ac>
   13288:	7680206f          	j	159f0 <__svfscanf_r+0x2e10>
   1328c:	fffff7b7          	lui	a5,0xfffff
   13290:	a9878793          	addi	a5,a5,-1384 # ffffffffffffea98 <__BSS_END__+0xfffffffffffcf268>
   13294:	008787b3          	add	a5,a5,s0
   13298:	0007a783          	lw	a5,0(a5)
   1329c:	01b78dbb          	addw	s11,a5,s11
   132a0:	fffa0a13          	addi	s4,s4,-1
   132a4:	000c0463          	beqz	s8,132ac <__svfscanf_r+0x6cc>
   132a8:	3940206f          	j	1563c <__svfscanf_r+0x2a5c>
   132ac:	fffff7b7          	lui	a5,0xfffff
   132b0:	ac878793          	addi	a5,a5,-1336 # ffffffffffffeac8 <__BSS_END__+0xfffffffffffcf298>
   132b4:	008787b3          	add	a5,a5,s0
   132b8:	0007b783          	ld	a5,0(a5)
   132bc:	00498993          	addi	s3,s3,4
   132c0:	00079463          	bnez	a5,132c8 <__svfscanf_r+0x6e8>
   132c4:	3780206f          	j	1563c <__svfscanf_r+0x2a5c>
   132c8:	41698ab3          	sub	s5,s3,s6
   132cc:	402ad713          	srai	a4,s5,0x2
   132d0:	00000c93          	li	s9,0
   132d4:	01776463          	bltu	a4,s7,132dc <__svfscanf_r+0x6fc>
   132d8:	02d0206f          	j	15b04 <__svfscanf_r+0x2f24>
   132dc:	008d2703          	lw	a4,8(s10)
   132e0:	00e04463          	bgtz	a4,132e8 <__svfscanf_r+0x708>
   132e4:	5f40206f          	j	158d8 <__svfscanf_r+0x2cf8>
   132e8:	000d3703          	ld	a4,0(s10)
   132ec:	00074703          	lbu	a4,0(a4)
   132f0:	00e90733          	add	a4,s2,a4
   132f4:	00074703          	lbu	a4,0(a4)
   132f8:	00877713          	andi	a4,a4,8
   132fc:	00071463          	bnez	a4,13304 <__svfscanf_r+0x724>
   13300:	e80a12e3          	bnez	s4,13184 <__svfscanf_r+0x5a4>
   13304:	fffff7b7          	lui	a5,0xfffff
   13308:	fffff737          	lui	a4,0xfffff
   1330c:	aa078793          	addi	a5,a5,-1376 # ffffffffffffeaa0 <__BSS_END__+0xfffffffffffcf270>
   13310:	ac870713          	addi	a4,a4,-1336 # ffffffffffffeac8 <__BSS_END__+0xfffffffffffcf298>
   13314:	008787b3          	add	a5,a5,s0
   13318:	00870733          	add	a4,a4,s0
   1331c:	0007b883          	ld	a7,0(a5)
   13320:	000b8793          	mv	a5,s7
   13324:	000c0b93          	mv	s7,s8
   13328:	00073c03          	ld	s8,0(a4)
   1332c:	000b0593          	mv	a1,s6
   13330:	b40b90e3          	bnez	s7,12e70 <__svfscanf_r+0x290>
   13334:	0009a023          	sw	zero,0(s3)
   13338:	000c1463          	bnez	s8,13340 <__svfscanf_r+0x760>
   1333c:	3b00106f          	j	146ec <__svfscanf_r+0x1b0c>
   13340:	40b985b3          	sub	a1,s3,a1
   13344:	4025d713          	srai	a4,a1,0x2
   13348:	00170713          	addi	a4,a4,1
   1334c:	00f76463          	bltu	a4,a5,13354 <__svfscanf_r+0x774>
   13350:	39c0106f          	j	146ec <__svfscanf_r+0x1b0c>
   13354:	000c3503          	ld	a0,0(s8)
   13358:	fffff7b7          	lui	a5,0xfffff
   1335c:	ac878793          	addi	a5,a5,-1336 # ffffffffffffeac8 <__BSS_END__+0xfffffffffffcf298>
   13360:	008787b3          	add	a5,a5,s0
   13364:	00458593          	addi	a1,a1,4
   13368:	0117b023          	sd	a7,0(a5)
   1336c:	2dd080ef          	jal	ra,1be48 <realloc>
   13370:	fffff7b7          	lui	a5,0xfffff
   13374:	ac878793          	addi	a5,a5,-1336 # ffffffffffffeac8 <__BSS_END__+0xfffffffffffcf298>
   13378:	008787b3          	add	a5,a5,s0
   1337c:	0007b883          	ld	a7,0(a5)
   13380:	00051463          	bnez	a0,13388 <__svfscanf_r+0x7a8>
   13384:	3680106f          	j	146ec <__svfscanf_r+0x1b0c>
   13388:	00ac3023          	sd	a0,0(s8)
   1338c:	3600106f          	j	146ec <__svfscanf_r+0x1b0c>
   13390:	200b6b13          	ori	s6,s6,512
   13394:	0001f737          	lui	a4,0x1f
   13398:	03070793          	addi	a5,a4,48 # 1f030 <_strtoul_r>
   1339c:	fffff737          	lui	a4,0xfffff
   133a0:	ab070713          	addi	a4,a4,-1360 # ffffffffffffeab0 <__BSS_END__+0xfffffffffffcf280>
   133a4:	00870733          	add	a4,a4,s0
   133a8:	00f73023          	sd	a5,0(a4)
   133ac:	01000793          	li	a5,16
   133b0:	fffff737          	lui	a4,0xfffff
   133b4:	ab870713          	addi	a4,a4,-1352 # ffffffffffffeab8 <__BSS_END__+0xfffffffffffcf288>
   133b8:	00870733          	add	a4,a4,s0
   133bc:	00f73023          	sd	a5,0(a4)
   133c0:	008d2703          	lw	a4,8(s10)
   133c4:	00300993          	li	s3,3
   133c8:	c6e046e3          	bgtz	a4,13034 <__svfscanf_r+0x454>
   133cc:	fffff7b7          	lui	a5,0xfffff
   133d0:	ac878793          	addi	a5,a5,-1336 # ffffffffffffeac8 <__BSS_END__+0xfffffffffffcf298>
   133d4:	008787b3          	add	a5,a5,s0
   133d8:	0117b023          	sd	a7,0(a5)
   133dc:	fffff7b7          	lui	a5,0xfffff
   133e0:	af878793          	addi	a5,a5,-1288 # ffffffffffffeaf8 <__BSS_END__+0xfffffffffffcf2c8>
   133e4:	008787b3          	add	a5,a5,s0
   133e8:	0007b503          	ld	a0,0(a5)
   133ec:	000d0593          	mv	a1,s10
   133f0:	7e9080ef          	jal	ra,1c3d8 <__srefill_r>
   133f4:	fffff7b7          	lui	a5,0xfffff
   133f8:	ac878793          	addi	a5,a5,-1336 # ffffffffffffeac8 <__BSS_END__+0xfffffffffffcf298>
   133fc:	008787b3          	add	a5,a5,s0
   13400:	0007b883          	ld	a7,0(a5)
   13404:	b4051ee3          	bnez	a0,12f60 <__svfscanf_r+0x380>
   13408:	040b7713          	andi	a4,s6,64
   1340c:	c20718e3          	bnez	a4,1303c <__svfscanf_r+0x45c>
   13410:	000d3683          	ld	a3,0(s10)
   13414:	0006c703          	lbu	a4,0(a3)
   13418:	00e90733          	add	a4,s2,a4
   1341c:	00074703          	lbu	a4,0(a4)
   13420:	00877713          	andi	a4,a4,8
   13424:	c0070ce3          	beqz	a4,1303c <__svfscanf_r+0x45c>
   13428:	fffff7b7          	lui	a5,0xfffff
   1342c:	af878793          	addi	a5,a5,-1288 # ffffffffffffeaf8 <__BSS_END__+0xfffffffffffcf2c8>
   13430:	008787b3          	add	a5,a5,s0
   13434:	0007ba83          	ld	s5,0(a5)
   13438:	00088b93          	mv	s7,a7
   1343c:	0200006f          	j	1345c <__svfscanf_r+0x87c>
   13440:	00168693          	addi	a3,a3,1
   13444:	00dd3023          	sd	a3,0(s10)
   13448:	0006c783          	lbu	a5,0(a3)
   1344c:	00f907b3          	add	a5,s2,a5
   13450:	0007c783          	lbu	a5,0(a5)
   13454:	0087f793          	andi	a5,a5,8
   13458:	04078063          	beqz	a5,13498 <__svfscanf_r+0x8b8>
   1345c:	008d2783          	lw	a5,8(s10)
   13460:	001d8d9b          	addiw	s11,s11,1
   13464:	fff7871b          	addiw	a4,a5,-1
   13468:	00ed2423          	sw	a4,8(s10)
   1346c:	fce04ae3          	bgtz	a4,13440 <__svfscanf_r+0x860>
   13470:	000d0593          	mv	a1,s10
   13474:	000a8513          	mv	a0,s5
   13478:	761080ef          	jal	ra,1c3d8 <__srefill_r>
   1347c:	ae0512e3          	bnez	a0,12f60 <__svfscanf_r+0x380>
   13480:	000d3683          	ld	a3,0(s10)
   13484:	0006c783          	lbu	a5,0(a3)
   13488:	00f907b3          	add	a5,s2,a5
   1348c:	0007c783          	lbu	a5,0(a5)
   13490:	0087f793          	andi	a5,a5,8
   13494:	fc0794e3          	bnez	a5,1345c <__svfscanf_r+0x87c>
   13498:	00300713          	li	a4,3
   1349c:	000b8893          	mv	a7,s7
   134a0:	bae992e3          	bne	s3,a4,13044 <__svfscanf_r+0x464>
   134a4:	000016b7          	lui	a3,0x1
   134a8:	d8068b93          	addi	s7,a3,-640 # d80 <exit-0xf368>
   134ac:	fffa0713          	addi	a4,s4,-1
   134b0:	36c68613          	addi	a2,a3,876
   134b4:	017b6bb3          	or	s7,s6,s7
   134b8:	00000a93          	li	s5,0
   134bc:	00e67a63          	bgeu	a2,a4,134d0 <__svfscanf_r+0x8f0>
   134c0:	fffff7b7          	lui	a5,0xfffff
   134c4:	c937879b          	addiw	a5,a5,-877 # ffffffffffffec93 <__BSS_END__+0xfffffffffffcf463>
   134c8:	01478abb          	addw	s5,a5,s4
   134cc:	36d68a13          	addi	s4,a3,877
   134d0:	fffffb37          	lui	s6,0xfffff
   134d4:	c20b0793          	addi	a5,s6,-992 # ffffffffffffec20 <__BSS_END__+0xfffffffffffcf3f0>
   134d8:	00878b33          	add	s6,a5,s0
   134dc:	fffff7b7          	lui	a5,0xfffff
   134e0:	ac078793          	addi	a5,a5,-1344 # ffffffffffffeac0 <__BSS_END__+0xfffffffffffcf290>
   134e4:	008787b3          	add	a5,a5,s0
   134e8:	0157b023          	sd	s5,0(a5)
   134ec:	fffff7b7          	lui	a5,0xfffff
   134f0:	ab878793          	addi	a5,a5,-1352 # ffffffffffffeab8 <__BSS_END__+0xfffffffffffcf288>
   134f4:	008787b3          	add	a5,a5,s0
   134f8:	000d8613          	mv	a2,s11
   134fc:	00048d93          	mv	s11,s1
   13500:	000a0493          	mv	s1,s4
   13504:	0007ba03          	ld	s4,0(a5)
   13508:	0002cc37          	lui	s8,0x2c
   1350c:	00000993          	li	s3,0
   13510:	04d00c93          	li	s9,77
   13514:	240c0c13          	addi	s8,s8,576 # 2c240 <blanks.1+0x1a0>
   13518:	00088a93          	mv	s5,a7
   1351c:	000d3703          	ld	a4,0(s10)
   13520:	00074683          	lbu	a3,0(a4)
   13524:	fd56879b          	addiw	a5,a3,-43
   13528:	0ff7f793          	zext.b	a5,a5
   1352c:	62fceae3          	bltu	s9,a5,14360 <__svfscanf_r+0x1780>
   13530:	00279793          	slli	a5,a5,0x2
   13534:	018787b3          	add	a5,a5,s8
   13538:	0007a783          	lw	a5,0(a5)
   1353c:	00078067          	jr	a5
   13540:	001b6b13          	ori	s6,s6,1
   13544:	00200993          	li	s3,2
   13548:	ae5ff06f          	j	1302c <__svfscanf_r+0x44c>
   1354c:	001b6b13          	ori	s6,s6,1
   13550:	040b6b13          	ori	s6,s6,64
   13554:	00000993          	li	s3,0
   13558:	ad5ff06f          	j	1302c <__svfscanf_r+0x44c>
   1355c:	001b6b13          	ori	s6,s6,1
   13560:	0001f737          	lui	a4,0x1f
   13564:	9a470793          	addi	a5,a4,-1628 # 1e9a4 <_strtol_r>
   13568:	fffff737          	lui	a4,0xfffff
   1356c:	ab070713          	addi	a4,a4,-1360 # ffffffffffffeab0 <__BSS_END__+0xfffffffffffcf280>
   13570:	00870733          	add	a4,a4,s0
   13574:	00f73023          	sd	a5,0(a4)
   13578:	00a00793          	li	a5,10
   1357c:	e35ff06f          	j	133b0 <__svfscanf_r+0x7d0>
   13580:	001b6b13          	ori	s6,s6,1
   13584:	0001f737          	lui	a4,0x1f
   13588:	03070793          	addi	a5,a4,48 # 1f030 <_strtoul_r>
   1358c:	fffff737          	lui	a4,0xfffff
   13590:	ab070713          	addi	a4,a4,-1360 # ffffffffffffeab0 <__BSS_END__+0xfffffffffffcf280>
   13594:	00870733          	add	a4,a4,s0
   13598:	00f73023          	sd	a5,0(a4)
   1359c:	00800793          	li	a5,8
   135a0:	e11ff06f          	j	133b0 <__svfscanf_r+0x7d0>
   135a4:	010b7713          	andi	a4,s6,16
   135a8:	8c0714e3          	bnez	a4,12e70 <__svfscanf_r+0x290>
   135ac:	fffff7b7          	lui	a5,0xfffff
   135b0:	ad078793          	addi	a5,a5,-1328 # ffffffffffffead0 <__BSS_END__+0xfffffffffffcf2a0>
   135b4:	008787b3          	add	a5,a5,s0
   135b8:	0007b783          	ld	a5,0(a5)
   135bc:	fffff637          	lui	a2,0xfffff
   135c0:	ad060613          	addi	a2,a2,-1328 # ffffffffffffead0 <__BSS_END__+0xfffffffffffcf2a0>
   135c4:	0007b683          	ld	a3,0(a5)
   135c8:	00860633          	add	a2,a2,s0
   135cc:	00878793          	addi	a5,a5,8
   135d0:	008b7713          	andi	a4,s6,8
   135d4:	00f63023          	sd	a5,0(a2)
   135d8:	00071463          	bnez	a4,135e0 <__svfscanf_r+0xa00>
   135dc:	17c0206f          	j	15758 <__svfscanf_r+0x2b78>
   135e0:	01b68023          	sb	s11,0(a3)
   135e4:	88dff06f          	j	12e70 <__svfscanf_r+0x290>
   135e8:	00fb7793          	andi	a5,s6,15
   135ec:	fa079863          	bnez	a5,12d9c <__svfscanf_r+0x1bc>
   135f0:	0019c683          	lbu	a3,1(s3)
   135f4:	002b6b13          	ori	s6,s6,2
   135f8:	00088993          	mv	s3,a7
   135fc:	f50ff06f          	j	12d4c <__svfscanf_r+0x16c>
   13600:	f80b1e63          	bnez	s6,12d9c <__svfscanf_r+0x1bc>
   13604:	f80a1c63          	bnez	s4,12d9c <__svfscanf_r+0x1bc>
   13608:	0019c683          	lbu	a3,1(s3)
   1360c:	01000b13          	li	s6,16
   13610:	00088993          	mv	s3,a7
   13614:	f38ff06f          	j	12d4c <__svfscanf_r+0x16c>
   13618:	0001f737          	lui	a4,0x1f
   1361c:	03070793          	addi	a5,a4,48 # 1f030 <_strtoul_r>
   13620:	f49ff06f          	j	13568 <__svfscanf_r+0x988>
   13624:	fffff537          	lui	a0,0xfffff
   13628:	b2050793          	addi	a5,a0,-1248 # ffffffffffffeb20 <__BSS_END__+0xfffffffffffcf2f0>
   1362c:	00088593          	mv	a1,a7
   13630:	00878533          	add	a0,a5,s0
   13634:	7cd080ef          	jal	ra,1c600 <__sccl>
   13638:	00050893          	mv	a7,a0
   1363c:	040b6b13          	ori	s6,s6,64
   13640:	00100993          	li	s3,1
   13644:	9e9ff06f          	j	1302c <__svfscanf_r+0x44c>
   13648:	0001f737          	lui	a4,0x1f
   1364c:	9a470793          	addi	a5,a4,-1628 # 1e9a4 <_strtol_r>
   13650:	fffff737          	lui	a4,0xfffff
   13654:	ab070713          	addi	a4,a4,-1360 # ffffffffffffeab0 <__BSS_END__+0xfffffffffffcf280>
   13658:	00870733          	add	a4,a4,s0
   1365c:	00f73023          	sd	a5,0(a4)
   13660:	fffff7b7          	lui	a5,0xfffff
   13664:	ab878793          	addi	a5,a5,-1352 # ffffffffffffeab8 <__BSS_END__+0xfffffffffffcf288>
   13668:	008787b3          	add	a5,a5,s0
   1366c:	0007b023          	sd	zero,0(a5)
   13670:	00300993          	li	s3,3
   13674:	9b9ff06f          	j	1302c <__svfscanf_r+0x44c>
   13678:	00fb7793          	andi	a5,s6,15
   1367c:	f2079063          	bnez	a5,12d9c <__svfscanf_r+0x1bc>
   13680:	0019c683          	lbu	a3,1(s3)
   13684:	06800793          	li	a5,104
   13688:	00f69463          	bne	a3,a5,13690 <__svfscanf_r+0xab0>
   1368c:	6d90106f          	j	15564 <__svfscanf_r+0x2984>
   13690:	004b6b13          	ori	s6,s6,4
   13694:	00088993          	mv	s3,a7
   13698:	eb4ff06f          	j	12d4c <__svfscanf_r+0x16c>
   1369c:	220b6b13          	ori	s6,s6,544
   136a0:	cf5ff06f          	j	13394 <__svfscanf_r+0x7b4>
   136a4:	00fb7793          	andi	a5,s6,15
   136a8:	ee079a63          	bnez	a5,12d9c <__svfscanf_r+0x1bc>
   136ac:	0019c683          	lbu	a3,1(s3)
   136b0:	06c00793          	li	a5,108
   136b4:	fef69863          	bne	a3,a5,12ea4 <__svfscanf_r+0x2c4>
   136b8:	0029c683          	lbu	a3,2(s3)
   136bc:	002b6b13          	ori	s6,s6,2
   136c0:	00298993          	addi	s3,s3,2
   136c4:	e88ff06f          	j	12d4c <__svfscanf_r+0x16c>
   136c8:	08fb7793          	andi	a5,s6,143
   136cc:	ec079863          	bnez	a5,12d9c <__svfscanf_r+0x1bc>
   136d0:	fffff7b7          	lui	a5,0xfffff
   136d4:	ae878793          	addi	a5,a5,-1304 # ffffffffffffeae8 <__BSS_END__+0xfffffffffffcf2b8>
   136d8:	008787b3          	add	a5,a5,s0
   136dc:	0007b783          	ld	a5,0(a5)
   136e0:	00079463          	bnez	a5,136e8 <__svfscanf_r+0xb08>
   136e4:	6a10106f          	j	15584 <__svfscanf_r+0x29a4>
   136e8:	0019c683          	lbu	a3,1(s3)
   136ec:	080b6b13          	ori	s6,s6,128
   136f0:	00088993          	mv	s3,a7
   136f4:	e58ff06f          	j	12d4c <__svfscanf_r+0x16c>
   136f8:	000a1463          	bnez	s4,13700 <__svfscanf_r+0xb20>
   136fc:	00100a13          	li	s4,1
   13700:	001b7713          	andi	a4,s6,1
   13704:	010b7693          	andi	a3,s6,16
   13708:	6c0706e3          	beqz	a4,145d4 <__svfscanf_r+0x19f4>
   1370c:	00068463          	beqz	a3,13714 <__svfscanf_r+0xb34>
   13710:	5210106f          	j	15430 <__svfscanf_r+0x2850>
   13714:	fffff7b7          	lui	a5,0xfffff
   13718:	ad078793          	addi	a5,a5,-1328 # ffffffffffffead0 <__BSS_END__+0xfffffffffffcf2a0>
   1371c:	008787b3          	add	a5,a5,s0
   13720:	0007b783          	ld	a5,0(a5)
   13724:	fffff737          	lui	a4,0xfffff
   13728:	ad070713          	addi	a4,a4,-1328 # ffffffffffffead0 <__BSS_END__+0xfffffffffffcf2a0>
   1372c:	0007bf03          	ld	t5,0(a5)
   13730:	00870733          	add	a4,a4,s0
   13734:	00878793          	addi	a5,a5,8
   13738:	080b7313          	andi	t1,s6,128
   1373c:	00f73023          	sd	a5,0(a4)
   13740:	00031463          	bnez	t1,13748 <__svfscanf_r+0xb68>
   13744:	7510106f          	j	15694 <__svfscanf_r+0x2ab4>
   13748:	fffff7b7          	lui	a5,0xfffff
   1374c:	aa878793          	addi	a5,a5,-1368 # ffffffffffffeaa8 <__BSS_END__+0xfffffffffffcf278>
   13750:	008787b3          	add	a5,a5,s0
   13754:	00d7b023          	sd	a3,0(a5)
   13758:	fffff7b7          	lui	a5,0xfffff
   1375c:	ac078793          	addi	a5,a5,-1344 # ffffffffffffeac0 <__BSS_END__+0xfffffffffffcf290>
   13760:	008787b3          	add	a5,a5,s0
   13764:	0117b023          	sd	a7,0(a5)
   13768:	fffff7b7          	lui	a5,0xfffff
   1376c:	ac878793          	addi	a5,a5,-1336 # ffffffffffffeac8 <__BSS_END__+0xfffffffffffcf298>
   13770:	008787b3          	add	a5,a5,s0
   13774:	01e7b023          	sd	t5,0(a5)
   13778:	e20f0263          	beqz	t5,12d9c <__svfscanf_r+0x1bc>
   1377c:	08000513          	li	a0,128
   13780:	7a8060ef          	jal	ra,19f28 <malloc>
   13784:	fffff7b7          	lui	a5,0xfffff
   13788:	ac878793          	addi	a5,a5,-1336 # ffffffffffffeac8 <__BSS_END__+0xfffffffffffcf298>
   1378c:	008787b3          	add	a5,a5,s0
   13790:	0007bf03          	ld	t5,0(a5)
   13794:	fffff7b7          	lui	a5,0xfffff
   13798:	ac078793          	addi	a5,a5,-1344 # ffffffffffffeac0 <__BSS_END__+0xfffffffffffcf290>
   1379c:	008787b3          	add	a5,a5,s0
   137a0:	0007b883          	ld	a7,0(a5)
   137a4:	fffff7b7          	lui	a5,0xfffff
   137a8:	aa878793          	addi	a5,a5,-1368 # ffffffffffffeaa8 <__BSS_END__+0xfffffffffffcf278>
   137ac:	008787b3          	add	a5,a5,s0
   137b0:	0007b683          	ld	a3,0(a5)
   137b4:	00050c13          	mv	s8,a0
   137b8:	fc050463          	beqz	a0,12f80 <__svfscanf_r+0x3a0>
   137bc:	fffff7b7          	lui	a5,0xfffff
   137c0:	ae878793          	addi	a5,a5,-1304 # ffffffffffffeae8 <__BSS_END__+0xfffffffffffcf2b8>
   137c4:	008787b3          	add	a5,a5,s0
   137c8:	0007b783          	ld	a5,0(a5)
   137cc:	00af3023          	sd	a0,0(t5)
   137d0:	0087d703          	lhu	a4,8(a5)
   137d4:	00a7d983          	lhu	s3,10(a5)
   137d8:	0007059b          	sext.w	a1,a4
   137dc:	00e9e463          	bltu	s3,a4,137e4 <__svfscanf_r+0xc04>
   137e0:	69c0106f          	j	14e7c <__svfscanf_r+0x229c>
   137e4:	0007b503          	ld	a0,0(a5)
   137e8:	fffff7b7          	lui	a5,0xfffff
   137ec:	ae878793          	addi	a5,a5,-1304 # ffffffffffffeae8 <__BSS_END__+0xfffffffffffcf2b8>
   137f0:	008787b3          	add	a5,a5,s0
   137f4:	0007b783          	ld	a5,0(a5)
   137f8:	00399713          	slli	a4,s3,0x3
   137fc:	0019899b          	addiw	s3,s3,1
   13800:	01379523          	sh	s3,10(a5)
   13804:	fffff7b7          	lui	a5,0xfffff
   13808:	00e50533          	add	a0,a0,a4
   1380c:	aa078793          	addi	a5,a5,-1376 # ffffffffffffeaa0 <__BSS_END__+0xfffffffffffcf270>
   13810:	fffff737          	lui	a4,0xfffff
   13814:	008787b3          	add	a5,a5,s0
   13818:	a9870713          	addi	a4,a4,-1384 # ffffffffffffea98 <__BSS_END__+0xfffffffffffcf268>
   1381c:	0187b023          	sd	s8,0(a5)
   13820:	00870733          	add	a4,a4,s0
   13824:	02000793          	li	a5,32
   13828:	01e53023          	sd	t5,0(a0)
   1382c:	00f73023          	sd	a5,0(a4)
   13830:	fffffb37          	lui	s6,0xfffff
   13834:	b88b0b93          	addi	s7,s6,-1144 # ffffffffffffeb88 <__BSS_END__+0xfffffffffffcf358>
   13838:	f90b0713          	addi	a4,s6,-112
   1383c:	c90b0793          	addi	a5,s6,-880
   13840:	00870b33          	add	s6,a4,s0
   13844:	f90b8713          	addi	a4,s7,-112
   13848:	00870bb3          	add	s7,a4,s0
   1384c:	fffff737          	lui	a4,0xfffff
   13850:	f9078793          	addi	a5,a5,-112
   13854:	ac870713          	addi	a4,a4,-1336 # ffffffffffffeac8 <__BSS_END__+0xfffffffffffcf298>
   13858:	008787b3          	add	a5,a5,s0
   1385c:	00870733          	add	a4,a4,s0
   13860:	00f73023          	sd	a5,0(a4)
   13864:	fffff7b7          	lui	a5,0xfffff
   13868:	a9078793          	addi	a5,a5,-1392 # ffffffffffffea90 <__BSS_END__+0xfffffffffffcf260>
   1386c:	008787b3          	add	a5,a5,s0
   13870:	0117b023          	sd	a7,0(a5)
   13874:	fffff7b7          	lui	a5,0xfffff
   13878:	aa878793          	addi	a5,a5,-1368 # ffffffffffffeaa8 <__BSS_END__+0xfffffffffffcf278>
   1387c:	008787b3          	add	a5,a5,s0
   13880:	01e7b023          	sd	t5,0(a5)
   13884:	fffff7b7          	lui	a5,0xfffff
   13888:	ac078793          	addi	a5,a5,-1344 # ffffffffffffeac0 <__BSS_END__+0xfffffffffffcf290>
   1388c:	008787b3          	add	a5,a5,s0
   13890:	00000993          	li	s3,0
   13894:	00300c93          	li	s9,3
   13898:	00d7b023          	sd	a3,0(a5)
   1389c:	3a0060ef          	jal	ra,19c3c <__locale_mb_cur_max>
   138a0:	ed350063          	beq	a0,s3,12f60 <__svfscanf_r+0x380>
   138a4:	000d3703          	ld	a4,0(s10)
   138a8:	008d2683          	lw	a3,8(s10)
   138ac:	013b0633          	add	a2,s6,s3
   138b0:	00074583          	lbu	a1,0(a4)
   138b4:	fff6869b          	addiw	a3,a3,-1
   138b8:	00170713          	addi	a4,a4,1
   138bc:	0019899b          	addiw	s3,s3,1
   138c0:	c8b60823          	sb	a1,-880(a2)
   138c4:	00dd2423          	sw	a3,8(s10)
   138c8:	00ed3023          	sd	a4,0(s10)
   138cc:	00098a93          	mv	s5,s3
   138d0:	01949863          	bne	s1,s9,138e0 <__svfscanf_r+0xd00>
   138d4:	b88b2783          	lw	a5,-1144(s6)
   138d8:	00400713          	li	a4,4
   138dc:	00e78a63          	beq	a5,a4,138f0 <__svfscanf_r+0xd10>
   138e0:	00800613          	li	a2,8
   138e4:	00000593          	li	a1,0
   138e8:	000b8513          	mv	a0,s7
   138ec:	9edfc0ef          	jal	ra,102d8 <memset>
   138f0:	fffff7b7          	lui	a5,0xfffff
   138f4:	ac878793          	addi	a5,a5,-1336 # ffffffffffffeac8 <__BSS_END__+0xfffffffffffcf298>
   138f8:	008787b3          	add	a5,a5,s0
   138fc:	0007b603          	ld	a2,0(a5)
   13900:	fffff7b7          	lui	a5,0xfffff
   13904:	af878793          	addi	a5,a5,-1288 # ffffffffffffeaf8 <__BSS_END__+0xfffffffffffcf2c8>
   13908:	008787b3          	add	a5,a5,s0
   1390c:	0007b503          	ld	a0,0(a5)
   13910:	000b8713          	mv	a4,s7
   13914:	00098693          	mv	a3,s3
   13918:	000c0593          	mv	a1,s8
   1391c:	601060ef          	jal	ra,1a71c <_mbrtowc_r>
   13920:	fff00713          	li	a4,-1
   13924:	00050493          	mv	s1,a0
   13928:	e2e50c63          	beq	a0,a4,12f60 <__svfscanf_r+0x380>
   1392c:	00050463          	beqz	a0,13934 <__svfscanf_r+0xd54>
   13930:	7900106f          	j	150c0 <__svfscanf_r+0x24e0>
   13934:	fffff7b7          	lui	a5,0xfffff
   13938:	ac078793          	addi	a5,a5,-1344 # ffffffffffffeac0 <__BSS_END__+0xfffffffffffcf290>
   1393c:	008787b3          	add	a5,a5,s0
   13940:	0007b783          	ld	a5,0(a5)
   13944:	01ba8dbb          	addw	s11,s5,s11
   13948:	fffa0a13          	addi	s4,s4,-1
   1394c:	00078463          	beqz	a5,13954 <__svfscanf_r+0xd74>
   13950:	7ac0106f          	j	150fc <__svfscanf_r+0x251c>
   13954:	000c2023          	sw	zero,0(s8)
   13958:	fffff7b7          	lui	a5,0xfffff
   1395c:	aa878793          	addi	a5,a5,-1368 # ffffffffffffeaa8 <__BSS_END__+0xfffffffffffcf278>
   13960:	008787b3          	add	a5,a5,s0
   13964:	0007b783          	ld	a5,0(a5)
   13968:	02078a63          	beqz	a5,1399c <__svfscanf_r+0xdbc>
   1396c:	fffff7b7          	lui	a5,0xfffff
   13970:	aa078793          	addi	a5,a5,-1376 # ffffffffffffeaa0 <__BSS_END__+0xfffffffffffcf270>
   13974:	008787b3          	add	a5,a5,s0
   13978:	0007b783          	ld	a5,0(a5)
   1397c:	40fc09b3          	sub	s3,s8,a5
   13980:	fffff7b7          	lui	a5,0xfffff
   13984:	a9878793          	addi	a5,a5,-1384 # ffffffffffffea98 <__BSS_END__+0xfffffffffffcf268>
   13988:	008787b3          	add	a5,a5,s0
   1398c:	0007b783          	ld	a5,0(a5)
   13990:	4029d713          	srai	a4,s3,0x2
   13994:	00f76463          	bltu	a4,a5,1399c <__svfscanf_r+0xdbc>
   13998:	0990106f          	j	15230 <__svfscanf_r+0x2650>
   1399c:	004c0c13          	addi	s8,s8,4
   139a0:	00000993          	li	s3,0
   139a4:	008d2703          	lw	a4,8(s10)
   139a8:	00e04463          	bgtz	a4,139b0 <__svfscanf_r+0xdd0>
   139ac:	4740106f          	j	14e20 <__svfscanf_r+0x2240>
   139b0:	ee0a16e3          	bnez	s4,1389c <__svfscanf_r+0xcbc>
   139b4:	fffff7b7          	lui	a5,0xfffff
   139b8:	a9078793          	addi	a5,a5,-1392 # ffffffffffffea90 <__BSS_END__+0xfffffffffffcf260>
   139bc:	008787b3          	add	a5,a5,s0
   139c0:	0007b883          	ld	a7,0(a5)
   139c4:	fffff7b7          	lui	a5,0xfffff
   139c8:	aa878793          	addi	a5,a5,-1368 # ffffffffffffeaa8 <__BSS_END__+0xfffffffffffcf278>
   139cc:	008787b3          	add	a5,a5,s0
   139d0:	0007bf03          	ld	t5,0(a5)
   139d4:	fffff7b7          	lui	a5,0xfffff
   139d8:	ac078793          	addi	a5,a5,-1344 # ffffffffffffeac0 <__BSS_END__+0xfffffffffffcf290>
   139dc:	008787b3          	add	a5,a5,s0
   139e0:	0007b683          	ld	a3,0(a5)
   139e4:	020f0a63          	beqz	t5,13a18 <__svfscanf_r+0xe38>
   139e8:	fffff7b7          	lui	a5,0xfffff
   139ec:	aa078793          	addi	a5,a5,-1376 # ffffffffffffeaa0 <__BSS_END__+0xfffffffffffcf270>
   139f0:	008787b3          	add	a5,a5,s0
   139f4:	0007b783          	ld	a5,0(a5)
   139f8:	40fc05b3          	sub	a1,s8,a5
   139fc:	fffff7b7          	lui	a5,0xfffff
   13a00:	a9878793          	addi	a5,a5,-1384 # ffffffffffffea98 <__BSS_END__+0xfffffffffffcf268>
   13a04:	008787b3          	add	a5,a5,s0
   13a08:	0007b783          	ld	a5,0(a5)
   13a0c:	4025d713          	srai	a4,a1,0x2
   13a10:	00f77463          	bgeu	a4,a5,13a18 <__svfscanf_r+0xe38>
   13a14:	62c0106f          	j	15040 <__svfscanf_r+0x2460>
   13a18:	c4069c63          	bnez	a3,12e70 <__svfscanf_r+0x290>
   13a1c:	4d10006f          	j	146ec <__svfscanf_r+0x1b0c>
   13a20:	000a1463          	bnez	s4,13a28 <__svfscanf_r+0xe48>
   13a24:	fff00a13          	li	s4,-1
   13a28:	001b7713          	andi	a4,s6,1
   13a2c:	010b7813          	andi	a6,s6,16
   13a30:	4e0702e3          	beqz	a4,14714 <__svfscanf_r+0x1b34>
   13a34:	00080463          	beqz	a6,13a3c <__svfscanf_r+0xe5c>
   13a38:	14d0106f          	j	15384 <__svfscanf_r+0x27a4>
   13a3c:	fffff7b7          	lui	a5,0xfffff
   13a40:	ad078793          	addi	a5,a5,-1328 # ffffffffffffead0 <__BSS_END__+0xfffffffffffcf2a0>
   13a44:	008787b3          	add	a5,a5,s0
   13a48:	0007b783          	ld	a5,0(a5)
   13a4c:	fffff6b7          	lui	a3,0xfffff
   13a50:	a9868693          	addi	a3,a3,-1384 # ffffffffffffea98 <__BSS_END__+0xfffffffffffcf268>
   13a54:	0007b703          	ld	a4,0(a5)
   13a58:	008686b3          	add	a3,a3,s0
   13a5c:	00878793          	addi	a5,a5,8
   13a60:	00e6b023          	sd	a4,0(a3)
   13a64:	fffff6b7          	lui	a3,0xfffff
   13a68:	ad068693          	addi	a3,a3,-1328 # ffffffffffffead0 <__BSS_END__+0xfffffffffffcf2a0>
   13a6c:	008686b3          	add	a3,a3,s0
   13a70:	00f6b023          	sd	a5,0(a3)
   13a74:	080b7313          	andi	t1,s6,128
   13a78:	fffff7b7          	lui	a5,0xfffff
   13a7c:	00031463          	bnez	t1,13a84 <__svfscanf_r+0xea4>
   13a80:	3c50106f          	j	15644 <__svfscanf_r+0x2a64>
   13a84:	ac078793          	addi	a5,a5,-1344 # ffffffffffffeac0 <__BSS_END__+0xfffffffffffcf290>
   13a88:	008787b3          	add	a5,a5,s0
   13a8c:	0107b023          	sd	a6,0(a5)
   13a90:	fffff7b7          	lui	a5,0xfffff
   13a94:	ac878793          	addi	a5,a5,-1336 # ffffffffffffeac8 <__BSS_END__+0xfffffffffffcf298>
   13a98:	008787b3          	add	a5,a5,s0
   13a9c:	0117b023          	sd	a7,0(a5)
   13aa0:	ae070e63          	beqz	a4,12d9c <__svfscanf_r+0x1bc>
   13aa4:	08000513          	li	a0,128
   13aa8:	480060ef          	jal	ra,19f28 <malloc>
   13aac:	fffff7b7          	lui	a5,0xfffff
   13ab0:	ac878793          	addi	a5,a5,-1336 # ffffffffffffeac8 <__BSS_END__+0xfffffffffffcf298>
   13ab4:	008787b3          	add	a5,a5,s0
   13ab8:	0007b883          	ld	a7,0(a5)
   13abc:	fffff7b7          	lui	a5,0xfffff
   13ac0:	ac078793          	addi	a5,a5,-1344 # ffffffffffffeac0 <__BSS_END__+0xfffffffffffcf290>
   13ac4:	008787b3          	add	a5,a5,s0
   13ac8:	0007b803          	ld	a6,0(a5)
   13acc:	00050c13          	mv	s8,a0
   13ad0:	ca050863          	beqz	a0,12f80 <__svfscanf_r+0x3a0>
   13ad4:	fffff7b7          	lui	a5,0xfffff
   13ad8:	ae878793          	addi	a5,a5,-1304 # ffffffffffffeae8 <__BSS_END__+0xfffffffffffcf2b8>
   13adc:	008787b3          	add	a5,a5,s0
   13ae0:	fffff6b7          	lui	a3,0xfffff
   13ae4:	0007b783          	ld	a5,0(a5)
   13ae8:	a9868693          	addi	a3,a3,-1384 # ffffffffffffea98 <__BSS_END__+0xfffffffffffcf268>
   13aec:	008686b3          	add	a3,a3,s0
   13af0:	0006b683          	ld	a3,0(a3)
   13af4:	0087d703          	lhu	a4,8(a5)
   13af8:	00a7d983          	lhu	s3,10(a5)
   13afc:	00a6b023          	sd	a0,0(a3)
   13b00:	0007061b          	sext.w	a2,a4
   13b04:	00e9e463          	bltu	s3,a4,13b0c <__svfscanf_r+0xf2c>
   13b08:	2180106f          	j	14d20 <__svfscanf_r+0x2140>
   13b0c:	0007b503          	ld	a0,0(a5)
   13b10:	fffff7b7          	lui	a5,0xfffff
   13b14:	ae878793          	addi	a5,a5,-1304 # ffffffffffffeae8 <__BSS_END__+0xfffffffffffcf2b8>
   13b18:	008787b3          	add	a5,a5,s0
   13b1c:	0007b783          	ld	a5,0(a5)
   13b20:	00399713          	slli	a4,s3,0x3
   13b24:	0019899b          	addiw	s3,s3,1
   13b28:	01379523          	sh	s3,10(a5)
   13b2c:	fffff7b7          	lui	a5,0xfffff
   13b30:	a9878793          	addi	a5,a5,-1384 # ffffffffffffea98 <__BSS_END__+0xfffffffffffcf268>
   13b34:	008787b3          	add	a5,a5,s0
   13b38:	0007b783          	ld	a5,0(a5)
   13b3c:	00e50533          	add	a0,a0,a4
   13b40:	fffff737          	lui	a4,0xfffff
   13b44:	00f53023          	sd	a5,0(a0)
   13b48:	fffff7b7          	lui	a5,0xfffff
   13b4c:	a9078793          	addi	a5,a5,-1392 # ffffffffffffea90 <__BSS_END__+0xfffffffffffcf260>
   13b50:	008787b3          	add	a5,a5,s0
   13b54:	a8870713          	addi	a4,a4,-1400 # ffffffffffffea88 <__BSS_END__+0xfffffffffffcf258>
   13b58:	0187b023          	sd	s8,0(a5)
   13b5c:	00870733          	add	a4,a4,s0
   13b60:	02000793          	li	a5,32
   13b64:	00f73023          	sd	a5,0(a4)
   13b68:	fffff9b7          	lui	s3,0xfffff
   13b6c:	fffff637          	lui	a2,0xfffff
   13b70:	b1098693          	addi	a3,s3,-1264 # ffffffffffffeb10 <__BSS_END__+0xfffffffffffcf2e0>
   13b74:	ac860613          	addi	a2,a2,-1336 # ffffffffffffeac8 <__BSS_END__+0xfffffffffffcf298>
   13b78:	008686b3          	add	a3,a3,s0
   13b7c:	00860633          	add	a2,a2,s0
   13b80:	00d63023          	sd	a3,0(a2)
   13b84:	fffff6b7          	lui	a3,0xfffff
   13b88:	c2098713          	addi	a4,s3,-992
   13b8c:	aa868693          	addi	a3,a3,-1368 # ffffffffffffeaa8 <__BSS_END__+0xfffffffffffcf278>
   13b90:	00870733          	add	a4,a4,s0
   13b94:	008686b3          	add	a3,a3,s0
   13b98:	00e6b023          	sd	a4,0(a3)
   13b9c:	fffff737          	lui	a4,0xfffff
   13ba0:	b1898793          	addi	a5,s3,-1256
   13ba4:	ac070713          	addi	a4,a4,-1344 # ffffffffffffeac0 <__BSS_END__+0xfffffffffffcf290>
   13ba8:	008787b3          	add	a5,a5,s0
   13bac:	00870733          	add	a4,a4,s0
   13bb0:	00f73023          	sd	a5,0(a4)
   13bb4:	fffff7b7          	lui	a5,0xfffff
   13bb8:	a8078793          	addi	a5,a5,-1408 # ffffffffffffea80 <__BSS_END__+0xfffffffffffcf250>
   13bbc:	008787b3          	add	a5,a5,s0
   13bc0:	0117b023          	sd	a7,0(a5)
   13bc4:	fffff7b7          	lui	a5,0xfffff
   13bc8:	aa078793          	addi	a5,a5,-1376 # ffffffffffffeaa0 <__BSS_END__+0xfffffffffffcf270>
   13bcc:	008787b3          	add	a5,a5,s0
   13bd0:	00000c93          	li	s9,0
   13bd4:	0107b023          	sd	a6,0(a5)
   13bd8:	064060ef          	jal	ra,19c3c <__locale_mb_cur_max>
   13bdc:	b9950263          	beq	a0,s9,12f60 <__svfscanf_r+0x380>
   13be0:	000d3703          	ld	a4,0(s10)
   13be4:	008d2683          	lw	a3,8(s10)
   13be8:	fffff537          	lui	a0,0xfffff
   13bec:	00074583          	lbu	a1,0(a4)
   13bf0:	f9050793          	addi	a5,a0,-112 # ffffffffffffef90 <__BSS_END__+0xfffffffffffcf760>
   13bf4:	008787b3          	add	a5,a5,s0
   13bf8:	00170713          	addi	a4,a4,1
   13bfc:	01978633          	add	a2,a5,s9
   13c00:	fff6869b          	addiw	a3,a3,-1
   13c04:	001c8b9b          	addiw	s7,s9,1
   13c08:	00ed3023          	sd	a4,0(s10)
   13c0c:	c8b60823          	sb	a1,-880(a2)
   13c10:	00dd2423          	sw	a3,8(s10)
   13c14:	00300713          	li	a4,3
   13c18:	000b8a93          	mv	s5,s7
   13c1c:	00e49c63          	bne	s1,a4,13c34 <__svfscanf_r+0x1054>
   13c20:	b1050793          	addi	a5,a0,-1264
   13c24:	008787b3          	add	a5,a5,s0
   13c28:	0007a703          	lw	a4,0(a5)
   13c2c:	00400793          	li	a5,4
   13c30:	02f70063          	beq	a4,a5,13c50 <__svfscanf_r+0x1070>
   13c34:	fffff7b7          	lui	a5,0xfffff
   13c38:	ac878793          	addi	a5,a5,-1336 # ffffffffffffeac8 <__BSS_END__+0xfffffffffffcf298>
   13c3c:	008787b3          	add	a5,a5,s0
   13c40:	0007b503          	ld	a0,0(a5)
   13c44:	00800613          	li	a2,8
   13c48:	00000593          	li	a1,0
   13c4c:	e8cfc0ef          	jal	ra,102d8 <memset>
   13c50:	fffff7b7          	lui	a5,0xfffff
   13c54:	ac878793          	addi	a5,a5,-1336 # ffffffffffffeac8 <__BSS_END__+0xfffffffffffcf298>
   13c58:	008787b3          	add	a5,a5,s0
   13c5c:	0007b703          	ld	a4,0(a5)
   13c60:	fffff7b7          	lui	a5,0xfffff
   13c64:	aa878793          	addi	a5,a5,-1368 # ffffffffffffeaa8 <__BSS_END__+0xfffffffffffcf278>
   13c68:	008787b3          	add	a5,a5,s0
   13c6c:	0007b603          	ld	a2,0(a5)
   13c70:	fffff7b7          	lui	a5,0xfffff
   13c74:	af878793          	addi	a5,a5,-1288 # ffffffffffffeaf8 <__BSS_END__+0xfffffffffffcf2c8>
   13c78:	008787b3          	add	a5,a5,s0
   13c7c:	0007b503          	ld	a0,0(a5)
   13c80:	000b8693          	mv	a3,s7
   13c84:	000c0593          	mv	a1,s8
   13c88:	295060ef          	jal	ra,1a71c <_mbrtowc_r>
   13c8c:	fff00693          	li	a3,-1
   13c90:	00050493          	mv	s1,a0
   13c94:	acd50663          	beq	a0,a3,12f60 <__svfscanf_r+0x380>
   13c98:	00050463          	beqz	a0,13ca0 <__svfscanf_r+0x10c0>
   13c9c:	4680106f          	j	15104 <__svfscanf_r+0x2524>
   13ca0:	000c2023          	sw	zero,0(s8)
   13ca4:	00000b13          	li	s6,0
   13ca8:	fffff7b7          	lui	a5,0xfffff
   13cac:	ac078793          	addi	a5,a5,-1344 # ffffffffffffeac0 <__BSS_END__+0xfffffffffffcf290>
   13cb0:	008787b3          	add	a5,a5,s0
   13cb4:	0007b503          	ld	a0,0(a5)
   13cb8:	00800613          	li	a2,8
   13cbc:	00000593          	li	a1,0
   13cc0:	e18fc0ef          	jal	ra,102d8 <memset>
   13cc4:	cc818693          	addi	a3,gp,-824 # 2ecf8 <__global_locale>
   13cc8:	fffff7b7          	lui	a5,0xfffff
   13ccc:	ac078793          	addi	a5,a5,-1344 # ffffffffffffeac0 <__BSS_END__+0xfffffffffffcf290>
   13cd0:	008787b3          	add	a5,a5,s0
   13cd4:	0e06b803          	ld	a6,224(a3)
   13cd8:	0007b683          	ld	a3,0(a5)
   13cdc:	b0898793          	addi	a5,s3,-1272
   13ce0:	008785b3          	add	a1,a5,s0
   13ce4:	fffff7b7          	lui	a5,0xfffff
   13ce8:	af878793          	addi	a5,a5,-1288 # ffffffffffffeaf8 <__BSS_END__+0xfffffffffffcf2c8>
   13cec:	008787b3          	add	a5,a5,s0
   13cf0:	0007b503          	ld	a0,0(a5)
   13cf4:	000b0613          	mv	a2,s6
   13cf8:	00000b13          	li	s6,0
   13cfc:	000800e7          	jalr	a6
   13d00:	00100693          	li	a3,1
   13d04:	00d51863          	bne	a0,a3,13d14 <__svfscanf_r+0x1134>
   13d08:	f9098793          	addi	a5,s3,-112
   13d0c:	00878733          	add	a4,a5,s0
   13d10:	b7874b03          	lbu	s6,-1160(a4)
   13d14:	fffff7b7          	lui	a5,0xfffff
   13d18:	f9078793          	addi	a5,a5,-112 # ffffffffffffef90 <__BSS_END__+0xfffffffffffcf760>
   13d1c:	008787b3          	add	a5,a5,s0
   13d20:	01678733          	add	a4,a5,s6
   13d24:	b9074703          	lbu	a4,-1136(a4)
   13d28:	00071463          	bnez	a4,13d30 <__svfscanf_r+0x1150>
   13d2c:	1a90106f          	j	156d4 <__svfscanf_r+0x2af4>
   13d30:	00300713          	li	a4,3
   13d34:	01ba8dbb          	addw	s11,s5,s11
   13d38:	76e486e3          	beq	s1,a4,14ca4 <__svfscanf_r+0x20c4>
   13d3c:	fffff7b7          	lui	a5,0xfffff
   13d40:	aa078793          	addi	a5,a5,-1376 # ffffffffffffeaa0 <__BSS_END__+0xfffffffffffcf270>
   13d44:	008787b3          	add	a5,a5,s0
   13d48:	0007b783          	ld	a5,0(a5)
   13d4c:	fffa0a13          	addi	s4,s4,-1
   13d50:	780790e3          	bnez	a5,14cd0 <__svfscanf_r+0x20f0>
   13d54:	fffff7b7          	lui	a5,0xfffff
   13d58:	a9878793          	addi	a5,a5,-1384 # ffffffffffffea98 <__BSS_END__+0xfffffffffffcf268>
   13d5c:	008787b3          	add	a5,a5,s0
   13d60:	0007b783          	ld	a5,0(a5)
   13d64:	004c0c13          	addi	s8,s8,4
   13d68:	760784e3          	beqz	a5,14cd0 <__svfscanf_r+0x20f0>
   13d6c:	fffff7b7          	lui	a5,0xfffff
   13d70:	a9078793          	addi	a5,a5,-1392 # ffffffffffffea90 <__BSS_END__+0xfffffffffffcf260>
   13d74:	008787b3          	add	a5,a5,s0
   13d78:	0007b783          	ld	a5,0(a5)
   13d7c:	00000c93          	li	s9,0
   13d80:	40fc0ab3          	sub	s5,s8,a5
   13d84:	fffff7b7          	lui	a5,0xfffff
   13d88:	a8878793          	addi	a5,a5,-1400 # ffffffffffffea88 <__BSS_END__+0xfffffffffffcf258>
   13d8c:	008787b3          	add	a5,a5,s0
   13d90:	0007b783          	ld	a5,0(a5)
   13d94:	402ad713          	srai	a4,s5,0x2
   13d98:	00f76463          	bltu	a4,a5,13da0 <__svfscanf_r+0x11c0>
   13d9c:	4240106f          	j	151c0 <__svfscanf_r+0x25e0>
   13da0:	008d2703          	lw	a4,8(s10)
   13da4:	72e05ce3          	blez	a4,14cdc <__svfscanf_r+0x20fc>
   13da8:	e20a18e3          	bnez	s4,13bd8 <__svfscanf_r+0xff8>
   13dac:	fffff7b7          	lui	a5,0xfffff
   13db0:	a8078793          	addi	a5,a5,-1408 # ffffffffffffea80 <__BSS_END__+0xfffffffffffcf250>
   13db4:	008787b3          	add	a5,a5,s0
   13db8:	0007b883          	ld	a7,0(a5)
   13dbc:	fffff7b7          	lui	a5,0xfffff
   13dc0:	aa078793          	addi	a5,a5,-1376 # ffffffffffffeaa0 <__BSS_END__+0xfffffffffffcf270>
   13dc4:	008787b3          	add	a5,a5,s0
   13dc8:	0007b803          	ld	a6,0(a5)
   13dcc:	8a081263          	bnez	a6,12e70 <__svfscanf_r+0x290>
   13dd0:	fffff7b7          	lui	a5,0xfffff
   13dd4:	a9878793          	addi	a5,a5,-1384 # ffffffffffffea98 <__BSS_END__+0xfffffffffffcf268>
   13dd8:	008787b3          	add	a5,a5,s0
   13ddc:	0007b783          	ld	a5,0(a5)
   13de0:	000c2023          	sw	zero,0(s8)
   13de4:	100784e3          	beqz	a5,146ec <__svfscanf_r+0x1b0c>
   13de8:	fffff7b7          	lui	a5,0xfffff
   13dec:	a9078793          	addi	a5,a5,-1392 # ffffffffffffea90 <__BSS_END__+0xfffffffffffcf260>
   13df0:	008787b3          	add	a5,a5,s0
   13df4:	0007b783          	ld	a5,0(a5)
   13df8:	40fc05b3          	sub	a1,s8,a5
   13dfc:	fffff7b7          	lui	a5,0xfffff
   13e00:	a8878793          	addi	a5,a5,-1400 # ffffffffffffea88 <__BSS_END__+0xfffffffffffcf258>
   13e04:	008787b3          	add	a5,a5,s0
   13e08:	0007b783          	ld	a5,0(a5)
   13e0c:	4025d713          	srai	a4,a1,0x2
   13e10:	00170713          	addi	a4,a4,1
   13e14:	0cf77ce3          	bgeu	a4,a5,146ec <__svfscanf_r+0x1b0c>
   13e18:	fffff7b7          	lui	a5,0xfffff
   13e1c:	ac878793          	addi	a5,a5,-1336 # ffffffffffffeac8 <__BSS_END__+0xfffffffffffcf298>
   13e20:	008787b3          	add	a5,a5,s0
   13e24:	0117b023          	sd	a7,0(a5)
   13e28:	fffff7b7          	lui	a5,0xfffff
   13e2c:	a9878793          	addi	a5,a5,-1384 # ffffffffffffea98 <__BSS_END__+0xfffffffffffcf268>
   13e30:	008787b3          	add	a5,a5,s0
   13e34:	0007b983          	ld	s3,0(a5)
   13e38:	00458593          	addi	a1,a1,4
   13e3c:	0009b503          	ld	a0,0(s3)
   13e40:	008080ef          	jal	ra,1be48 <realloc>
   13e44:	fffff7b7          	lui	a5,0xfffff
   13e48:	ac878793          	addi	a5,a5,-1336 # ffffffffffffeac8 <__BSS_END__+0xfffffffffffcf298>
   13e4c:	008787b3          	add	a5,a5,s0
   13e50:	0007b883          	ld	a7,0(a5)
   13e54:	08050ce3          	beqz	a0,146ec <__svfscanf_r+0x1b0c>
   13e58:	00a9b023          	sd	a0,0(s3)
   13e5c:	0910006f          	j	146ec <__svfscanf_r+0x1b0c>
   13e60:	fffff7b7          	lui	a5,0xfffff
   13e64:	ac878793          	addi	a5,a5,-1336 # ffffffffffffeac8 <__BSS_END__+0xfffffffffffcf298>
   13e68:	008787b3          	add	a5,a5,s0
   13e6c:	0117b023          	sd	a7,0(a5)
   13e70:	fffff7b7          	lui	a5,0xfffff
   13e74:	af878793          	addi	a5,a5,-1288 # ffffffffffffeaf8 <__BSS_END__+0xfffffffffffcf2c8>
   13e78:	008787b3          	add	a5,a5,s0
   13e7c:	0007b503          	ld	a0,0(a5)
   13e80:	780b6b93          	ori	s7,s6,1920
   13e84:	52d050ef          	jal	ra,19bb0 <_localeconv_r>
   13e88:	00053783          	ld	a5,0(a0)
   13e8c:	fffff5b7          	lui	a1,0xfffff
   13e90:	aa858593          	addi	a1,a1,-1368 # ffffffffffffeaa8 <__BSS_END__+0xfffffffffffcf278>
   13e94:	008585b3          	add	a1,a1,s0
   13e98:	00f5b023          	sd	a5,0(a1)
   13e9c:	fffff7b7          	lui	a5,0xfffff
   13ea0:	000016b7          	lui	a3,0x1
   13ea4:	ac878793          	addi	a5,a5,-1336 # ffffffffffffeac8 <__BSS_END__+0xfffffffffffcf298>
   13ea8:	008787b3          	add	a5,a5,s0
   13eac:	fffa0713          	addi	a4,s4,-1
   13eb0:	36c68613          	addi	a2,a3,876 # 136c <exit-0xed7c>
   13eb4:	0007b883          	ld	a7,0(a5)
   13eb8:	00000393          	li	t2,0
   13ebc:	00e67a63          	bgeu	a2,a4,13ed0 <__svfscanf_r+0x12f0>
   13ec0:	fffff3b7          	lui	t2,0xfffff
   13ec4:	c933839b          	addiw	t2,t2,-877 # ffffffffffffec93 <__BSS_END__+0xfffffffffffcf463>
   13ec8:	014383bb          	addw	t2,t2,s4
   13ecc:	36d68a13          	addi	s4,a3,877
   13ed0:	fffff7b7          	lui	a5,0xfffff
   13ed4:	a9078793          	addi	a5,a5,-1392 # ffffffffffffea90 <__BSS_END__+0xfffffffffffcf260>
   13ed8:	008787b3          	add	a5,a5,s0
   13edc:	0007b023          	sd	zero,0(a5)
   13ee0:	fffff7b7          	lui	a5,0xfffff
   13ee4:	aa078793          	addi	a5,a5,-1376 # ffffffffffffeaa0 <__BSS_END__+0xfffffffffffcf270>
   13ee8:	008787b3          	add	a5,a5,s0
   13eec:	0007b023          	sd	zero,0(a5)
   13ef0:	fffff7b7          	lui	a5,0xfffff
   13ef4:	ac878793          	addi	a5,a5,-1336 # ffffffffffffeac8 <__BSS_END__+0xfffffffffffcf298>
   13ef8:	008787b3          	add	a5,a5,s0
   13efc:	fffffe37          	lui	t3,0xfffff
   13f00:	0007b023          	sd	zero,0(a5)
   13f04:	c20e0793          	addi	a5,t3,-992 # ffffffffffffec20 <__BSS_END__+0xfffffffffffcf3f0>
   13f08:	00878c33          	add	s8,a5,s0
   13f0c:	fffff7b7          	lui	a5,0xfffff
   13f10:	ac078793          	addi	a5,a5,-1344 # ffffffffffffeac0 <__BSS_END__+0xfffffffffffcf290>
   13f14:	008787b3          	add	a5,a5,s0
   13f18:	0097b023          	sd	s1,0(a5)
   13f1c:	fffff7b7          	lui	a5,0xfffff
   13f20:	a9878793          	addi	a5,a5,-1384 # ffffffffffffea98 <__BSS_END__+0xfffffffffffcf268>
   13f24:	00000b13          	li	s6,0
   13f28:	00000993          	li	s3,0
   13f2c:	0002c2b7          	lui	t0,0x2c
   13f30:	008787b3          	add	a5,a5,s0
   13f34:	000b8c93          	mv	s9,s7
   13f38:	000b0493          	mv	s1,s6
   13f3c:	000a0b93          	mv	s7,s4
   13f40:	04e00f13          	li	t5,78
   13f44:	37828293          	addi	t0,t0,888 # 2c378 <blanks.1+0x2d8>
   13f48:	00200a93          	li	s5,2
   13f4c:	0077b023          	sd	t2,0(a5)
   13f50:	00098a13          	mv	s4,s3
   13f54:	00088b13          	mv	s6,a7
   13f58:	000d3703          	ld	a4,0(s10)
   13f5c:	00074583          	lbu	a1,0(a4)
   13f60:	fd55879b          	addiw	a5,a1,-43
   13f64:	0ff7f793          	zext.b	a5,a5
   13f68:	00ff6a63          	bltu	t5,a5,13f7c <__svfscanf_r+0x139c>
   13f6c:	00279793          	slli	a5,a5,0x2
   13f70:	005787b3          	add	a5,a5,t0
   13f74:	0007a783          	lw	a5,0(a5)
   13f78:	00078067          	jr	a5
   13f7c:	fffff7b7          	lui	a5,0xfffff
   13f80:	aa878793          	addi	a5,a5,-1368 # ffffffffffffeaa8 <__BSS_END__+0xfffffffffffcf278>
   13f84:	008787b3          	add	a5,a5,s0
   13f88:	0007b783          	ld	a5,0(a5)
   13f8c:	0007c783          	lbu	a5,0(a5)
   13f90:	04b79863          	bne	a5,a1,13fe0 <__svfscanf_r+0x1400>
   13f94:	200cf793          	andi	a5,s9,512
   13f98:	04078463          	beqz	a5,13fe0 <__svfscanf_r+0x1400>
   13f9c:	fffff7b7          	lui	a5,0xfffff
   13fa0:	ac878793          	addi	a5,a5,-1336 # ffffffffffffeac8 <__BSS_END__+0xfffffffffffcf298>
   13fa4:	d7fcfc93          	andi	s9,s9,-641
   13fa8:	008787b3          	add	a5,a5,s0
   13fac:	000c8c9b          	sext.w	s9,s9
   13fb0:	0147b023          	sd	s4,0(a5)
   13fb4:	00bc0023          	sb	a1,0(s8)
   13fb8:	fffb8b93          	addi	s7,s7,-1
   13fbc:	001c0c13          	addi	s8,s8,1
   13fc0:	008d2783          	lw	a5,8(s10)
   13fc4:	001d8d9b          	addiw	s11,s11,1
   13fc8:	fff7859b          	addiw	a1,a5,-1
   13fcc:	00bd2423          	sw	a1,8(s10)
   13fd0:	32b05263          	blez	a1,142f4 <__svfscanf_r+0x1714>
   13fd4:	00170713          	addi	a4,a4,1
   13fd8:	00ed3023          	sd	a4,0(s10)
   13fdc:	f60b9ee3          	bnez	s7,13f58 <__svfscanf_r+0x1378>
   13fe0:	fffff7b7          	lui	a5,0xfffff
   13fe4:	ac078793          	addi	a5,a5,-1344 # ffffffffffffeac0 <__BSS_END__+0xfffffffffffcf290>
   13fe8:	008787b3          	add	a5,a5,s0
   13fec:	000b0893          	mv	a7,s6
   13ff0:	000c8b93          	mv	s7,s9
   13ff4:	00048b13          	mv	s6,s1
   13ff8:	00098c93          	mv	s9,s3
   13ffc:	0007b483          	ld	s1,0(a5)
   14000:	000a0993          	mv	s3,s4
   14004:	0a0a0c63          	beqz	s4,140bc <__svfscanf_r+0x14dc>
   14008:	effbf313          	andi	t1,s7,-257
   1400c:	00030b9b          	sext.w	s7,t1
   14010:	0ac0006f          	j	140bc <__svfscanf_r+0x14dc>
   14014:	009987b3          	add	a5,s3,s1
   14018:	fc0794e3          	bnez	a5,13fe0 <__svfscanf_r+0x1400>
   1401c:	e7fcfc93          	andi	s9,s9,-385
   14020:	00000493          	li	s1,0
   14024:	00000993          	li	s3,0
   14028:	f8dff06f          	j	13fb4 <__svfscanf_r+0x13d4>
   1402c:	00100793          	li	a5,1
   14030:	faf998e3          	bne	s3,a5,13fe0 <__svfscanf_r+0x1400>
   14034:	00200993          	li	s3,2
   14038:	f7dff06f          	j	13fb4 <__svfscanf_r+0x13d4>
   1403c:	080cf793          	andi	a5,s9,128
   14040:	fa0780e3          	beqz	a5,13fe0 <__svfscanf_r+0x1400>
   14044:	f7fcfc93          	andi	s9,s9,-129
   14048:	f6dff06f          	j	13fb4 <__svfscanf_r+0x13d4>
   1404c:	56099c63          	bnez	s3,145c4 <__svfscanf_r+0x19e4>
   14050:	000a1a63          	bnez	s4,14064 <__svfscanf_r+0x1484>
   14054:	700cf793          	andi	a5,s9,1792
   14058:	70000513          	li	a0,1792
   1405c:	00a79463          	bne	a5,a0,14064 <__svfscanf_r+0x1484>
   14060:	5d00106f          	j	15630 <__svfscanf_r+0x2a50>
   14064:	00100793          	li	a5,1
   14068:	00f48663          	beq	s1,a5,14074 <__svfscanf_r+0x1494>
   1406c:	00400793          	li	a5,4
   14070:	f6f498e3          	bne	s1,a5,13fe0 <__svfscanf_r+0x1400>
   14074:	0014869b          	addiw	a3,s1,1
   14078:	0ff6f493          	zext.b	s1,a3
   1407c:	f39ff06f          	j	13fb4 <__svfscanf_r+0x13d4>
   14080:	52049a63          	bnez	s1,145b4 <__svfscanf_r+0x19d4>
   14084:	1a0a16e3          	bnez	s4,14a30 <__svfscanf_r+0x1e50>
   14088:	700cf793          	andi	a5,s9,1792
   1408c:	70000513          	li	a0,1792
   14090:	00a79463          	bne	a5,a0,14098 <__svfscanf_r+0x14b8>
   14094:	5900106f          	j	15624 <__svfscanf_r+0x2a44>
   14098:	fffff7b7          	lui	a5,0xfffff
   1409c:	ac078793          	addi	a5,a5,-1344 # ffffffffffffeac0 <__BSS_END__+0xfffffffffffcf290>
   140a0:	008787b3          	add	a5,a5,s0
   140a4:	000b0893          	mv	a7,s6
   140a8:	00048b13          	mv	s6,s1
   140ac:	0007b483          	ld	s1,0(a5)
   140b0:	000c8b93          	mv	s7,s9
   140b4:	00098c93          	mv	s9,s3
   140b8:	00000993          	li	s3,0
   140bc:	fffc8f9b          	addiw	t6,s9,-1
   140c0:	00100713          	li	a4,1
   140c4:	01f76463          	bltu	a4,t6,140cc <__svfscanf_r+0x14ec>
   140c8:	1f50106f          	j	15abc <__svfscanf_r+0x2edc>
   140cc:	fffb071b          	addiw	a4,s6,-1
   140d0:	00600693          	li	a3,6
   140d4:	1ee6f6e3          	bgeu	a3,a4,14ac0 <__svfscanf_r+0x1ee0>
   140d8:	100bf713          	andi	a4,s7,256
   140dc:	06070663          	beqz	a4,14148 <__svfscanf_r+0x1568>
   140e0:	400bf713          	andi	a4,s7,1024
   140e4:	00070463          	beqz	a4,140ec <__svfscanf_r+0x150c>
   140e8:	2710106f          	j	15b58 <__svfscanf_r+0x2f78>
   140ec:	fffc4583          	lbu	a1,-1(s8)
   140f0:	06500713          	li	a4,101
   140f4:	fffc0a13          	addi	s4,s8,-1
   140f8:	fffd8a9b          	addiw	s5,s11,-1
   140fc:	00e58663          	beq	a1,a4,14108 <__svfscanf_r+0x1528>
   14100:	04500713          	li	a4,69
   14104:	2ee596e3          	bne	a1,a4,14bf0 <__svfscanf_r+0x2010>
   14108:	fffff7b7          	lui	a5,0xfffff
   1410c:	ac078793          	addi	a5,a5,-1344 # ffffffffffffeac0 <__BSS_END__+0xfffffffffffcf290>
   14110:	008787b3          	add	a5,a5,s0
   14114:	0117b023          	sd	a7,0(a5)
   14118:	fffff7b7          	lui	a5,0xfffff
   1411c:	af878793          	addi	a5,a5,-1288 # ffffffffffffeaf8 <__BSS_END__+0xfffffffffffcf2c8>
   14120:	008787b3          	add	a5,a5,s0
   14124:	0007b503          	ld	a0,0(a5)
   14128:	000d0613          	mv	a2,s10
   1412c:	000a8d93          	mv	s11,s5
   14130:	5c80d0ef          	jal	ra,216f8 <_ungetc_r>
   14134:	fffff7b7          	lui	a5,0xfffff
   14138:	ac078793          	addi	a5,a5,-1344 # ffffffffffffeac0 <__BSS_END__+0xfffffffffffcf290>
   1413c:	008787b3          	add	a5,a5,s0
   14140:	0007b883          	ld	a7,0(a5)
   14144:	000a0c13          	mv	s8,s4
   14148:	010bf713          	andi	a4,s7,16
   1414c:	00070463          	beqz	a4,14154 <__svfscanf_r+0x1574>
   14150:	d21fe06f          	j	12e70 <__svfscanf_r+0x290>
   14154:	000c0023          	sb	zero,0(s8)
   14158:	600bf713          	andi	a4,s7,1536
   1415c:	40000693          	li	a3,1024
   14160:	fffff7b7          	lui	a5,0xfffff
   14164:	00d71463          	bne	a4,a3,1416c <__svfscanf_r+0x158c>
   14168:	2040106f          	j	1536c <__svfscanf_r+0x278c>
   1416c:	aa078793          	addi	a5,a5,-1376 # ffffffffffffeaa0 <__BSS_END__+0xfffffffffffcf270>
   14170:	008787b3          	add	a5,a5,s0
   14174:	0007b783          	ld	a5,0(a5)
   14178:	5e0796e3          	bnez	a5,14f64 <__svfscanf_r+0x2384>
   1417c:	fffff7b7          	lui	a5,0xfffff
   14180:	ad078793          	addi	a5,a5,-1328 # ffffffffffffead0 <__BSS_END__+0xfffffffffffcf2a0>
   14184:	008787b3          	add	a5,a5,s0
   14188:	0007b783          	ld	a5,0(a5)
   1418c:	fffff5b7          	lui	a1,0xfffff
   14190:	002bf713          	andi	a4,s7,2
   14194:	00878b13          	addi	s6,a5,8
   14198:	fffff7b7          	lui	a5,0xfffff
   1419c:	ac878793          	addi	a5,a5,-1336 # ffffffffffffeac8 <__BSS_END__+0xfffffffffffcf298>
   141a0:	008787b3          	add	a5,a5,s0
   141a4:	0117b023          	sd	a7,0(a5)
   141a8:	c2058793          	addi	a5,a1,-992 # ffffffffffffec20 <__BSS_END__+0xfffffffffffcf3f0>
   141ac:	008785b3          	add	a1,a5,s0
   141b0:	fffff7b7          	lui	a5,0xfffff
   141b4:	af878793          	addi	a5,a5,-1288 # ffffffffffffeaf8 <__BSS_END__+0xfffffffffffcf2c8>
   141b8:	008787b3          	add	a5,a5,s0
   141bc:	0007b503          	ld	a0,0(a5)
   141c0:	001bfb93          	andi	s7,s7,1
   141c4:	00000613          	li	a2,0
   141c8:	14070ce3          	beqz	a4,14b20 <__svfscanf_r+0x1f40>
   141cc:	2180a0ef          	jal	ra,1e3e4 <_strtold_r>
   141d0:	fffff7b7          	lui	a5,0xfffff
   141d4:	ac878793          	addi	a5,a5,-1336 # ffffffffffffeac8 <__BSS_END__+0xfffffffffffcf298>
   141d8:	008787b3          	add	a5,a5,s0
   141dc:	0007b883          	ld	a7,0(a5)
   141e0:	560b82e3          	beqz	s7,14f44 <__svfscanf_r+0x2364>
   141e4:	00000993          	li	s3,0
   141e8:	fffff7b7          	lui	a5,0xfffff
   141ec:	ad078793          	addi	a5,a5,-1328 # ffffffffffffead0 <__BSS_END__+0xfffffffffffcf2a0>
   141f0:	008787b3          	add	a5,a5,s0
   141f4:	0007b783          	ld	a5,0(a5)
   141f8:	0007b703          	ld	a4,0(a5)
   141fc:	01373023          	sd	s3,0(a4)
   14200:	fffff7b7          	lui	a5,0xfffff
   14204:	ae078793          	addi	a5,a5,-1312 # ffffffffffffeae0 <__BSS_END__+0xfffffffffffcf2b0>
   14208:	008787b3          	add	a5,a5,s0
   1420c:	0007b783          	ld	a5,0(a5)
   14210:	fffff737          	lui	a4,0xfffff
   14214:	ae070713          	addi	a4,a4,-1312 # ffffffffffffeae0 <__BSS_END__+0xfffffffffffcf2b0>
   14218:	0017879b          	addiw	a5,a5,1
   1421c:	00870733          	add	a4,a4,s0
   14220:	00f73023          	sd	a5,0(a4)
   14224:	fffff7b7          	lui	a5,0xfffff
   14228:	ad078793          	addi	a5,a5,-1328 # ffffffffffffead0 <__BSS_END__+0xfffffffffffcf2a0>
   1422c:	008787b3          	add	a5,a5,s0
   14230:	0167b023          	sd	s6,0(a5)
   14234:	c3dfe06f          	j	12e70 <__svfscanf_r+0x290>
   14238:	db5494e3          	bne	s1,s5,13fe0 <__svfscanf_r+0x1400>
   1423c:	00300493          	li	s1,3
   14240:	d75ff06f          	j	13fb4 <__svfscanf_r+0x13d4>
   14244:	500cf793          	andi	a5,s9,1280
   14248:	40000693          	li	a3,1024
   1424c:	00d78863          	beq	a5,a3,1425c <__svfscanf_r+0x167c>
   14250:	400cf793          	andi	a5,s9,1024
   14254:	d80786e3          	beqz	a5,13fe0 <__svfscanf_r+0x1400>
   14258:	e40a00e3          	beqz	s4,14098 <__svfscanf_r+0x14b8>
   1425c:	200cf793          	andi	a5,s9,512
   14260:	02079c63          	bnez	a5,14298 <__svfscanf_r+0x16b8>
   14264:	fffff7b7          	lui	a5,0xfffff
   14268:	ac878793          	addi	a5,a5,-1336 # ffffffffffffeac8 <__BSS_END__+0xfffffffffffcf298>
   1426c:	008787b3          	add	a5,a5,s0
   14270:	0007b783          	ld	a5,0(a5)
   14274:	fffff6b7          	lui	a3,0xfffff
   14278:	aa068693          	addi	a3,a3,-1376 # ffffffffffffeaa0 <__BSS_END__+0xfffffffffffcf270>
   1427c:	40fa07b3          	sub	a5,s4,a5
   14280:	008686b3          	add	a3,a3,s0
   14284:	00f6b023          	sd	a5,0(a3)
   14288:	fffff7b7          	lui	a5,0xfffff
   1428c:	a9078793          	addi	a5,a5,-1392 # ffffffffffffea90 <__BSS_END__+0xfffffffffffcf260>
   14290:	008787b3          	add	a5,a5,s0
   14294:	0187b023          	sd	s8,0(a5)
   14298:	87fcfc93          	andi	s9,s9,-1921
   1429c:	180cec93          	ori	s9,s9,384
   142a0:	00000a13          	li	s4,0
   142a4:	d11ff06f          	j	13fb4 <__svfscanf_r+0x13d4>
   142a8:	00700793          	li	a5,7
   142ac:	d2f49ae3          	bne	s1,a5,13fe0 <__svfscanf_r+0x1400>
   142b0:	00800493          	li	s1,8
   142b4:	d01ff06f          	j	13fb4 <__svfscanf_r+0x13d4>
   142b8:	00600793          	li	a5,6
   142bc:	d2f492e3          	bne	s1,a5,13fe0 <__svfscanf_r+0x1400>
   142c0:	00700493          	li	s1,7
   142c4:	cf1ff06f          	j	13fb4 <__svfscanf_r+0x13d4>
   142c8:	100cf793          	andi	a5,s9,256
   142cc:	d40784e3          	beqz	a5,14014 <__svfscanf_r+0x1434>
   142d0:	fffff7b7          	lui	a5,0xfffff
   142d4:	a9878793          	addi	a5,a5,-1384 # ffffffffffffea98 <__BSS_END__+0xfffffffffffcf268>
   142d8:	008787b3          	add	a5,a5,s0
   142dc:	0007b783          	ld	a5,0(a5)
   142e0:	f7fcfc93          	andi	s9,s9,-129
   142e4:	001a0a13          	addi	s4,s4,1
   142e8:	76079c63          	bnez	a5,14a60 <__svfscanf_r+0x1e80>
   142ec:	fffb8b93          	addi	s7,s7,-1
   142f0:	cd1ff06f          	j	13fc0 <__svfscanf_r+0x13e0>
   142f4:	fffff7b7          	lui	a5,0xfffff
   142f8:	af878793          	addi	a5,a5,-1288 # ffffffffffffeaf8 <__BSS_END__+0xfffffffffffcf2c8>
   142fc:	008787b3          	add	a5,a5,s0
   14300:	0007b503          	ld	a0,0(a5)
   14304:	000d0593          	mv	a1,s10
   14308:	0d0080ef          	jal	ra,1c3d8 <__srefill_r>
   1430c:	0002c7b7          	lui	a5,0x2c
   14310:	04e00f13          	li	t5,78
   14314:	37878293          	addi	t0,a5,888 # 2c378 <blanks.1+0x2d8>
   14318:	cc0514e3          	bnez	a0,13fe0 <__svfscanf_r+0x1400>
   1431c:	c20b9ee3          	bnez	s7,13f58 <__svfscanf_r+0x1378>
   14320:	cc1ff06f          	j	13fe0 <__svfscanf_r+0x1400>
   14324:	00a00793          	li	a5,10
   14328:	0347dc63          	bge	a5,s4,14360 <__svfscanf_r+0x1780>
   1432c:	fffff7b7          	lui	a5,0xfffff
   14330:	47f78793          	addi	a5,a5,1151 # fffffffffffff47f <__BSS_END__+0xfffffffffffcfc4f>
   14334:	00fbfbb3          	and	s7,s7,a5
   14338:	00db0023          	sb	a3,0(s6)
   1433c:	001b0b13          	addi	s6,s6,1
   14340:	008d2783          	lw	a5,8(s10)
   14344:	fff7869b          	addiw	a3,a5,-1
   14348:	00dd2423          	sw	a3,8(s10)
   1434c:	1ad05a63          	blez	a3,14500 <__svfscanf_r+0x1920>
   14350:	00170713          	addi	a4,a4,1
   14354:	00ed3023          	sd	a4,0(s10)
   14358:	fff48493          	addi	s1,s1,-1
   1435c:	9c049063          	bnez	s1,1351c <__svfscanf_r+0x93c>
   14360:	fffff7b7          	lui	a5,0xfffff
   14364:	ab878793          	addi	a5,a5,-1352 # ffffffffffffeab8 <__BSS_END__+0xfffffffffffcf288>
   14368:	008787b3          	add	a5,a5,s0
   1436c:	0147b023          	sd	s4,0(a5)
   14370:	100bf713          	andi	a4,s7,256
   14374:	000d8493          	mv	s1,s11
   14378:	000a8893          	mv	a7,s5
   1437c:	00060d93          	mv	s11,a2
   14380:	02070663          	beqz	a4,143ac <__svfscanf_r+0x17cc>
   14384:	fffff737          	lui	a4,0xfffff
   14388:	c2070793          	addi	a5,a4,-992 # ffffffffffffec20 <__BSS_END__+0xfffffffffffcf3f0>
   1438c:	00878733          	add	a4,a5,s0
   14390:	01677463          	bgeu	a4,s6,14398 <__svfscanf_r+0x17b8>
   14394:	7950006f          	j	15328 <__svfscanf_r+0x2748>
   14398:	fffff737          	lui	a4,0xfffff
   1439c:	c2070793          	addi	a5,a4,-992 # ffffffffffffec20 <__BSS_END__+0xfffffffffffcf3f0>
   143a0:	00878733          	add	a4,a5,s0
   143a4:	00eb1463          	bne	s6,a4,143ac <__svfscanf_r+0x17cc>
   143a8:	9f5fe06f          	j	12d9c <__svfscanf_r+0x1bc>
   143ac:	010bf713          	andi	a4,s7,16
   143b0:	1e071463          	bnez	a4,14598 <__svfscanf_r+0x19b8>
   143b4:	fffff7b7          	lui	a5,0xfffff
   143b8:	ac878793          	addi	a5,a5,-1336 # ffffffffffffeac8 <__BSS_END__+0xfffffffffffcf298>
   143bc:	008787b3          	add	a5,a5,s0
   143c0:	fffffc37          	lui	s8,0xfffff
   143c4:	0117b023          	sd	a7,0(a5)
   143c8:	c20c0793          	addi	a5,s8,-992 # ffffffffffffec20 <__BSS_END__+0xfffffffffffcf3f0>
   143cc:	00878c33          	add	s8,a5,s0
   143d0:	fffff7b7          	lui	a5,0xfffff
   143d4:	ab878793          	addi	a5,a5,-1352 # ffffffffffffeab8 <__BSS_END__+0xfffffffffffcf288>
   143d8:	008787b3          	add	a5,a5,s0
   143dc:	0007b683          	ld	a3,0(a5)
   143e0:	fffff7b7          	lui	a5,0xfffff
   143e4:	af878793          	addi	a5,a5,-1288 # ffffffffffffeaf8 <__BSS_END__+0xfffffffffffcf2c8>
   143e8:	008787b3          	add	a5,a5,s0
   143ec:	0007b503          	ld	a0,0(a5)
   143f0:	fffff7b7          	lui	a5,0xfffff
   143f4:	ab078793          	addi	a5,a5,-1360 # ffffffffffffeab0 <__BSS_END__+0xfffffffffffcf280>
   143f8:	008787b3          	add	a5,a5,s0
   143fc:	0007b783          	ld	a5,0(a5)
   14400:	000b0023          	sb	zero,0(s6)
   14404:	00000613          	li	a2,0
   14408:	000c0593          	mv	a1,s8
   1440c:	000780e7          	jalr	a5
   14410:	fffff7b7          	lui	a5,0xfffff
   14414:	ad078793          	addi	a5,a5,-1328 # ffffffffffffead0 <__BSS_END__+0xfffffffffffcf2a0>
   14418:	008787b3          	add	a5,a5,s0
   1441c:	0007b783          	ld	a5,0(a5)
   14420:	fffff6b7          	lui	a3,0xfffff
   14424:	ac868693          	addi	a3,a3,-1336 # ffffffffffffeac8 <__BSS_END__+0xfffffffffffcf298>
   14428:	008686b3          	add	a3,a3,s0
   1442c:	020bf713          	andi	a4,s7,32
   14430:	0006b883          	ld	a7,0(a3)
   14434:	00878c93          	addi	s9,a5,8
   14438:	12071263          	bnez	a4,1455c <__svfscanf_r+0x197c>
   1443c:	008bf713          	andi	a4,s7,8
   14440:	2e0714e3          	bnez	a4,14f28 <__svfscanf_r+0x2348>
   14444:	004bf713          	andi	a4,s7,4
   14448:	0e070c63          	beqz	a4,14540 <__svfscanf_r+0x1960>
   1444c:	fffff7b7          	lui	a5,0xfffff
   14450:	ad078793          	addi	a5,a5,-1328 # ffffffffffffead0 <__BSS_END__+0xfffffffffffcf2a0>
   14454:	008787b3          	add	a5,a5,s0
   14458:	0007b783          	ld	a5,0(a5)
   1445c:	0007b703          	ld	a4,0(a5)
   14460:	00a71023          	sh	a0,0(a4)
   14464:	1000006f          	j	14564 <__svfscanf_r+0x1984>
   14468:	0002c7b7          	lui	a5,0x2c
   1446c:	001a1a13          	slli	s4,s4,0x1
   14470:	4b878793          	addi	a5,a5,1208 # 2c4b8 <basefix.0>
   14474:	014787b3          	add	a5,a5,s4
   14478:	00079a03          	lh	s4,0(a5)
   1447c:	fffff7b7          	lui	a5,0xfffff
   14480:	47f78793          	addi	a5,a5,1151 # fffffffffffff47f <__BSS_END__+0xfffffffffffcfc4f>
   14484:	00fbfbb3          	and	s7,s7,a5
   14488:	eb1ff06f          	j	14338 <__svfscanf_r+0x1758>
   1448c:	600bf793          	andi	a5,s7,1536
   14490:	20000593          	li	a1,512
   14494:	ecb796e3          	bne	a5,a1,14360 <__svfscanf_r+0x1780>
   14498:	dffbfb93          	andi	s7,s7,-513
   1449c:	500beb93          	ori	s7,s7,1280
   144a0:	01000a13          	li	s4,16
   144a4:	e95ff06f          	j	14338 <__svfscanf_r+0x1758>
   144a8:	080bf793          	andi	a5,s7,128
   144ac:	ea078ae3          	beqz	a5,14360 <__svfscanf_r+0x1780>
   144b0:	f7fbfb93          	andi	s7,s7,-129
   144b4:	e85ff06f          	j	14338 <__svfscanf_r+0x1758>
   144b8:	0002c7b7          	lui	a5,0x2c
   144bc:	001a1a13          	slli	s4,s4,0x1
   144c0:	4b878793          	addi	a5,a5,1208 # 2c4b8 <basefix.0>
   144c4:	014787b3          	add	a5,a5,s4
   144c8:	00079a03          	lh	s4,0(a5)
   144cc:	00800793          	li	a5,8
   144d0:	e547cee3          	blt	a5,s4,1432c <__svfscanf_r+0x174c>
   144d4:	e8dff06f          	j	14360 <__svfscanf_r+0x1780>
   144d8:	00bbd793          	srli	a5,s7,0xb
   144dc:	0017f793          	andi	a5,a5,1
   144e0:	e4078ce3          	beqz	a5,14338 <__svfscanf_r+0x1758>
   144e4:	000a1663          	bnez	s4,144f0 <__svfscanf_r+0x1910>
   144e8:	200beb93          	ori	s7,s7,512
   144ec:	00800a13          	li	s4,8
   144f0:	400bf793          	andi	a5,s7,1024
   144f4:	58078a63          	beqz	a5,14a88 <__svfscanf_r+0x1ea8>
   144f8:	a7fbfb93          	andi	s7,s7,-1409
   144fc:	e3dff06f          	j	14338 <__svfscanf_r+0x1758>
   14500:	fffff7b7          	lui	a5,0xfffff
   14504:	ac878793          	addi	a5,a5,-1336 # ffffffffffffeac8 <__BSS_END__+0xfffffffffffcf298>
   14508:	008787b3          	add	a5,a5,s0
   1450c:	00c7b023          	sd	a2,0(a5)
   14510:	fffff7b7          	lui	a5,0xfffff
   14514:	af878793          	addi	a5,a5,-1288 # ffffffffffffeaf8 <__BSS_END__+0xfffffffffffcf2c8>
   14518:	008787b3          	add	a5,a5,s0
   1451c:	0007b503          	ld	a0,0(a5)
   14520:	000d0593          	mv	a1,s10
   14524:	6b5070ef          	jal	ra,1c3d8 <__srefill_r>
   14528:	fffff7b7          	lui	a5,0xfffff
   1452c:	ac878793          	addi	a5,a5,-1336 # ffffffffffffeac8 <__BSS_END__+0xfffffffffffcf298>
   14530:	008787b3          	add	a5,a5,s0
   14534:	0007b603          	ld	a2,0(a5)
   14538:	e20500e3          	beqz	a0,14358 <__svfscanf_r+0x1778>
   1453c:	e25ff06f          	j	14360 <__svfscanf_r+0x1780>
   14540:	001bf713          	andi	a4,s7,1
   14544:	00071463          	bnez	a4,1454c <__svfscanf_r+0x196c>
   14548:	41c0106f          	j	15964 <__svfscanf_r+0x2d84>
   1454c:	fffff7b7          	lui	a5,0xfffff
   14550:	ad078793          	addi	a5,a5,-1328 # ffffffffffffead0 <__BSS_END__+0xfffffffffffcf2a0>
   14554:	008787b3          	add	a5,a5,s0
   14558:	0007b783          	ld	a5,0(a5)
   1455c:	0007b703          	ld	a4,0(a5)
   14560:	00a73023          	sd	a0,0(a4)
   14564:	fffff7b7          	lui	a5,0xfffff
   14568:	ae078793          	addi	a5,a5,-1312 # ffffffffffffeae0 <__BSS_END__+0xfffffffffffcf2b0>
   1456c:	008787b3          	add	a5,a5,s0
   14570:	0007b783          	ld	a5,0(a5)
   14574:	fffff737          	lui	a4,0xfffff
   14578:	ae070713          	addi	a4,a4,-1312 # ffffffffffffeae0 <__BSS_END__+0xfffffffffffcf2b0>
   1457c:	0017879b          	addiw	a5,a5,1
   14580:	00870733          	add	a4,a4,s0
   14584:	00f73023          	sd	a5,0(a4)
   14588:	fffff7b7          	lui	a5,0xfffff
   1458c:	ad078793          	addi	a5,a5,-1328 # ffffffffffffead0 <__BSS_END__+0xfffffffffffcf2a0>
   14590:	008787b3          	add	a5,a5,s0
   14594:	0197b023          	sd	s9,0(a5)
   14598:	fffff737          	lui	a4,0xfffff
   1459c:	c2070793          	addi	a5,a4,-992 # ffffffffffffec20 <__BSS_END__+0xfffffffffffcf3f0>
   145a0:	00878733          	add	a4,a5,s0
   145a4:	40eb0b33          	sub	s6,s6,a4
   145a8:	01b989bb          	addw	s3,s3,s11
   145ac:	01698dbb          	addw	s11,s3,s6
   145b0:	8c1fe06f          	j	12e70 <__svfscanf_r+0x290>
   145b4:	ffd4879b          	addiw	a5,s1,-3
   145b8:	0fd7f793          	andi	a5,a5,253
   145bc:	a20792e3          	bnez	a5,13fe0 <__svfscanf_r+0x1400>
   145c0:	ab5ff06f          	j	14074 <__svfscanf_r+0x1494>
   145c4:	00200793          	li	a5,2
   145c8:	a8f99ee3          	bne	s3,a5,14064 <__svfscanf_r+0x1484>
   145cc:	00300993          	li	s3,3
   145d0:	9e5ff06f          	j	13fb4 <__svfscanf_r+0x13d4>
   145d4:	5e0698e3          	bnez	a3,153c4 <__svfscanf_r+0x27e4>
   145d8:	fffff7b7          	lui	a5,0xfffff
   145dc:	ad078793          	addi	a5,a5,-1328 # ffffffffffffead0 <__BSS_END__+0xfffffffffffcf2a0>
   145e0:	008787b3          	add	a5,a5,s0
   145e4:	0007b783          	ld	a5,0(a5)
   145e8:	fffff737          	lui	a4,0xfffff
   145ec:	ad070713          	addi	a4,a4,-1328 # ffffffffffffead0 <__BSS_END__+0xfffffffffffcf2a0>
   145f0:	0007bb83          	ld	s7,0(a5)
   145f4:	00870733          	add	a4,a4,s0
   145f8:	00878793          	addi	a5,a5,8
   145fc:	00f73023          	sd	a5,0(a4)
   14600:	fffff7b7          	lui	a5,0xfffff
   14604:	ac878793          	addi	a5,a5,-1336 # ffffffffffffeac8 <__BSS_END__+0xfffffffffffcf298>
   14608:	008787b3          	add	a5,a5,s0
   1460c:	080b7313          	andi	t1,s6,128
   14610:	0117b023          	sd	a7,0(a5)
   14614:	58030e63          	beqz	t1,14bb0 <__svfscanf_r+0x1fd0>
   14618:	000b9463          	bnez	s7,14620 <__svfscanf_r+0x1a40>
   1461c:	f80fe06f          	j	12d9c <__svfscanf_r+0x1bc>
   14620:	000a0513          	mv	a0,s4
   14624:	105050ef          	jal	ra,19f28 <malloc>
   14628:	00050993          	mv	s3,a0
   1462c:	00051463          	bnez	a0,14634 <__svfscanf_r+0x1a54>
   14630:	951fe06f          	j	12f80 <__svfscanf_r+0x3a0>
   14634:	fffff7b7          	lui	a5,0xfffff
   14638:	ae878793          	addi	a5,a5,-1304 # ffffffffffffeae8 <__BSS_END__+0xfffffffffffcf2b8>
   1463c:	008787b3          	add	a5,a5,s0
   14640:	0007b783          	ld	a5,0(a5)
   14644:	fffff6b7          	lui	a3,0xfffff
   14648:	ac868693          	addi	a3,a3,-1336 # ffffffffffffeac8 <__BSS_END__+0xfffffffffffcf298>
   1464c:	0087d703          	lhu	a4,8(a5)
   14650:	00a7db03          	lhu	s6,10(a5)
   14654:	008686b3          	add	a3,a3,s0
   14658:	00abb023          	sd	a0,0(s7)
   1465c:	0006b883          	ld	a7,0(a3)
   14660:	0007061b          	sext.w	a2,a4
   14664:	00eb6463          	bltu	s6,a4,1466c <__svfscanf_r+0x1a8c>
   14668:	1100106f          	j	15778 <__svfscanf_r+0x2b98>
   1466c:	0007b503          	ld	a0,0(a5)
   14670:	fffff7b7          	lui	a5,0xfffff
   14674:	ac878793          	addi	a5,a5,-1336 # ffffffffffffeac8 <__BSS_END__+0xfffffffffffcf298>
   14678:	008787b3          	add	a5,a5,s0
   1467c:	0117b023          	sd	a7,0(a5)
   14680:	fffff7b7          	lui	a5,0xfffff
   14684:	ae878793          	addi	a5,a5,-1304 # ffffffffffffeae8 <__BSS_END__+0xfffffffffffcf2b8>
   14688:	008787b3          	add	a5,a5,s0
   1468c:	0007b783          	ld	a5,0(a5)
   14690:	003b1713          	slli	a4,s6,0x3
   14694:	001b0b1b          	addiw	s6,s6,1
   14698:	01679523          	sh	s6,10(a5)
   1469c:	fffff7b7          	lui	a5,0xfffff
   146a0:	af878793          	addi	a5,a5,-1288 # ffffffffffffeaf8 <__BSS_END__+0xfffffffffffcf2c8>
   146a4:	00e50533          	add	a0,a0,a4
   146a8:	008787b3          	add	a5,a5,s0
   146ac:	01753023          	sd	s7,0(a0)
   146b0:	0007b503          	ld	a0,0(a5)
   146b4:	00098593          	mv	a1,s3
   146b8:	000d0713          	mv	a4,s10
   146bc:	000a0693          	mv	a3,s4
   146c0:	00100613          	li	a2,1
   146c4:	7e1010ef          	jal	ra,166a4 <_fread_r>
   146c8:	fffff7b7          	lui	a5,0xfffff
   146cc:	ac878793          	addi	a5,a5,-1336 # ffffffffffffeac8 <__BSS_END__+0xfffffffffffcf298>
   146d0:	008787b3          	add	a5,a5,s0
   146d4:	0007b883          	ld	a7,0(a5)
   146d8:	00050993          	mv	s3,a0
   146dc:	00051463          	bnez	a0,146e4 <__svfscanf_r+0x1b04>
   146e0:	809fe06f          	j	12ee8 <__svfscanf_r+0x308>
   146e4:	134562e3          	bltu	a0,s4,15008 <__svfscanf_r+0x2428>
   146e8:	01b98dbb          	addw	s11,s3,s11
   146ec:	fffff7b7          	lui	a5,0xfffff
   146f0:	ae078793          	addi	a5,a5,-1312 # ffffffffffffeae0 <__BSS_END__+0xfffffffffffcf2b0>
   146f4:	008787b3          	add	a5,a5,s0
   146f8:	0007b783          	ld	a5,0(a5)
   146fc:	fffff737          	lui	a4,0xfffff
   14700:	ae070713          	addi	a4,a4,-1312 # ffffffffffffeae0 <__BSS_END__+0xfffffffffffcf2b0>
   14704:	0017879b          	addiw	a5,a5,1
   14708:	00870733          	add	a4,a4,s0
   1470c:	00f73023          	sd	a5,0(a4)
   14710:	f60fe06f          	j	12e70 <__svfscanf_r+0x290>
   14714:	560812e3          	bnez	a6,15478 <__svfscanf_r+0x2898>
   14718:	fffff7b7          	lui	a5,0xfffff
   1471c:	ad078793          	addi	a5,a5,-1328 # ffffffffffffead0 <__BSS_END__+0xfffffffffffcf2a0>
   14720:	008787b3          	add	a5,a5,s0
   14724:	0007b783          	ld	a5,0(a5)
   14728:	fffff737          	lui	a4,0xfffff
   1472c:	ad070713          	addi	a4,a4,-1328 # ffffffffffffead0 <__BSS_END__+0xfffffffffffcf2a0>
   14730:	0007bb83          	ld	s7,0(a5)
   14734:	00870733          	add	a4,a4,s0
   14738:	00878793          	addi	a5,a5,8
   1473c:	080b7313          	andi	t1,s6,128
   14740:	00f73023          	sd	a5,0(a4)
   14744:	740300e3          	beqz	t1,15684 <__svfscanf_r+0x2aa4>
   14748:	fffff7b7          	lui	a5,0xfffff
   1474c:	ac878793          	addi	a5,a5,-1336 # ffffffffffffeac8 <__BSS_END__+0xfffffffffffcf298>
   14750:	008787b3          	add	a5,a5,s0
   14754:	0117b023          	sd	a7,0(a5)
   14758:	000b9463          	bnez	s7,14760 <__svfscanf_r+0x1b80>
   1475c:	e40fe06f          	j	12d9c <__svfscanf_r+0x1bc>
   14760:	02000513          	li	a0,32
   14764:	7c4050ef          	jal	ra,19f28 <malloc>
   14768:	00050993          	mv	s3,a0
   1476c:	00051463          	bnez	a0,14774 <__svfscanf_r+0x1b94>
   14770:	811fe06f          	j	12f80 <__svfscanf_r+0x3a0>
   14774:	fffff7b7          	lui	a5,0xfffff
   14778:	ae878793          	addi	a5,a5,-1304 # ffffffffffffeae8 <__BSS_END__+0xfffffffffffcf2b8>
   1477c:	008787b3          	add	a5,a5,s0
   14780:	0007b783          	ld	a5,0(a5)
   14784:	fffff6b7          	lui	a3,0xfffff
   14788:	ac868693          	addi	a3,a3,-1336 # ffffffffffffeac8 <__BSS_END__+0xfffffffffffcf298>
   1478c:	0087d703          	lhu	a4,8(a5)
   14790:	00a7db03          	lhu	s6,10(a5)
   14794:	008686b3          	add	a3,a3,s0
   14798:	00abb023          	sd	a0,0(s7)
   1479c:	0006b883          	ld	a7,0(a3)
   147a0:	0007061b          	sext.w	a2,a4
   147a4:	66eb6a63          	bltu	s6,a4,14e18 <__svfscanf_r+0x2238>
   147a8:	fffff7b7          	lui	a5,0xfffff
   147ac:	ac878793          	addi	a5,a5,-1336 # ffffffffffffeac8 <__BSS_END__+0xfffffffffffcf298>
   147b0:	008787b3          	add	a5,a5,s0
   147b4:	000106b7          	lui	a3,0x10
   147b8:	0117b023          	sd	a7,0(a5)
   147bc:	ff668693          	addi	a3,a3,-10 # fff6 <exit-0xf2>
   147c0:	00c6f463          	bgeu	a3,a2,147c8 <__svfscanf_r+0x1be8>
   147c4:	fd4fe06f          	j	12f98 <__svfscanf_r+0x3b8>
   147c8:	fffff7b7          	lui	a5,0xfffff
   147cc:	ae878793          	addi	a5,a5,-1304 # ffffffffffffeae8 <__BSS_END__+0xfffffffffffcf2b8>
   147d0:	008787b3          	add	a5,a5,s0
   147d4:	0007ba83          	ld	s5,0(a5)
   147d8:	0087071b          	addiw	a4,a4,8
   147dc:	03071c13          	slli	s8,a4,0x30
   147e0:	000ab503          	ld	a0,0(s5)
   147e4:	030c5c13          	srli	s8,s8,0x30
   147e8:	003c1593          	slli	a1,s8,0x3
   147ec:	65c070ef          	jal	ra,1be48 <realloc>
   147f0:	00051463          	bnez	a0,147f8 <__svfscanf_r+0x1c18>
   147f4:	fa4fe06f          	j	12f98 <__svfscanf_r+0x3b8>
   147f8:	fffff7b7          	lui	a5,0xfffff
   147fc:	ac878793          	addi	a5,a5,-1336 # ffffffffffffeac8 <__BSS_END__+0xfffffffffffcf298>
   14800:	008787b3          	add	a5,a5,s0
   14804:	0007b883          	ld	a7,0(a5)
   14808:	00aab023          	sd	a0,0(s5)
   1480c:	018a9423          	sh	s8,8(s5)
   14810:	fffff7b7          	lui	a5,0xfffff
   14814:	ae878793          	addi	a5,a5,-1304 # ffffffffffffeae8 <__BSS_END__+0xfffffffffffcf2b8>
   14818:	008787b3          	add	a5,a5,s0
   1481c:	0007b783          	ld	a5,0(a5)
   14820:	003b1713          	slli	a4,s6,0x3
   14824:	00e50533          	add	a0,a0,a4
   14828:	001b0b1b          	addiw	s6,s6,1
   1482c:	01679523          	sh	s6,10(a5)
   14830:	01753023          	sd	s7,0(a0)
   14834:	02000c13          	li	s8,32
   14838:	fffff6b7          	lui	a3,0xfffff
   1483c:	f9068793          	addi	a5,a3,-112 # ffffffffffffef90 <__BSS_END__+0xfffffffffffcf760>
   14840:	ac868693          	addi	a3,a3,-1336
   14844:	008787b3          	add	a5,a5,s0
   14848:	008686b3          	add	a3,a3,s0
   1484c:	00f6b023          	sd	a5,0(a3)
   14850:	000d3703          	ld	a4,0(s10)
   14854:	fffff7b7          	lui	a5,0xfffff
   14858:	ac878793          	addi	a5,a5,-1336 # ffffffffffffeac8 <__BSS_END__+0xfffffffffffcf298>
   1485c:	008787b3          	add	a5,a5,s0
   14860:	00074683          	lbu	a3,0(a4)
   14864:	0007b783          	ld	a5,0(a5)
   14868:	00d786b3          	add	a3,a5,a3
   1486c:	b906c683          	lbu	a3,-1136(a3)
   14870:	00069463          	bnez	a3,14878 <__svfscanf_r+0x1c98>
   14874:	d28fe06f          	j	12d9c <__svfscanf_r+0x1bc>
   14878:	00098b13          	mv	s6,s3
   1487c:	00088c93          	mv	s9,a7
   14880:	000b8a93          	mv	s5,s7
   14884:	0440006f          	j	148c8 <__svfscanf_r+0x1ce8>
   14888:	41678bb3          	sub	s7,a5,s6
   1488c:	00078993          	mv	s3,a5
   14890:	118bf0e3          	bgeu	s7,s8,15190 <__svfscanf_r+0x25b0>
   14894:	fffa0a13          	addi	s4,s4,-1
   14898:	200a04e3          	beqz	s4,152a0 <__svfscanf_r+0x26c0>
   1489c:	008d2783          	lw	a5,8(s10)
   148a0:	06f05ee3          	blez	a5,1511c <__svfscanf_r+0x253c>
   148a4:	000d3703          	ld	a4,0(s10)
   148a8:	fffff6b7          	lui	a3,0xfffff
   148ac:	ac868693          	addi	a3,a3,-1336 # ffffffffffffeac8 <__BSS_END__+0xfffffffffffcf298>
   148b0:	008686b3          	add	a3,a3,s0
   148b4:	00074783          	lbu	a5,0(a4)
   148b8:	0006b683          	ld	a3,0(a3)
   148bc:	00f687b3          	add	a5,a3,a5
   148c0:	b907c783          	lbu	a5,-1136(a5)
   148c4:	1c078ee3          	beqz	a5,152a0 <__svfscanf_r+0x26c0>
   148c8:	008d2783          	lw	a5,8(s10)
   148cc:	00170693          	addi	a3,a4,1
   148d0:	00dd3023          	sd	a3,0(s10)
   148d4:	fff7879b          	addiw	a5,a5,-1
   148d8:	00fd2423          	sw	a5,8(s10)
   148dc:	00074703          	lbu	a4,0(a4)
   148e0:	00198793          	addi	a5,s3,1
   148e4:	00e98023          	sb	a4,0(s3)
   148e8:	fa0a90e3          	bnez	s5,14888 <__svfscanf_r+0x1ca8>
   148ec:	00078993          	mv	s3,a5
   148f0:	fa5ff06f          	j	14894 <__svfscanf_r+0x1cb4>
   148f4:	6e0b98e3          	bnez	s7,157e4 <__svfscanf_r+0x2c04>
   148f8:	fffff7b7          	lui	a5,0xfffff
   148fc:	ad078793          	addi	a5,a5,-1328 # ffffffffffffead0 <__BSS_END__+0xfffffffffffcf2a0>
   14900:	008787b3          	add	a5,a5,s0
   14904:	0007b783          	ld	a5,0(a5)
   14908:	fffff737          	lui	a4,0xfffff
   1490c:	ad070713          	addi	a4,a4,-1328 # ffffffffffffead0 <__BSS_END__+0xfffffffffffcf2a0>
   14910:	0007bb83          	ld	s7,0(a5)
   14914:	00870733          	add	a4,a4,s0
   14918:	00878793          	addi	a5,a5,8
   1491c:	080b7313          	andi	t1,s6,128
   14920:	00f73023          	sd	a5,0(a4)
   14924:	440308e3          	beqz	t1,15574 <__svfscanf_r+0x2994>
   14928:	fffff7b7          	lui	a5,0xfffff
   1492c:	ac878793          	addi	a5,a5,-1336 # ffffffffffffeac8 <__BSS_END__+0xfffffffffffcf298>
   14930:	008787b3          	add	a5,a5,s0
   14934:	0117b023          	sd	a7,0(a5)
   14938:	000b9463          	bnez	s7,14940 <__svfscanf_r+0x1d60>
   1493c:	c60fe06f          	j	12d9c <__svfscanf_r+0x1bc>
   14940:	02000513          	li	a0,32
   14944:	5e4050ef          	jal	ra,19f28 <malloc>
   14948:	00050993          	mv	s3,a0
   1494c:	00051463          	bnez	a0,14954 <__svfscanf_r+0x1d74>
   14950:	e30fe06f          	j	12f80 <__svfscanf_r+0x3a0>
   14954:	fffff7b7          	lui	a5,0xfffff
   14958:	ae878793          	addi	a5,a5,-1304 # ffffffffffffeae8 <__BSS_END__+0xfffffffffffcf2b8>
   1495c:	008787b3          	add	a5,a5,s0
   14960:	0007b783          	ld	a5,0(a5)
   14964:	fffff6b7          	lui	a3,0xfffff
   14968:	ac868693          	addi	a3,a3,-1336 # ffffffffffffeac8 <__BSS_END__+0xfffffffffffcf298>
   1496c:	0087d703          	lhu	a4,8(a5)
   14970:	00a7db03          	lhu	s6,10(a5)
   14974:	008686b3          	add	a3,a3,s0
   14978:	00abb023          	sd	a0,0(s7)
   1497c:	0006b883          	ld	a7,0(a3)
   14980:	0007061b          	sext.w	a2,a4
   14984:	2aeb7a63          	bgeu	s6,a4,14c38 <__svfscanf_r+0x2058>
   14988:	0007b503          	ld	a0,0(a5)
   1498c:	fffff7b7          	lui	a5,0xfffff
   14990:	ae878793          	addi	a5,a5,-1304 # ffffffffffffeae8 <__BSS_END__+0xfffffffffffcf2b8>
   14994:	008787b3          	add	a5,a5,s0
   14998:	0007b783          	ld	a5,0(a5)
   1499c:	003b1713          	slli	a4,s6,0x3
   149a0:	00e50533          	add	a0,a0,a4
   149a4:	001b0b1b          	addiw	s6,s6,1
   149a8:	01679523          	sh	s6,10(a5)
   149ac:	01753023          	sd	s7,0(a0)
   149b0:	02000c93          	li	s9,32
   149b4:	000d3703          	ld	a4,0(s10)
   149b8:	00074683          	lbu	a3,0(a4)
   149bc:	00d906b3          	add	a3,s2,a3
   149c0:	0006c683          	lbu	a3,0(a3)
   149c4:	0086f693          	andi	a3,a3,8
   149c8:	380698e3          	bnez	a3,15558 <__svfscanf_r+0x2978>
   149cc:	00098b13          	mv	s6,s3
   149d0:	00088a93          	mv	s5,a7
   149d4:	008d2783          	lw	a5,8(s10)
   149d8:	00170693          	addi	a3,a4,1
   149dc:	00dd3023          	sd	a3,0(s10)
   149e0:	fff7879b          	addiw	a5,a5,-1
   149e4:	00fd2423          	sw	a5,8(s10)
   149e8:	00074783          	lbu	a5,0(a4)
   149ec:	00198c13          	addi	s8,s3,1
   149f0:	00f98023          	sb	a5,0(s3)
   149f4:	000b8663          	beqz	s7,14a00 <__svfscanf_r+0x1e20>
   149f8:	416c09b3          	sub	s3,s8,s6
   149fc:	3b99f6e3          	bgeu	s3,s9,155a8 <__svfscanf_r+0x29c8>
   14a00:	fffa0a13          	addi	s4,s4,-1
   14a04:	0c0a02e3          	beqz	s4,152c8 <__svfscanf_r+0x26e8>
   14a08:	008d2783          	lw	a5,8(s10)
   14a0c:	0af050e3          	blez	a5,152ac <__svfscanf_r+0x26cc>
   14a10:	000d3703          	ld	a4,0(s10)
   14a14:	00074783          	lbu	a5,0(a4)
   14a18:	00f907b3          	add	a5,s2,a5
   14a1c:	0007c783          	lbu	a5,0(a5)
   14a20:	0087f793          	andi	a5,a5,8
   14a24:	0a0792e3          	bnez	a5,152c8 <__svfscanf_r+0x26e8>
   14a28:	000c0993          	mv	s3,s8
   14a2c:	fa9ff06f          	j	149d4 <__svfscanf_r+0x1df4>
   14a30:	fffff7b7          	lui	a5,0xfffff
   14a34:	000c8b93          	mv	s7,s9
   14a38:	ac078793          	addi	a5,a5,-1344 # ffffffffffffeac0 <__BSS_END__+0xfffffffffffcf290>
   14a3c:	008787b3          	add	a5,a5,s0
   14a40:	effbf313          	andi	t1,s7,-257
   14a44:	000b0893          	mv	a7,s6
   14a48:	00098c93          	mv	s9,s3
   14a4c:	00048b13          	mv	s6,s1
   14a50:	000a0993          	mv	s3,s4
   14a54:	0007b483          	ld	s1,0(a5)
   14a58:	00030b9b          	sext.w	s7,t1
   14a5c:	e60ff06f          	j	140bc <__svfscanf_r+0x14dc>
   14a60:	fffff7b7          	lui	a5,0xfffff
   14a64:	a9878793          	addi	a5,a5,-1384 # ffffffffffffea98 <__BSS_END__+0xfffffffffffcf268>
   14a68:	008787b3          	add	a5,a5,s0
   14a6c:	0007b783          	ld	a5,0(a5)
   14a70:	fffff6b7          	lui	a3,0xfffff
   14a74:	a9868693          	addi	a3,a3,-1384 # ffffffffffffea98 <__BSS_END__+0xfffffffffffcf268>
   14a78:	fff7879b          	addiw	a5,a5,-1
   14a7c:	008686b3          	add	a3,a3,s0
   14a80:	00f6b023          	sd	a5,0(a3)
   14a84:	d3cff06f          	j	13fc0 <__svfscanf_r+0x13e0>
   14a88:	fffff7b7          	lui	a5,0xfffff
   14a8c:	ac078793          	addi	a5,a5,-1344 # ffffffffffffeac0 <__BSS_END__+0xfffffffffffcf290>
   14a90:	008787b3          	add	a5,a5,s0
   14a94:	0007b783          	ld	a5,0(a5)
   14a98:	c7fbfb93          	andi	s7,s7,-897
   14a9c:	00078e63          	beqz	a5,14ab8 <__svfscanf_r+0x1ed8>
   14aa0:	fffff6b7          	lui	a3,0xfffff
   14aa4:	ac068693          	addi	a3,a3,-1344 # ffffffffffffeac0 <__BSS_END__+0xfffffffffffcf290>
   14aa8:	fff7879b          	addiw	a5,a5,-1
   14aac:	008686b3          	add	a3,a3,s0
   14ab0:	00f6b023          	sd	a5,0(a3)
   14ab4:	00148493          	addi	s1,s1,1
   14ab8:	0019899b          	addiw	s3,s3,1
   14abc:	885ff06f          	j	14340 <__svfscanf_r+0x1760>
   14ac0:	00200713          	li	a4,2
   14ac4:	01676463          	bltu	a4,s6,14acc <__svfscanf_r+0x1eec>
   14ac8:	0fc0106f          	j	15bc4 <__svfscanf_r+0x2fe4>
   14acc:	00300713          	li	a4,3
   14ad0:	e0eb0463          	beq	s6,a4,140d8 <__svfscanf_r+0x14f8>
   14ad4:	fffff7b7          	lui	a5,0xfffff
   14ad8:	af878793          	addi	a5,a5,-1288 # ffffffffffffeaf8 <__BSS_END__+0xfffffffffffcf2c8>
   14adc:	ffcb061b          	addiw	a2,s6,-4
   14ae0:	008787b3          	add	a5,a5,s0
   14ae4:	0ff67a13          	zext.b	s4,a2
   14ae8:	0007ba83          	ld	s5,0(a5)
   14aec:	fffa4c93          	not	s9,s4
   14af0:	019c0cb3          	add	s9,s8,s9
   14af4:	00088b13          	mv	s6,a7
   14af8:	fffc4583          	lbu	a1,-1(s8)
   14afc:	000d0613          	mv	a2,s10
   14b00:	fffc0c13          	addi	s8,s8,-1
   14b04:	000a8513          	mv	a0,s5
   14b08:	3f10c0ef          	jal	ra,216f8 <_ungetc_r>
   14b0c:	ff9c16e3          	bne	s8,s9,14af8 <__svfscanf_r+0x1f18>
   14b10:	fffd881b          	addiw	a6,s11,-1
   14b14:	000b0893          	mv	a7,s6
   14b18:	41480dbb          	subw	s11,a6,s4
   14b1c:	dbcff06f          	j	140d8 <__svfscanf_r+0x14f8>
   14b20:	664090ef          	jal	ra,1e184 <_strtod_r>
   14b24:	fffff7b7          	lui	a5,0xfffff
   14b28:	ac878793          	addi	a5,a5,-1336 # ffffffffffffeac8 <__BSS_END__+0xfffffffffffcf298>
   14b2c:	008787b3          	add	a5,a5,s0
   14b30:	0007b883          	ld	a7,0(a5)
   14b34:	00050993          	mv	s3,a0
   14b38:	ea0b9863          	bnez	s7,141e8 <__svfscanf_r+0x1608>
   14b3c:	fffff7b7          	lui	a5,0xfffff
   14b40:	ac878793          	addi	a5,a5,-1336 # ffffffffffffeac8 <__BSS_END__+0xfffffffffffcf298>
   14b44:	008787b3          	add	a5,a5,s0
   14b48:	0117b023          	sd	a7,0(a5)
   14b4c:	00050593          	mv	a1,a0
   14b50:	550150ef          	jal	ra,2a0a0 <__unorddf2>
   14b54:	fffff7b7          	lui	a5,0xfffff
   14b58:	ad078793          	addi	a5,a5,-1328 # ffffffffffffead0 <__BSS_END__+0xfffffffffffcf2a0>
   14b5c:	008787b3          	add	a5,a5,s0
   14b60:	0007b783          	ld	a5,0(a5)
   14b64:	0007ba03          	ld	s4,0(a5)
   14b68:	fffff7b7          	lui	a5,0xfffff
   14b6c:	ac878793          	addi	a5,a5,-1336 # ffffffffffffeac8 <__BSS_END__+0xfffffffffffcf298>
   14b70:	008787b3          	add	a5,a5,s0
   14b74:	0007b883          	ld	a7,0(a5)
   14b78:	fffff7b7          	lui	a5,0xfffff
   14b7c:	ad078793          	addi	a5,a5,-1328 # ffffffffffffead0 <__BSS_END__+0xfffffffffffcf2a0>
   14b80:	008787b3          	add	a5,a5,s0
   14b84:	0117b023          	sd	a7,0(a5)
   14b88:	00050463          	beqz	a0,14b90 <__svfscanf_r+0x1fb0>
   14b8c:	0100106f          	j	15b9c <__svfscanf_r+0x2fbc>
   14b90:	00098513          	mv	a0,s3
   14b94:	639160ef          	jal	ra,2b9cc <__truncdfsf2>
   14b98:	fffff7b7          	lui	a5,0xfffff
   14b9c:	ad078793          	addi	a5,a5,-1328 # ffffffffffffead0 <__BSS_END__+0xfffffffffffcf2a0>
   14ba0:	008787b3          	add	a5,a5,s0
   14ba4:	0007b883          	ld	a7,0(a5)
   14ba8:	00aa2023          	sw	a0,0(s4)
   14bac:	e54ff06f          	j	14200 <__svfscanf_r+0x1620>
   14bb0:	fffff7b7          	lui	a5,0xfffff
   14bb4:	af878793          	addi	a5,a5,-1288 # ffffffffffffeaf8 <__BSS_END__+0xfffffffffffcf2c8>
   14bb8:	008787b3          	add	a5,a5,s0
   14bbc:	0007b503          	ld	a0,0(a5)
   14bc0:	000d0713          	mv	a4,s10
   14bc4:	000a0693          	mv	a3,s4
   14bc8:	00100613          	li	a2,1
   14bcc:	000b8593          	mv	a1,s7
   14bd0:	2d5010ef          	jal	ra,166a4 <_fread_r>
   14bd4:	fffff7b7          	lui	a5,0xfffff
   14bd8:	ac878793          	addi	a5,a5,-1336 # ffffffffffffeac8 <__BSS_END__+0xfffffffffffcf298>
   14bdc:	008787b3          	add	a5,a5,s0
   14be0:	0007b883          	ld	a7,0(a5)
   14be4:	00050993          	mv	s3,a0
   14be8:	b00510e3          	bnez	a0,146e8 <__svfscanf_r+0x1b08>
   14bec:	b74fe06f          	j	12f60 <__svfscanf_r+0x380>
   14bf0:	fffff7b7          	lui	a5,0xfffff
   14bf4:	ac078793          	addi	a5,a5,-1344 # ffffffffffffeac0 <__BSS_END__+0xfffffffffffcf290>
   14bf8:	008787b3          	add	a5,a5,s0
   14bfc:	0117b023          	sd	a7,0(a5)
   14c00:	fffff7b7          	lui	a5,0xfffff
   14c04:	af878793          	addi	a5,a5,-1288 # ffffffffffffeaf8 <__BSS_END__+0xfffffffffffcf2c8>
   14c08:	008787b3          	add	a5,a5,s0
   14c0c:	0007b503          	ld	a0,0(a5)
   14c10:	000d0613          	mv	a2,s10
   14c14:	ffec0a13          	addi	s4,s8,-2
   14c18:	2e10c0ef          	jal	ra,216f8 <_ungetc_r>
   14c1c:	fffff7b7          	lui	a5,0xfffff
   14c20:	ac078793          	addi	a5,a5,-1344 # ffffffffffffeac0 <__BSS_END__+0xfffffffffffcf290>
   14c24:	008787b3          	add	a5,a5,s0
   14c28:	ffec4583          	lbu	a1,-2(s8)
   14c2c:	0007b883          	ld	a7,0(a5)
   14c30:	ffed8a9b          	addiw	s5,s11,-2
   14c34:	cd4ff06f          	j	14108 <__svfscanf_r+0x1528>
   14c38:	fffff7b7          	lui	a5,0xfffff
   14c3c:	ac878793          	addi	a5,a5,-1336 # ffffffffffffeac8 <__BSS_END__+0xfffffffffffcf298>
   14c40:	008787b3          	add	a5,a5,s0
   14c44:	000106b7          	lui	a3,0x10
   14c48:	0117b023          	sd	a7,0(a5)
   14c4c:	ff668693          	addi	a3,a3,-10 # fff6 <exit-0xf2>
   14c50:	00c6f463          	bgeu	a3,a2,14c58 <__svfscanf_r+0x2078>
   14c54:	b44fe06f          	j	12f98 <__svfscanf_r+0x3b8>
   14c58:	fffff7b7          	lui	a5,0xfffff
   14c5c:	ae878793          	addi	a5,a5,-1304 # ffffffffffffeae8 <__BSS_END__+0xfffffffffffcf2b8>
   14c60:	008787b3          	add	a5,a5,s0
   14c64:	0007ba83          	ld	s5,0(a5)
   14c68:	0087071b          	addiw	a4,a4,8
   14c6c:	03071c13          	slli	s8,a4,0x30
   14c70:	000ab503          	ld	a0,0(s5)
   14c74:	030c5c13          	srli	s8,s8,0x30
   14c78:	003c1593          	slli	a1,s8,0x3
   14c7c:	1cc070ef          	jal	ra,1be48 <realloc>
   14c80:	00051463          	bnez	a0,14c88 <__svfscanf_r+0x20a8>
   14c84:	b14fe06f          	j	12f98 <__svfscanf_r+0x3b8>
   14c88:	fffff7b7          	lui	a5,0xfffff
   14c8c:	ac878793          	addi	a5,a5,-1336 # ffffffffffffeac8 <__BSS_END__+0xfffffffffffcf298>
   14c90:	008787b3          	add	a5,a5,s0
   14c94:	0007b883          	ld	a7,0(a5)
   14c98:	00aab023          	sd	a0,0(s5)
   14c9c:	018a9423          	sh	s8,8(s5)
   14ca0:	cedff06f          	j	1498c <__svfscanf_r+0x1dac>
   14ca4:	fffff7b7          	lui	a5,0xfffff
   14ca8:	b1078793          	addi	a5,a5,-1264 # ffffffffffffeb10 <__BSS_END__+0xfffffffffffcf2e0>
   14cac:	008787b3          	add	a5,a5,s0
   14cb0:	0007a683          	lw	a3,0(a5)
   14cb4:	00400713          	li	a4,4
   14cb8:	88e69263          	bne	a3,a4,13d3c <__svfscanf_r+0x115c>
   14cbc:	fffff7b7          	lui	a5,0xfffff
   14cc0:	aa078793          	addi	a5,a5,-1376 # ffffffffffffeaa0 <__BSS_END__+0xfffffffffffcf270>
   14cc4:	008787b3          	add	a5,a5,s0
   14cc8:	0007b783          	ld	a5,0(a5)
   14ccc:	88078463          	beqz	a5,13d54 <__svfscanf_r+0x1174>
   14cd0:	008d2703          	lw	a4,8(s10)
   14cd4:	00000c93          	li	s9,0
   14cd8:	8ce04863          	bgtz	a4,13da8 <__svfscanf_r+0x11c8>
   14cdc:	fffff7b7          	lui	a5,0xfffff
   14ce0:	af878793          	addi	a5,a5,-1288 # ffffffffffffeaf8 <__BSS_END__+0xfffffffffffcf2c8>
   14ce4:	008787b3          	add	a5,a5,s0
   14ce8:	0007b503          	ld	a0,0(a5)
   14cec:	000d0593          	mv	a1,s10
   14cf0:	6e8070ef          	jal	ra,1c3d8 <__srefill_r>
   14cf4:	8a050a63          	beqz	a0,13da8 <__svfscanf_r+0x11c8>
   14cf8:	fffff7b7          	lui	a5,0xfffff
   14cfc:	a8078793          	addi	a5,a5,-1408 # ffffffffffffea80 <__BSS_END__+0xfffffffffffcf250>
   14d00:	008787b3          	add	a5,a5,s0
   14d04:	0007b883          	ld	a7,0(a5)
   14d08:	fffff7b7          	lui	a5,0xfffff
   14d0c:	aa078793          	addi	a5,a5,-1376 # ffffffffffffeaa0 <__BSS_END__+0xfffffffffffcf270>
   14d10:	008787b3          	add	a5,a5,s0
   14d14:	0007b803          	ld	a6,0(a5)
   14d18:	8a0c8a63          	beqz	s9,13dcc <__svfscanf_r+0x11ec>
   14d1c:	a44fe06f          	j	12f60 <__svfscanf_r+0x380>
   14d20:	fffff7b7          	lui	a5,0xfffff
   14d24:	ac078793          	addi	a5,a5,-1344 # ffffffffffffeac0 <__BSS_END__+0xfffffffffffcf290>
   14d28:	008787b3          	add	a5,a5,s0
   14d2c:	0107b023          	sd	a6,0(a5)
   14d30:	fffff7b7          	lui	a5,0xfffff
   14d34:	ac878793          	addi	a5,a5,-1336 # ffffffffffffeac8 <__BSS_END__+0xfffffffffffcf298>
   14d38:	008787b3          	add	a5,a5,s0
   14d3c:	000106b7          	lui	a3,0x10
   14d40:	0117b023          	sd	a7,0(a5)
   14d44:	ff668693          	addi	a3,a3,-10 # fff6 <exit-0xf2>
   14d48:	00c6f463          	bgeu	a3,a2,14d50 <__svfscanf_r+0x2170>
   14d4c:	a4cfe06f          	j	12f98 <__svfscanf_r+0x3b8>
   14d50:	fffff7b7          	lui	a5,0xfffff
   14d54:	ae878793          	addi	a5,a5,-1304 # ffffffffffffeae8 <__BSS_END__+0xfffffffffffcf2b8>
   14d58:	008787b3          	add	a5,a5,s0
   14d5c:	0007ba83          	ld	s5,0(a5)
   14d60:	0087071b          	addiw	a4,a4,8
   14d64:	03071b13          	slli	s6,a4,0x30
   14d68:	000ab503          	ld	a0,0(s5)
   14d6c:	030b5b13          	srli	s6,s6,0x30
   14d70:	003b1593          	slli	a1,s6,0x3
   14d74:	0d4070ef          	jal	ra,1be48 <realloc>
   14d78:	00051463          	bnez	a0,14d80 <__svfscanf_r+0x21a0>
   14d7c:	a1cfe06f          	j	12f98 <__svfscanf_r+0x3b8>
   14d80:	fffff7b7          	lui	a5,0xfffff
   14d84:	ac078793          	addi	a5,a5,-1344 # ffffffffffffeac0 <__BSS_END__+0xfffffffffffcf290>
   14d88:	008787b3          	add	a5,a5,s0
   14d8c:	0007b803          	ld	a6,0(a5)
   14d90:	fffff7b7          	lui	a5,0xfffff
   14d94:	ac878793          	addi	a5,a5,-1336 # ffffffffffffeac8 <__BSS_END__+0xfffffffffffcf298>
   14d98:	008787b3          	add	a5,a5,s0
   14d9c:	0007b883          	ld	a7,0(a5)
   14da0:	00aab023          	sd	a0,0(s5)
   14da4:	016a9423          	sh	s6,8(s5)
   14da8:	d69fe06f          	j	13b10 <__svfscanf_r+0xf30>
   14dac:	fffff7b7          	lui	a5,0xfffff
   14db0:	ac878793          	addi	a5,a5,-1336 # ffffffffffffeac8 <__BSS_END__+0xfffffffffffcf298>
   14db4:	008787b3          	add	a5,a5,s0
   14db8:	000106b7          	lui	a3,0x10
   14dbc:	0117b023          	sd	a7,0(a5)
   14dc0:	ff668693          	addi	a3,a3,-10 # fff6 <exit-0xf2>
   14dc4:	00c6f463          	bgeu	a3,a2,14dcc <__svfscanf_r+0x21ec>
   14dc8:	9d0fe06f          	j	12f98 <__svfscanf_r+0x3b8>
   14dcc:	fffff7b7          	lui	a5,0xfffff
   14dd0:	ae878793          	addi	a5,a5,-1304 # ffffffffffffeae8 <__BSS_END__+0xfffffffffffcf2b8>
   14dd4:	008787b3          	add	a5,a5,s0
   14dd8:	0007ba83          	ld	s5,0(a5)
   14ddc:	0087071b          	addiw	a4,a4,8
   14de0:	03071c93          	slli	s9,a4,0x30
   14de4:	000ab503          	ld	a0,0(s5)
   14de8:	030cdc93          	srli	s9,s9,0x30
   14dec:	003c9593          	slli	a1,s9,0x3
   14df0:	058070ef          	jal	ra,1be48 <realloc>
   14df4:	00051463          	bnez	a0,14dfc <__svfscanf_r+0x221c>
   14df8:	9a0fe06f          	j	12f98 <__svfscanf_r+0x3b8>
   14dfc:	fffff7b7          	lui	a5,0xfffff
   14e00:	ac878793          	addi	a5,a5,-1336 # ffffffffffffeac8 <__BSS_END__+0xfffffffffffcf298>
   14e04:	008787b3          	add	a5,a5,s0
   14e08:	0007b883          	ld	a7,0(a5)
   14e0c:	00aab023          	sd	a0,0(s5)
   14e10:	019a9423          	sh	s9,8(s5)
   14e14:	afcfe06f          	j	13110 <__svfscanf_r+0x530>
   14e18:	0007b503          	ld	a0,0(a5)
   14e1c:	9f5ff06f          	j	14810 <__svfscanf_r+0x1c30>
   14e20:	fffff7b7          	lui	a5,0xfffff
   14e24:	af878793          	addi	a5,a5,-1288 # ffffffffffffeaf8 <__BSS_END__+0xfffffffffffcf2c8>
   14e28:	008787b3          	add	a5,a5,s0
   14e2c:	0007b503          	ld	a0,0(a5)
   14e30:	000d0593          	mv	a1,s10
   14e34:	5a4070ef          	jal	ra,1c3d8 <__srefill_r>
   14e38:	00051463          	bnez	a0,14e40 <__svfscanf_r+0x2260>
   14e3c:	b75fe06f          	j	139b0 <__svfscanf_r+0xdd0>
   14e40:	fffff7b7          	lui	a5,0xfffff
   14e44:	a9078793          	addi	a5,a5,-1392 # ffffffffffffea90 <__BSS_END__+0xfffffffffffcf260>
   14e48:	008787b3          	add	a5,a5,s0
   14e4c:	0007b883          	ld	a7,0(a5)
   14e50:	fffff7b7          	lui	a5,0xfffff
   14e54:	aa878793          	addi	a5,a5,-1368 # ffffffffffffeaa8 <__BSS_END__+0xfffffffffffcf278>
   14e58:	008787b3          	add	a5,a5,s0
   14e5c:	0007bf03          	ld	t5,0(a5)
   14e60:	fffff7b7          	lui	a5,0xfffff
   14e64:	ac078793          	addi	a5,a5,-1344 # ffffffffffffeac0 <__BSS_END__+0xfffffffffffcf290>
   14e68:	008787b3          	add	a5,a5,s0
   14e6c:	0007b683          	ld	a3,0(a5)
   14e70:	00099463          	bnez	s3,14e78 <__svfscanf_r+0x2298>
   14e74:	b71fe06f          	j	139e4 <__svfscanf_r+0xe04>
   14e78:	8e8fe06f          	j	12f60 <__svfscanf_r+0x380>
   14e7c:	fffff7b7          	lui	a5,0xfffff
   14e80:	aa878793          	addi	a5,a5,-1368 # ffffffffffffeaa8 <__BSS_END__+0xfffffffffffcf278>
   14e84:	008787b3          	add	a5,a5,s0
   14e88:	00d7b023          	sd	a3,0(a5)
   14e8c:	fffff7b7          	lui	a5,0xfffff
   14e90:	ac078793          	addi	a5,a5,-1344 # ffffffffffffeac0 <__BSS_END__+0xfffffffffffcf290>
   14e94:	008787b3          	add	a5,a5,s0
   14e98:	01e7b023          	sd	t5,0(a5)
   14e9c:	fffff7b7          	lui	a5,0xfffff
   14ea0:	ac878793          	addi	a5,a5,-1336 # ffffffffffffeac8 <__BSS_END__+0xfffffffffffcf298>
   14ea4:	008787b3          	add	a5,a5,s0
   14ea8:	00010637          	lui	a2,0x10
   14eac:	0117b023          	sd	a7,0(a5)
   14eb0:	ff660613          	addi	a2,a2,-10 # fff6 <exit-0xf2>
   14eb4:	00b67463          	bgeu	a2,a1,14ebc <__svfscanf_r+0x22dc>
   14eb8:	8e0fe06f          	j	12f98 <__svfscanf_r+0x3b8>
   14ebc:	fffff7b7          	lui	a5,0xfffff
   14ec0:	ae878793          	addi	a5,a5,-1304 # ffffffffffffeae8 <__BSS_END__+0xfffffffffffcf2b8>
   14ec4:	008787b3          	add	a5,a5,s0
   14ec8:	0007ba83          	ld	s5,0(a5)
   14ecc:	0087071b          	addiw	a4,a4,8
   14ed0:	03071b13          	slli	s6,a4,0x30
   14ed4:	000ab503          	ld	a0,0(s5)
   14ed8:	030b5b13          	srli	s6,s6,0x30
   14edc:	003b1593          	slli	a1,s6,0x3
   14ee0:	769060ef          	jal	ra,1be48 <realloc>
   14ee4:	00051463          	bnez	a0,14eec <__svfscanf_r+0x230c>
   14ee8:	8b0fe06f          	j	12f98 <__svfscanf_r+0x3b8>
   14eec:	fffff7b7          	lui	a5,0xfffff
   14ef0:	aa878793          	addi	a5,a5,-1368 # ffffffffffffeaa8 <__BSS_END__+0xfffffffffffcf278>
   14ef4:	008787b3          	add	a5,a5,s0
   14ef8:	0007b683          	ld	a3,0(a5)
   14efc:	fffff7b7          	lui	a5,0xfffff
   14f00:	ac078793          	addi	a5,a5,-1344 # ffffffffffffeac0 <__BSS_END__+0xfffffffffffcf290>
   14f04:	008787b3          	add	a5,a5,s0
   14f08:	0007bf03          	ld	t5,0(a5)
   14f0c:	fffff7b7          	lui	a5,0xfffff
   14f10:	ac878793          	addi	a5,a5,-1336 # ffffffffffffeac8 <__BSS_END__+0xfffffffffffcf298>
   14f14:	008787b3          	add	a5,a5,s0
   14f18:	0007b883          	ld	a7,0(a5)
   14f1c:	00aab023          	sd	a0,0(s5)
   14f20:	016a9423          	sh	s6,8(s5)
   14f24:	8c5fe06f          	j	137e8 <__svfscanf_r+0xc08>
   14f28:	fffff7b7          	lui	a5,0xfffff
   14f2c:	ad078793          	addi	a5,a5,-1328 # ffffffffffffead0 <__BSS_END__+0xfffffffffffcf2a0>
   14f30:	008787b3          	add	a5,a5,s0
   14f34:	0007b783          	ld	a5,0(a5)
   14f38:	0007b703          	ld	a4,0(a5)
   14f3c:	00a70023          	sb	a0,0(a4)
   14f40:	e24ff06f          	j	14564 <__svfscanf_r+0x1984>
   14f44:	fffff7b7          	lui	a5,0xfffff
   14f48:	ad078793          	addi	a5,a5,-1328 # ffffffffffffead0 <__BSS_END__+0xfffffffffffcf2a0>
   14f4c:	008787b3          	add	a5,a5,s0
   14f50:	0007b783          	ld	a5,0(a5)
   14f54:	0007b703          	ld	a4,0(a5)
   14f58:	00a73023          	sd	a0,0(a4)
   14f5c:	00b73423          	sd	a1,8(a4)
   14f60:	aa0ff06f          	j	14200 <__svfscanf_r+0x1620>
   14f64:	fffff7b7          	lui	a5,0xfffff
   14f68:	ac878793          	addi	a5,a5,-1336 # ffffffffffffeac8 <__BSS_END__+0xfffffffffffcf298>
   14f6c:	008787b3          	add	a5,a5,s0
   14f70:	0117b023          	sd	a7,0(a5)
   14f74:	fffff7b7          	lui	a5,0xfffff
   14f78:	a9078793          	addi	a5,a5,-1392 # ffffffffffffea90 <__BSS_END__+0xfffffffffffcf260>
   14f7c:	008787b3          	add	a5,a5,s0
   14f80:	0007bc03          	ld	s8,0(a5)
   14f84:	fffff7b7          	lui	a5,0xfffff
   14f88:	af878793          	addi	a5,a5,-1288 # ffffffffffffeaf8 <__BSS_END__+0xfffffffffffcf2c8>
   14f8c:	008787b3          	add	a5,a5,s0
   14f90:	0007b503          	ld	a0,0(a5)
   14f94:	00000613          	li	a2,0
   14f98:	00a00693          	li	a3,10
   14f9c:	001c0593          	addi	a1,s8,1
   14fa0:	205090ef          	jal	ra,1e9a4 <_strtol_r>
   14fa4:	fffff7b7          	lui	a5,0xfffff
   14fa8:	aa078793          	addi	a5,a5,-1376 # ffffffffffffeaa0 <__BSS_END__+0xfffffffffffcf270>
   14fac:	008787b3          	add	a5,a5,s0
   14fb0:	0007b783          	ld	a5,0(a5)
   14fb4:	40f50633          	sub	a2,a0,a5
   14fb8:	fffff7b7          	lui	a5,0xfffff
   14fbc:	ac878793          	addi	a5,a5,-1336 # ffffffffffffeac8 <__BSS_END__+0xfffffffffffcf298>
   14fc0:	008787b3          	add	a5,a5,s0
   14fc4:	0007b883          	ld	a7,0(a5)
   14fc8:	f7940713          	addi	a4,s0,-135
   14fcc:	00ec6463          	bltu	s8,a4,14fd4 <__svfscanf_r+0x23f4>
   14fd0:	f7840c13          	addi	s8,s0,-136
   14fd4:	fffff7b7          	lui	a5,0xfffff
   14fd8:	ac878793          	addi	a5,a5,-1336 # ffffffffffffeac8 <__BSS_END__+0xfffffffffffcf298>
   14fdc:	0002c5b7          	lui	a1,0x2c
   14fe0:	008787b3          	add	a5,a5,s0
   14fe4:	0e058593          	addi	a1,a1,224 # 2c0e0 <blanks.1+0x40>
   14fe8:	000c0513          	mv	a0,s8
   14fec:	0117b023          	sd	a7,0(a5)
   14ff0:	03d070ef          	jal	ra,1c82c <sprintf>
   14ff4:	fffff7b7          	lui	a5,0xfffff
   14ff8:	ac878793          	addi	a5,a5,-1336 # ffffffffffffeac8 <__BSS_END__+0xfffffffffffcf298>
   14ffc:	008787b3          	add	a5,a5,s0
   15000:	0007b883          	ld	a7,0(a5)
   15004:	978ff06f          	j	1417c <__svfscanf_r+0x159c>
   15008:	000bb503          	ld	a0,0(s7)
   1500c:	fffff7b7          	lui	a5,0xfffff
   15010:	ac878793          	addi	a5,a5,-1336 # ffffffffffffeac8 <__BSS_END__+0xfffffffffffcf298>
   15014:	008787b3          	add	a5,a5,s0
   15018:	00098593          	mv	a1,s3
   1501c:	0117b023          	sd	a7,0(a5)
   15020:	629060ef          	jal	ra,1be48 <realloc>
   15024:	fffff7b7          	lui	a5,0xfffff
   15028:	ac878793          	addi	a5,a5,-1336 # ffffffffffffeac8 <__BSS_END__+0xfffffffffffcf298>
   1502c:	008787b3          	add	a5,a5,s0
   15030:	0007b883          	ld	a7,0(a5)
   15034:	ea050a63          	beqz	a0,146e8 <__svfscanf_r+0x1b08>
   15038:	00abb023          	sd	a0,0(s7)
   1503c:	eacff06f          	j	146e8 <__svfscanf_r+0x1b08>
   15040:	fffff7b7          	lui	a5,0xfffff
   15044:	aa878793          	addi	a5,a5,-1368 # ffffffffffffeaa8 <__BSS_END__+0xfffffffffffcf278>
   15048:	008787b3          	add	a5,a5,s0
   1504c:	00d7b023          	sd	a3,0(a5)
   15050:	fffff7b7          	lui	a5,0xfffff
   15054:	ac078793          	addi	a5,a5,-1344 # ffffffffffffeac0 <__BSS_END__+0xfffffffffffcf290>
   15058:	008787b3          	add	a5,a5,s0
   1505c:	0117b023          	sd	a7,0(a5)
   15060:	000f3503          	ld	a0,0(t5)
   15064:	fffff7b7          	lui	a5,0xfffff
   15068:	ac878793          	addi	a5,a5,-1336 # ffffffffffffeac8 <__BSS_END__+0xfffffffffffcf298>
   1506c:	008787b3          	add	a5,a5,s0
   15070:	01e7b023          	sd	t5,0(a5)
   15074:	5d5060ef          	jal	ra,1be48 <realloc>
   15078:	fffff7b7          	lui	a5,0xfffff
